 mcubes

 Timestamp is 66adfc0e (Sat Aug  3 12:44:46 2024)

 Preferred load address is 0000000140000000

 Start         Length     Name                   Class
 0001:00000000 00043b00H .text$mn                CODE
 0001:00043b00 00000036H .text$mn$00             CODE
 0001:00043b36 00000036H .text$x                 CODE
 0002:00000000 00000708H .idata$5                DATA
 0002:00000708 00000038H .00cfg                  DATA
 0002:00000740 00000008H .CRT$XCA                DATA
 0002:00000748 00000008H .CRT$XCAA               DATA
 0002:00000750 00000008H .CRT$XCZ                DATA
 0002:00000758 00000008H .CRT$XIA                DATA
 0002:00000760 00000008H .CRT$XIAA               DATA
 0002:00000768 00000008H .CRT$XIAC               DATA
 0002:00000770 00000008H .CRT$XIZ                DATA
 0002:00000778 00000008H .CRT$XPA                DATA
 0002:00000780 00000008H .CRT$XPZ                DATA
 0002:00000788 00000008H .CRT$XTA                DATA
 0002:00000790 00000010H .CRT$XTZ                DATA
 0002:00000798 00000000H .gehcont$y              DATA
 0002:00000798 00000000H .gfids$y                DATA
 0002:000007a0 00040be0H .rdata                  DATA
 0002:00041380 00000000H .rdata$CastGuardVftablesA DATA
 0002:00041380 00000000H .rdata$CastGuardVftablesC DATA
 0002:00041380 00000080H .rdata$voltmd           DATA
 0002:00041400 000002c8H .rdata$zzzdbg           DATA
 0002:000416c8 00000008H .rtc$IAA                DATA
 0002:000416d0 00000008H .rtc$IZZ                DATA
 0002:000416d8 00000008H .rtc$TAA                DATA
 0002:000416e0 00000008H .rtc$TZZ                DATA
 0002:000416e8 0000359cH .xdata                  DATA
 0002:00044c84 00000000H .edata                  DATA
 0002:00044c84 00000140H .idata$2                DATA
 0002:00044dc4 00000014H .idata$3                DATA
 0002:00044dd8 00000708H .idata$4                DATA
 0002:000454e0 00000f7cH .idata$6                DATA
 0003:00000000 00008470H .data                   DATA
 0003:00008470 0000ec58H .bss                    DATA
 0004:00000000 000026d0H .pdata                  DATA

  Address         Publics by Value              Rva+Base               Lib:Object

 0000:00000000       __AbsoluteZero             0000000000000000     <absolute>
 0000:00000000       ___safe_se_handler_count   0000000000000000     <absolute>
 0000:00000000       ___safe_se_handler_table   0000000000000000     <absolute>
 0000:00000000       __arm64x_extra_rfe_table   0000000000000000     <absolute>
 0000:00000000       __arm64x_extra_rfe_table_size 0000000000000000     <absolute>
 0000:00000000       __arm64x_native_entrypoint 0000000000000000     <absolute>
 0000:00000000       __arm64x_redirection_metadata 0000000000000000     <absolute>
 0000:00000000       __arm64x_redirection_metadata_count 0000000000000000     <absolute>
 0000:00000000       __dynamic_value_reloc_table 0000000000000000     <absolute>
 0000:00000000       __enclave_config           0000000000000000     <absolute>
 0000:00000000       __guard_check_icall_a64n_fptr 0000000000000000     <absolute>
 0000:00000000       __guard_eh_cont_count      0000000000000000     <absolute>
 0000:00000000       __guard_eh_cont_table      0000000000000000     <absolute>
 0000:00000000       __guard_fids_count         0000000000000000     <absolute>
 0000:00000000       __guard_fids_table         0000000000000000     <absolute>
 0000:00000000       __guard_iat_count          0000000000000000     <absolute>
 0000:00000000       __guard_iat_table          0000000000000000     <absolute>
 0000:00000000       __guard_longjmp_count      0000000000000000     <absolute>
 0000:00000000       __guard_longjmp_table      0000000000000000     <absolute>
 0000:00000000       __hybrid_auxiliary_delayload_iat 0000000000000000     <absolute>
 0000:00000000       __hybrid_auxiliary_delayload_iat_copy 0000000000000000     <absolute>
 0000:00000000       __hybrid_auxiliary_iat     0000000000000000     <absolute>
 0000:00000000       __hybrid_auxiliary_iat_copy 0000000000000000     <absolute>
 0000:00000000       __hybrid_code_map          0000000000000000     <absolute>
 0000:00000000       __hybrid_code_map_count    0000000000000000     <absolute>
 0000:00000000       __x64_code_ranges_to_entry_points 0000000000000000     <absolute>
 0000:00000000       __x64_code_ranges_to_entry_points_count 0000000000000000     <absolute>
 0000:00000100       __guard_flags              0000000000000100     <absolute>
 0000:00000000       __ImageBase                0000000140000000     <linker-defined>
 0001:00000060       ?interpolate_vertex@@YA?AUVector3@@U1@0MMM@Z 0000000140001060 f   main.obj
 0001:000017d0       ?update_camera_custom@@YAXPEAUCamera3D@@@Z 00000001400027d0 f   main.obj
 0001:00001bd0       main                       0000000140002bd0 f   main.obj
 0001:000021e0       ?Vector3Add@@YA?AUVector3@@U1@0@Z 00000001400031e0 f i main.obj
 0001:00002250       ?Vector3Scale@@YA?AUVector3@@U1@M@Z 0000000140003250 f i main.obj
 0001:000022c0       BeginDrawing               00000001400032c0 f   raylib:rcore.obj
 0001:000023e0       BeginMode3D                00000001400033e0 f   raylib:rcore.obj
 0001:000027c0       CameraMoveForward          00000001400037c0 f   raylib:rcore.obj
 0001:00002920       CameraMoveRight            0000000140003920 f   raylib:rcore.obj
 0001:00002a80       CameraMoveToTarget         0000000140003a80 f   raylib:rcore.obj
 0001:00002b80       CameraMoveUp               0000000140003b80 f   raylib:rcore.obj
 0001:00002c40       CameraPitch                0000000140003c40 f   raylib:rcore.obj
 0001:00003010       CameraRoll                 0000000140004010 f   raylib:rcore.obj
 0001:00003090       CameraYaw                  0000000140004090 f   raylib:rcore.obj
 0001:00003200       ClearBackground            0000000140004200 f   raylib:rcore.obj
 0001:00003280       DisableCursor              0000000140004280 f   raylib:rcore.obj
 0001:00003300       EndDrawing                 0000000140004300 f   raylib:rcore.obj
 0001:000036f0       EndMode3D                  00000001400046f0 f   raylib:rcore.obj
 0001:000038a0       GetCameraForward           00000001400048a0 f   raylib:rcore.obj
 0001:00003980       GetCameraRight             0000000140004980 f   raylib:rcore.obj
 0001:00003a30       GetCameraUp                0000000140004a30 f   raylib:rcore.obj
 0001:00003b00       GetCurrentMonitor          0000000140004b00 f   raylib:rcore.obj
 0001:00003cc0       GetMouseDelta              0000000140004cc0 f   raylib:rcore.obj
 0001:00003cf0       GetMouseWheelMove          0000000140004cf0 f   raylib:rcore.obj
 0001:00003d20       GetWindowScaleDPI          0000000140004d20 f   raylib:rcore.obj
 0001:00003e50       InitPlatform               0000000140004e50 f   raylib:rcore.obj
 0001:000046d0       InitWindow                 00000001400056d0 f   raylib:rcore.obj
 0001:00004b10       IsFileExtension            0000000140005b10 f   raylib:rcore.obj
 0001:00004c00       IsGamepadAvailable         0000000140005c00 f   raylib:rcore.obj
 0001:00004c30       IsKeyDown                  0000000140005c30 f   raylib:rcore.obj
 0001:00004c60       IsKeyPressed               0000000140005c60 f   raylib:rcore.obj
 0001:00004ca0       IsMouseButtonDown          0000000140005ca0 f   raylib:rcore.obj
 0001:00004e00       MatrixInvert               0000000140005e00 f i raylib:rcore.obj
 0001:00005310       MatrixLookAt               0000000140006310 f i raylib:rcore.obj
 0001:000055d0       MatrixMultiply             00000001400065d0 f i raylib:rcore.obj
 0001:00005c20       PollInputEvents            0000000140006c20 f   raylib:rcore.obj
 0001:000062e0       ProcessGestureEvent        00000001400072e0 f   raylib:rcore.obj
 0001:00007400       SetConfigFlags             0000000140008400 f   raylib:rcore.obj
 0001:00007410       SetMousePosition           0000000140008410 f   raylib:rcore.obj
 0001:00007450       SetTargetFPS               0000000140008450 f   raylib:rcore.obj
 0001:00007810       TakeScreenshot             0000000140008810 f   raylib:rcore.obj
 0001:00007a10       Vector3RotateByAxisAngle   0000000140008a10 f i raylib:rcore.obj
 0001:00007d80       WindowShouldClose          0000000140008d80 f   raylib:rcore.obj
 0001:00007e40       __local_stdio_printf_options 0000000140008e40 f i raylib:rcore.obj
 0001:00007e50       __local_stdio_scanf_options 0000000140008e50 f i raylib:rcore.obj
 0001:00007e60       gladLoadGLUserPtr          0000000140008e60 f   raylib:rcore.obj
 0001:00014580       msf_gif_begin              0000000140015580 f   raylib:rcore.obj
 0001:000146a0       msf_gif_end                00000001400156a0 f   raylib:rcore.obj
 0001:000147d0       msf_gif_frame              00000001400157d0 f   raylib:rcore.obj
 0001:000149a0       rlActiveTextureSlot        00000001400159a0 f   raylib:rcore.obj
 0001:000149b0       rlBegin                    00000001400159b0 f   raylib:rcore.obj
 0001:00014ae0       rlCheckRenderBatchLimit    0000000140015ae0 f   raylib:rcore.obj
 0001:00014b80       rlColor4ub                 0000000140015b80 f   raylib:rcore.obj
 0001:00014ba0       rlDisableShader            0000000140015ba0 f   raylib:rcore.obj
 0001:00014bb0       rlDisableTexture           0000000140015bb0 f   raylib:rcore.obj
 0001:00014bc0       rlDisableTextureCubemap    0000000140015bc0 f   raylib:rcore.obj
 0001:00014bd0       rlDisableVertexArray       0000000140015bd0 f   raylib:rcore.obj
 0001:00014bf0       rlDisableVertexAttribute   0000000140015bf0 f   raylib:rcore.obj
 0001:00014c00       rlDisableVertexBuffer      0000000140015c00 f   raylib:rcore.obj
 0001:00014c10       rlDisableVertexBufferElement 0000000140015c10 f   raylib:rcore.obj
 0001:00014c20       rlDrawRenderBatch          0000000140015c20 f   raylib:rcore.obj
 0001:000154d0       rlDrawVertexArray          00000001400164d0 f   raylib:rcore.obj
 0001:000154f0       rlDrawVertexArrayElements  00000001400164f0 f   raylib:rcore.obj
 0001:00015510       rlEnableShader             0000000140016510 f   raylib:rcore.obj
 0001:00015520       rlEnableTexture            0000000140016520 f   raylib:rcore.obj
 0001:00015530       rlEnableTextureCubemap     0000000140016530 f   raylib:rcore.obj
 0001:00015540       rlEnableVertexArray        0000000140016540 f   raylib:rcore.obj
 0001:00015570       rlEnableVertexAttribute    0000000140016570 f   raylib:rcore.obj
 0001:00015580       rlEnableVertexBuffer       0000000140016580 f   raylib:rcore.obj
 0001:00015590       rlEnableVertexBufferElement 0000000140016590 f   raylib:rcore.obj
 0001:000155a0       rlEnd                      00000001400165a0 f   raylib:rcore.obj
 0001:000155c0       rlGetFramebufferHeight     00000001400165c0 f   raylib:rcore.obj
 0001:000155d0       rlGetFramebufferWidth      00000001400165d0 f   raylib:rcore.obj
 0001:000155e0       rlGetGlTextureFormats      00000001400165e0 f   raylib:rcore.obj
 0001:00015890       rlGetMatrixModelview       0000000140016890 f   raylib:rcore.obj
 0001:000158c0       rlGetMatrixProjection      00000001400168c0 f   raylib:rcore.obj
 0001:000158f0       rlGetMatrixProjectionStereo 00000001400168f0 f   raylib:rcore.obj
 0001:00015930       rlGetMatrixTransform       0000000140016930 f   raylib:rcore.obj
 0001:00015960       rlGetMatrixViewOffsetStereo 0000000140016960 f   raylib:rcore.obj
 0001:00015ac0       rlGetShaderIdDefault       0000000140016ac0 f   raylib:rcore.obj
 0001:00015ad0       rlGetShaderLocsDefault     0000000140016ad0 f   raylib:rcore.obj
 0001:00015ae0       rlGetTextureIdDefault      0000000140016ae0 f   raylib:rcore.obj
 0001:00015af0       rlIsStereoRenderEnabled    0000000140016af0 f   raylib:rcore.obj
 0001:00015b00       rlLoadExtensions           0000000140016b00 f   raylib:rcore.obj
 0001:00015d70       rlLoadIdentity             0000000140016d70 f   raylib:rcore.obj
 0001:00015e30       rlLoadRenderBatch          0000000140016e30 f   raylib:rcore.obj
 0001:000166b0       rlLoadShaderProgram        00000001400176b0 f   raylib:rcore.obj
 0001:00016850       rlLoadTexture              0000000140017850 f   raylib:rcore.obj
 0001:00016d80       rlLoadVertexArray          0000000140017d80 f   raylib:rcore.obj
 0001:00016dc0       rlLoadVertexBuffer         0000000140017dc0 f   raylib:rcore.obj
 0001:00016e40       rlLoadVertexBufferElement  0000000140017e40 f   raylib:rcore.obj
 0001:000172d0       rlMultMatrixf              00000001400182d0 f   raylib:rcore.obj
 0001:00017400       rlNormal3f                 0000000140018400 f   raylib:rcore.obj
 0001:00017420       rlOrtho                    0000000140018420 f   raylib:rcore.obj
 0001:000175f0       rlPopMatrix                00000001400185f0 f   raylib:rcore.obj
 0001:00017670       rlPushMatrix               0000000140018670 f   raylib:rcore.obj
 0001:00017700       rlReadScreenPixels         0000000140018700 f   raylib:rcore.obj
 0001:00017820       rlSetMatrixModelview       0000000140018820 f   raylib:rcore.obj
 0001:00017850       rlSetMatrixProjection      0000000140018850 f   raylib:rcore.obj
 0001:00017880       rlSetTexture               0000000140018880 f   raylib:rcore.obj
 0001:000179d0       rlSetUniform               00000001400189d0 f   raylib:rcore.obj
 0001:00017a90       rlSetUniformMatrix         0000000140018a90 f   raylib:rcore.obj
 0001:00017b80       rlSetVertexAttribute       0000000140018b80 f   raylib:rcore.obj
 0001:00017b90       rlSetVertexAttributeDefault 0000000140018b90 f   raylib:rcore.obj
 0001:00017bf0       rlTexCoord2f               0000000140018bf0 f   raylib:rcore.obj
 0001:00017c10       rlTranslatef               0000000140018c10 f   raylib:rcore.obj
 0001:00017d00       rlVertex2f                 0000000140018d00 f   raylib:rcore.obj
 0001:00017d20       rlVertex3f                 0000000140018d20 f   raylib:rcore.obj
 0001:00018060       rlViewport                 0000000140019060 f   raylib:rcore.obj
 0001:00018070       rlglInit                   0000000140019070 f   raylib:rcore.obj
 0001:00018780       sprintf                    0000000140019780 f i raylib:rcore.obj
 0001:000187e0       sscanf                     00000001400197e0 f i raylib:rcore.obj
 0001:00018840       sscanf_s                   0000000140019840 f i raylib:rcore.obj
 0001:0002c7d0       DrawTexturePro             000000014002d7d0 f   raylib:rtextures.obj
 0001:0002cbd0       ExportImage                000000014002dbd0 f   raylib:rtextures.obj
 0001:0002ce90       GetColor                   000000014002de90 f   raylib:rtextures.obj
 0001:0002cec0       GetPixelDataSize           000000014002dec0 f   raylib:rtextures.obj
 0001:0002cfe0       ImageFromImage             000000014002dfe0 f   raylib:rtextures.obj
 0001:0002d0e0       LoadImageColors            000000014002e0e0 f   raylib:rtextures.obj
 0001:0002d990       LoadTextureFromImage       000000014002e990 f   raylib:rtextures.obj
 0001:0002da20       UnloadImage                000000014002ea20 f   raylib:rtextures.obj
 0001:0002da30       qoi_encode                 000000014002ea30 f   raylib:rtextures.obj
 0001:0002de20       stbi_write_png_to_mem      000000014002ee20 f   raylib:rtextures.obj
 0001:0002e4b0       stbi_zlib_compress         000000014002f4b0 f   raylib:rtextures.obj
 0001:0002fa10       DrawCubeWires              0000000140030a10 f   raylib:rmodels.obj
 0001:0002fca0       DrawMesh                   0000000140030ca0 f   raylib:rmodels.obj
 0001:00030610       DrawModel                  0000000140031610 f   raylib:rmodels.obj
 0001:000306d0       DrawModelEx                00000001400316d0 f   raylib:rmodels.obj
 0001:00030cb0       LoadModelFromMesh          0000000140031cb0 f   raylib:rmodels.obj
 0001:00030e40       UploadMesh                 0000000140031e40 f   raylib:rmodels.obj
 0001:000311d0       SaveFileData               00000001400321d0 f   raylib:utils.obj
 0001:000312d0       TraceLog                   00000001400322d0 f   raylib:utils.obj
 0001:000314b0       DrawCircle                 00000001400324b0 f   raylib:rshapes.obj
 0001:000314f0       DrawCircleSector           00000001400324f0 f   raylib:rshapes.obj
 0001:00031a60       SetShapesTexture           0000000140032a60 f   raylib:rshapes.obj
 0001:00031ad0       DrawText                   0000000140032ad0 f   raylib:rtext.obj
 0001:00031b80       DrawTextCodepoint          0000000140032b80 f   raylib:rtext.obj
 0001:00031d50       DrawTextEx                 0000000140032d50 f   raylib:rtext.obj
 0001:00031fe0       GetCodepointNext           0000000140032fe0 f   raylib:rtext.obj
 0001:000320f0       GetFontDefault             00000001400330f0 f   raylib:rtext.obj
 0001:00032120       LoadFontDefault            0000000140033120 f   raylib:rtext.obj
 0001:00032730       TextFormat                 0000000140033730 f   raylib:rtext.obj
 0001:00032800       TextSplit                  0000000140033800 f   raylib:rtext.obj
 0001:000328f0       TextToLower                00000001400338f0 f   raylib:rtext.obj
 0001:00032960       _glfwConnectWin32          0000000140033960 f   raylib:rglfw.obj
 0001:00032d70       _glfwAllocJoystick         0000000140033d70 f   raylib:rglfw.obj
 0001:00032f70       _glfwCenterCursorInContentArea 0000000140033f70 f   raylib:rglfw.obj
 0001:00032fc0       _glfwChooseFBConfig        0000000140033fc0 f   raylib:rglfw.obj
 0001:000331b0       _glfwChooseVideoMode       00000001400341b0 f   raylib:rglfw.obj
 0001:000333c0       _glfwCreateContextEGL      00000001400343c0 f   raylib:rglfw.obj
 0001:00033900       _glfwCreateContextOSMesa   0000000140034900 f   raylib:rglfw.obj
 0001:00033b40       _glfwCreateContextWGL      0000000140034b40 f   raylib:rglfw.obj
 0001:00033fc0       _glfwCreateCursorWin32     0000000140034fc0 f   raylib:rglfw.obj
 0001:00034000       _glfwCreateStandardCursorWin32 0000000140035000 f   raylib:rglfw.obj
 0001:00034100       _glfwCreateUTF8FromWideStringWin32 0000000140035100 f   raylib:rglfw.obj
 0001:00034210       _glfwCreateWideStringFromUTF8Win32 0000000140035210 f   raylib:rglfw.obj
 0001:00034340       _glfwCreateWindowSurfaceWin32 0000000140035340 f   raylib:rglfw.obj
 0001:00034410       _glfwCreateWindowWin32     0000000140035410 f   raylib:rglfw.obj
 0001:000347a0       _glfwDestroyCursorWin32    00000001400357a0 f   raylib:rglfw.obj
 0001:000347c0       _glfwDestroyWindowWin32    00000001400357c0 f   raylib:rglfw.obj
 0001:00034880       _glfwDetectJoystickConnectionWin32 0000000140035880 f   raylib:rglfw.obj
 0001:00034ad0       _glfwFocusWindowWin32      0000000140035ad0 f   raylib:rglfw.obj
 0001:00034b10       _glfwFramebufferTransparentWin32 0000000140035b10 f   raylib:rglfw.obj
 0001:00034b90       _glfwFreeGammaArrays       0000000140035b90 f   raylib:rglfw.obj
 0001:00034bf0       _glfwFreeMonitorWin32      0000000140035bf0 f   raylib:rglfw.obj
 0001:00034c00       _glfwGetClipboardStringWin32 0000000140035c00 f   raylib:rglfw.obj
 0001:00034d00       _glfwGetCursorPosWin32     0000000140035d00 f   raylib:rglfw.obj
 0001:00034d70       _glfwGetEGLNativeDisplayWin32 0000000140035d70 f   raylib:rglfw.obj
 0001:00034d80       _glfwGetEGLNativeWindowWin32 0000000140035d80 f   raylib:rglfw.obj
 0001:00034d90       _glfwGetEGLPlatformWin32   0000000140035d90 f   raylib:rglfw.obj
 0001:00034e80       _glfwGetFramebufferSizeWin32 0000000140035e80 f   raylib:rglfw.obj
 0001:00034e80       _glfwGetWindowSizeWin32    0000000140035e80 f   raylib:rglfw.obj
 0001:00034ee0       _glfwGetGammaRampWin32     0000000140035ee0 f   raylib:rglfw.obj
 0001:00035140       _glfwGetKeyScancodeWin32   0000000140036140 f   raylib:rglfw.obj
 0001:00035150       _glfwGetMappingNameWin32   0000000140036150 f   raylib:rglfw.obj
 0001:00035160       _glfwGetMonitorContentScaleWin32 0000000140036160 f   raylib:rglfw.obj
 0001:00035260       _glfwGetMonitorPosWin32    0000000140036260 f   raylib:rglfw.obj
 0001:00035300       _glfwGetMonitorWorkareaWin32 0000000140036300 f   raylib:rglfw.obj
 0001:000353a0       _glfwGetPhysicalDevicePresentationSupportWin32 00000001400363a0 f   raylib:rglfw.obj
 0001:00035400       _glfwGetRequiredInstanceExtensionsWin32 0000000140036400 f   raylib:rglfw.obj
 0001:00035430       _glfwGetScancodeNameWin32  0000000140036430 f   raylib:rglfw.obj
 0001:00035480       _glfwGetVideoModeWin32     0000000140036480 f   raylib:rglfw.obj
 0001:00035570       _glfwGetVideoModesWin32    0000000140036570 f   raylib:rglfw.obj
 0001:000358f0       _glfwGetVulkanResultString 00000001400368f0 f   raylib:rglfw.obj
 0001:00035a60       _glfwGetWindowContentScaleWin32 0000000140036a60 f   raylib:rglfw.obj
 0001:00035b70       _glfwGetWindowFrameSizeWin32 0000000140036b70 f   raylib:rglfw.obj
 0001:00035d30       _glfwGetWindowOpacityWin32 0000000140036d30 f   raylib:rglfw.obj
 0001:00035da0       _glfwGetWindowPosWin32     0000000140036da0 f   raylib:rglfw.obj
 0001:00035df0       _glfwHideWindowWin32       0000000140036df0 f   raylib:rglfw.obj
 0001:00035e00       _glfwIconifyWindowWin32    0000000140036e00 f   raylib:rglfw.obj
 0001:00035e20       _glfwInitEGL               0000000140036e20 f   raylib:rglfw.obj
 0001:00036890       _glfwInitJoysticksWin32    0000000140037890 f   raylib:rglfw.obj
 0001:00036900       _glfwInitWGL               0000000140037900 f   raylib:rglfw.obj
 0001:00036cb0       _glfwInitWin32             0000000140037cb0 f   raylib:rglfw.obj
 0001:00036f30       _glfwInputChar             0000000140037f30 f   raylib:rglfw.obj
 0001:00036fa0       _glfwInputCursorPos        0000000140037fa0 f   raylib:rglfw.obj
 0001:00036fe0       _glfwInputError            0000000140037fe0 f   raylib:rglfw.obj
 0001:000374a0       _glfwInputErrorWin32       00000001400384a0 f   raylib:rglfw.obj
 0001:000375b0       _glfwInputKey              00000001400385b0 f   raylib:rglfw.obj
 0001:00037630       _glfwInputMonitor          0000000140038630 f   raylib:rglfw.obj
 0001:000378c0       _glfwInputMouseClick       00000001400388c0 f   raylib:rglfw.obj
 0001:00037910       _glfwInputWindowFocus      0000000140038910 f   raylib:rglfw.obj
 0001:00037b60       _glfwIsValidContextConfig  0000000140038b60 f   raylib:rglfw.obj
 0001:00037da0       _glfwIsWindows10BuildOrGreaterWin32 0000000140038da0 f   raylib:rglfw.obj
 0001:00037e50       _glfwIsWindowsVersionOrGreaterWin32 0000000140038e50 f   raylib:rglfw.obj
 0001:00037f30       _glfwMaximizeWindowWin32   0000000140038f30 f   raylib:rglfw.obj
 0001:00038160       _glfwPollEventsWin32       0000000140039160 f   raylib:rglfw.obj
 0001:00038540       _glfwPollJoystickWin32     0000000140039540 f   raylib:rglfw.obj
 0001:00038a00       _glfwPollMonitorsWin32     0000000140039a00 f   raylib:rglfw.obj
 0001:00038ed0       _glfwPostEmptyEventWin32   0000000140039ed0 f   raylib:rglfw.obj
 0001:00038ef0       _glfwRawMouseMotionSupportedWin32 0000000140039ef0 f   raylib:rglfw.obj
 0001:00038f00       _glfwRefreshContextAttribs 0000000140039f00 f   raylib:rglfw.obj
 0001:00039500       _glfwRequestWindowAttentionWin32 000000014003a500 f   raylib:rglfw.obj
 0001:00039520       _glfwRestoreWindowWin32    000000014003a520 f   raylib:rglfw.obj
 0001:00039540       _glfwSetClipboardStringWin32 000000014003a540 f   raylib:rglfw.obj
 0001:00039660       _glfwSetCursorModeWin32    000000014003a660 f   raylib:rglfw.obj
 0001:00039790       _glfwSetCursorPosWin32     000000014003a790 f   raylib:rglfw.obj
 0001:000397e0       _glfwSetCursorWin32        000000014003a7e0 f   raylib:rglfw.obj
 0001:00039810       _glfwSetGammaRampWin32     000000014003a810 f   raylib:rglfw.obj
 0001:000399f0       _glfwSetRawMouseMotionWin32 000000014003a9f0 f   raylib:rglfw.obj
 0001:00039a80       _glfwSetVideoModeWin32     000000014003aa80 f   raylib:rglfw.obj
 0001:00039c70       _glfwSetWindowAspectRatioWin32 000000014003ac70 f   raylib:rglfw.obj
 0001:00039d00       _glfwSetWindowDecoratedWin32 000000014003ad00 f   raylib:rglfw.obj
 0001:00039d00       _glfwSetWindowResizableWin32 000000014003ad00 f   raylib:rglfw.obj
 0001:00039d10       _glfwSetWindowFloatingWin32 000000014003ad10 f   raylib:rglfw.obj
 0001:00039d50       _glfwSetWindowIconWin32    000000014003ad50 f   raylib:rglfw.obj
 0001:00039eb0       _glfwSetWindowMonitorWin32 000000014003aeb0 f   raylib:rglfw.obj
 0001:0003a2b0       _glfwSetWindowMousePassthroughWin32 000000014003b2b0 f   raylib:rglfw.obj
 0001:0003a380       _glfwSetWindowOpacityWin32 000000014003b380 f   raylib:rglfw.obj
 0001:0003a420       _glfwSetWindowPosWin32     000000014003b420 f   raylib:rglfw.obj
 0001:0003a550       _glfwSetWindowSizeLimitsWin32 000000014003b550 f   raylib:rglfw.obj
 0001:0003a5e0       _glfwSetWindowSizeWin32    000000014003b5e0 f   raylib:rglfw.obj
 0001:0003a760       _glfwSetWindowTitleWin32   000000014003b760 f   raylib:rglfw.obj
 0001:0003a7b0       _glfwShowWindowWin32       000000014003b7b0 f   raylib:rglfw.obj
 0001:0003a7d0       _glfwStringInExtensionString 000000014003b7d0 f   raylib:rglfw.obj
 0001:0003a840       _glfwTerminateEGL          000000014003b840 f   raylib:rglfw.obj
 0001:0003a890       _glfwTerminateJoysticksWin32 000000014003b890 f   raylib:rglfw.obj
 0001:0003a9d0       _glfwTerminateWin32        000000014003b9d0 f   raylib:rglfw.obj
 0001:0003ab40       _glfwUpdateGamepadGUIDWin32 000000014003bb40 f   raylib:rglfw.obj
 0001:0003abb0       _glfwUpdateKeyNamesWin32   000000014003bbb0 f   raylib:rglfw.obj
 0001:0003adc0       _glfwWaitEventsTimeoutWin32 000000014003bdc0 f   raylib:rglfw.obj
 0001:0003adf0       _glfwWaitEventsWin32       000000014003bdf0 f   raylib:rglfw.obj
 0001:0003ae10       _glfwWindowFocusedWin32    000000014003be10 f   raylib:rglfw.obj
 0001:0003ae40       _glfwWindowHoveredWin32    000000014003be40 f   raylib:rglfw.obj
 0001:0003ae50       _glfwWindowIconifiedWin32  000000014003be50 f   raylib:rglfw.obj
 0001:0003ae60       _glfwWindowMaximizedWin32  000000014003be60 f   raylib:rglfw.obj
 0001:0003ae70       _glfwWindowVisibleWin32    000000014003be70 f   raylib:rglfw.obj
 0001:0003ae80       _glfw_calloc               000000014003be80 f   raylib:rglfw.obj
 0001:0003dcf0       glfwCreateWindow           000000014003ecf0 f   raylib:rglfw.obj
 0001:0003dfc0       glfwDefaultWindowHints     000000014003efc0 f   raylib:rglfw.obj
 0001:0003e0e0       glfwDestroyCursor          000000014003f0e0 f   raylib:rglfw.obj
 0001:0003e1b0       glfwDestroyWindow          000000014003f1b0 f   raylib:rglfw.obj
 0001:0003e2b0       glfwExtensionSupported     000000014003f2b0 f   raylib:rglfw.obj
 0001:0003e420       glfwGetError               000000014003f420 f   raylib:rglfw.obj
 0001:0003e480       glfwGetFramebufferSize     000000014003f480 f   raylib:rglfw.obj
 0001:0003e4b0       glfwGetGamepadState        000000014003f4b0 f   raylib:rglfw.obj
 0001:0003ec60       glfwGetJoystickName        000000014003fc60 f   raylib:rglfw.obj
 0001:0003ed10       glfwGetMonitorContentScale 000000014003fd10 f   raylib:rglfw.obj
 0001:0003ed40       glfwGetMonitorPos          000000014003fd40 f   raylib:rglfw.obj
 0001:0003ed70       glfwGetMonitorWorkarea     000000014003fd70 f   raylib:rglfw.obj
 0001:0003edc0       glfwGetMonitors            000000014003fdc0 f   raylib:rglfw.obj
 0001:0003ee00       glfwGetPrimaryMonitor      000000014003fe00 f   raylib:rglfw.obj
 0001:0003ee40       glfwGetProcAddress         000000014003fe40 f   raylib:rglfw.obj
 0001:0003eea0       glfwGetTime                000000014003fea0 f   raylib:rglfw.obj
 0001:0003ef40       glfwGetVideoMode           000000014003ff40 f   raylib:rglfw.obj
 0001:0003ef90       glfwGetVideoModes          000000014003ff90 f   raylib:rglfw.obj
 0001:0003eff0       glfwGetWindowMonitor       000000014003fff0 f   raylib:rglfw.obj
 0001:0003f020       glfwGetWindowPos           0000000140040020 f   raylib:rglfw.obj
 0001:0003f050       glfwIconifyWindow          0000000140040050 f   raylib:rglfw.obj
 0001:0003f070       glfwInit                   0000000140040070 f   raylib:rglfw.obj
 0001:0003f470       glfwJoystickPresent        0000000140040470 f   raylib:rglfw.obj
 0001:0003f510       glfwMakeContextCurrent     0000000140040510 f   raylib:rglfw.obj
 0001:0003f5b0       glfwPollEvents             00000001400405b0 f   raylib:rglfw.obj
 0001:0003f5d0       glfwSetCharCallback        00000001400405d0 f   raylib:rglfw.obj
 0001:0003f610       glfwSetCursorEnterCallback 0000000140040610 f   raylib:rglfw.obj
 0001:0003f650       glfwSetCursorPos           0000000140040650 f   raylib:rglfw.obj
 0001:0003f750       glfwSetCursorPosCallback   0000000140040750 f   raylib:rglfw.obj
 0001:0003f790       glfwSetDropCallback        0000000140040790 f   raylib:rglfw.obj
 0001:0003f7d0       glfwSetErrorCallback       00000001400407d0 f   raylib:rglfw.obj
 0001:0003f7e0       glfwSetInputMode           00000001400407e0 f   raylib:rglfw.obj
 0001:0003fa20       glfwSetJoystickCallback    0000000140040a20 f   raylib:rglfw.obj
 0001:0003fa90       glfwSetKeyCallback         0000000140040a90 f   raylib:rglfw.obj
 0001:0003fad0       glfwSetMouseButtonCallback 0000000140040ad0 f   raylib:rglfw.obj
 0001:0003fb10       glfwSetScrollCallback      0000000140040b10 f   raylib:rglfw.obj
 0001:0003fb50       glfwSetWindowFocusCallback 0000000140040b50 f   raylib:rglfw.obj
 0001:0003fb90       glfwSetWindowIconifyCallback 0000000140040b90 f   raylib:rglfw.obj
 0001:0003fbd0       glfwSetWindowMaximizeCallback 0000000140040bd0 f   raylib:rglfw.obj
 0001:0003fc10       glfwSetWindowPos           0000000140040c10 f   raylib:rglfw.obj
 0001:0003fc40       glfwSetWindowShouldClose   0000000140040c40 f   raylib:rglfw.obj
 0001:0003fc60       glfwSetWindowSizeCallback  0000000140040c60 f   raylib:rglfw.obj
 0001:0003fca0       glfwSwapBuffers            0000000140040ca0 f   raylib:rglfw.obj
 0001:0003fce0       glfwSwapInterval           0000000140040ce0 f   raylib:rglfw.obj
 0001:0003fd40       glfwTerminate              0000000140040d40 f   raylib:rglfw.obj
 0001:0003fd50       glfwWaitEvents             0000000140040d50 f   raylib:rglfw.obj
 0001:0003fd70       glfwWindowHint             0000000140040d70 f   raylib:rglfw.obj
 0001:000400c0       glfwWindowShouldClose      00000001400410c0 f   raylib:rglfw.obj
 0001:00042c0c       __GSHandlerCheck           0000000140043c0c f   msvcrt:gshandler.obj
 0001:00042c2c       __GSHandlerCheckCommon     0000000140043c2c f   msvcrt:gshandler.obj
 0001:00042ca0       __security_check_cookie    0000000140043ca0 f   msvcrt:amdsecgs.obj
 0001:00042f20       mainCRTStartup             0000000140043f20 f   msvcrt:exe_main.obj
 0001:00042f34       __raise_securityfailure    0000000140043f34 f   msvcrt:gs_report.obj
 0001:00042f68       __report_gsfailure         0000000140043f68 f   msvcrt:gs_report.obj
 0001:0004303c       __report_rangecheckfailure 000000014004403c f   msvcrt:gs_report.obj
 0001:00043050       __report_securityfailure   0000000140044050 f   msvcrt:gs_report.obj
 0001:000431e0       __chkstk                   00000001400441e0 f   msvcrt:chkstk.obj
 0001:000431e0       _alloca_probe              00000001400441e0 f   msvcrt:chkstk.obj
 0001:00043230       __isa_available_init       0000000140044230 f   msvcrt:cpu_disp.obj
 0001:000433dc       __scrt_acquire_startup_lock 00000001400443dc f   msvcrt:utility.obj
 0001:00043418       __scrt_initialize_crt      0000000140044418 f   msvcrt:utility.obj
 0001:00043464       __scrt_initialize_onexit_tables 0000000140044464 f   msvcrt:utility.obj
 0001:000434f0       __scrt_is_nonwritable_in_current_image 00000001400444f0 f   msvcrt:utility.obj
 0001:00043588       __scrt_release_startup_lock 0000000140044588 f   msvcrt:utility.obj
 0001:000435ac       __scrt_uninitialize_crt    00000001400445ac f   msvcrt:utility.obj
 0001:000435d8       _onexit                    00000001400445d8 f   msvcrt:utility.obj
 0001:00043614       atexit                     0000000140044614 f   msvcrt:utility.obj
 0001:0004362c       __security_init_cookie     000000014004462c f   msvcrt:gs_support.obj
 0001:000436d8       __scrt_exe_initialize_mta  00000001400446d8 f   msvcrt:utility_desktop.obj
 0001:000436d8       __scrt_initialize_winrt    00000001400446d8 f   msvcrt:utility_desktop.obj
 0001:000436d8       __scrt_stub_for_initialize_mta 00000001400446d8 f   msvcrt:utility_desktop.obj
 0001:000436d8       _get_startup_commit_mode   00000001400446d8 f   msvcrt:commit_mode.obj
 0001:000436d8       _get_startup_new_mode      00000001400446d8 f   msvcrt:new_mode.obj
 0001:000436d8       _get_startup_thread_locale_mode 00000001400446d8 f   msvcrt:thread_locale.obj
 0001:000436d8       _matherr                   00000001400446d8 f   msvcrt:matherr.obj
 0001:000436dc       _get_startup_argv_mode     00000001400446dc f   msvcrt:argv_mode.obj
 0001:000436e4       _get_startup_file_mode     00000001400446e4 f   msvcrt:file_mode.obj
 0001:000436ec       ?__scrt_initialize_type_info@@YAXXZ 00000001400446ec f   msvcrt:tncleanup.obj
 0001:000436fc       __acrt_initialize          00000001400446fc f   msvcrt:ucrt_stubs.obj
 0001:000436fc       __acrt_uninitialize        00000001400446fc f   msvcrt:ucrt_stubs.obj
 0001:000436fc       __scrt_stub_for_acrt_initialize 00000001400446fc f   msvcrt:ucrt_stubs.obj
 0001:000436fc       __scrt_stub_for_acrt_uninitialize 00000001400446fc f   msvcrt:ucrt_stubs.obj
 0001:000436fc       __vcrt_initialize          00000001400446fc f   msvcrt:ucrt_stubs.obj
 0001:000436fc       __vcrt_uninitialize        00000001400446fc f   msvcrt:ucrt_stubs.obj
 0001:000436fc       _should_initialize_environment 00000001400446fc f   msvcrt:env_mode.obj
 0001:00043700       _guard_check_icall_nop     0000000140044700 f   msvcrt:guard_support.obj
 0001:00043700       _initialize_denormal_control 0000000140044700 f   msvcrt:denormal_control.obj
 0001:00043700       _initialize_invalid_parameter_handler 0000000140044700 f   msvcrt:invalid_parameter_handler.obj
 0001:00043704       __scrt_initialize_default_local_stdio_options 0000000140044704 f   msvcrt:default_local_stdio_options.obj
 0001:00043720       __scrt_is_user_matherr_present 0000000140044720 f   msvcrt:matherr_detection.obj
 0001:0004372c       __scrt_get_dyn_tls_init_callback 000000014004472c f   msvcrt:dyn_tls_init.obj
 0001:00043734       __scrt_get_dyn_tls_dtor_callback 0000000140044734 f   msvcrt:dyn_tls_dtor.obj
 0001:0004373c       __crt_debugger_hook        000000014004473c f   msvcrt:utility_desktop.obj
 0001:00043744       __scrt_fastfail            0000000140044744 f   msvcrt:utility_desktop.obj
 0001:00043890       __scrt_initialize_mta      0000000140044890 f   msvcrt:utility_desktop.obj
 0001:00043898       __scrt_is_managed_app      0000000140044898 f   msvcrt:utility_desktop.obj
 0001:000438ec       __scrt_set_unhandled_exception_filter 00000001400448ec f   msvcrt:utility_desktop.obj
 0001:000438fc       __scrt_unhandled_exception_filter 00000001400448fc f   msvcrt:utility_desktop.obj
 0001:00043958       _RTC_Initialize            0000000140044958 f   msvcrt:initsect.obj
 0001:00043994       _RTC_Terminate             0000000140044994 f   msvcrt:initsect.obj
 0001:000439d0       __scrt_is_ucrt_dll_in_use  00000001400449d0 f   msvcrt:ucrt_detection.obj
 0001:000439e0       timeBeginPeriod            00000001400449e0 f   winmm:WINMM.dll
 0001:000439e6       Sleep                      00000001400449e6 f   kernel32:KERNEL32.dll
 0001:000439ec       strchr                     00000001400449ec f   vcruntime:VCRUNTIME140.dll
 0001:000439f2       strrchr                    00000001400449f2 f   vcruntime:VCRUNTIME140.dll
 0001:000439f8       strstr                     00000001400449f8 f   vcruntime:VCRUNTIME140.dll
 0001:000439fe       memcpy                     00000001400449fe f   vcruntime:VCRUNTIME140.dll
 0001:00043a04       memset                     0000000140044a04 f   vcruntime:VCRUNTIME140.dll
 0001:00043a0a       memmove                    0000000140044a0a f   vcruntime:VCRUNTIME140.dll
 0001:00043a10       __C_specific_handler       0000000140044a10 f   vcruntime:VCRUNTIME140.dll
 0001:00043a16       __current_exception        0000000140044a16 f   vcruntime:VCRUNTIME140.dll
 0001:00043a1c       __current_exception_context 0000000140044a1c f   vcruntime:VCRUNTIME140.dll
 0001:00043a22       free                       0000000140044a22 f   ucrt:api-ms-win-crt-heap-l1-1-0.dll
 0001:00043a28       malloc                     0000000140044a28 f   ucrt:api-ms-win-crt-heap-l1-1-0.dll
 0001:00043a2e       srand                      0000000140044a2e f   ucrt:api-ms-win-crt-utility-l1-1-0.dll
 0001:00043a34       _time64                    0000000140044a34 f   ucrt:api-ms-win-crt-time-l1-1-0.dll
 0001:00043a3a       sqrtf                      0000000140044a3a f   ucrt:api-ms-win-crt-math-l1-1-0.dll
 0001:00043a40       acosf                      0000000140044a40 f   ucrt:api-ms-win-crt-math-l1-1-0.dll
 0001:00043a46       atan2f                     0000000140044a46 f   ucrt:api-ms-win-crt-math-l1-1-0.dll
 0001:00043a4c       cosf                       0000000140044a4c f   ucrt:api-ms-win-crt-math-l1-1-0.dll
 0001:00043a52       sinf                       0000000140044a52 f   ucrt:api-ms-win-crt-math-l1-1-0.dll
 0001:00043a58       sqrt                       0000000140044a58 f   ucrt:api-ms-win-crt-math-l1-1-0.dll
 0001:00043a5e       strcmp                     0000000140044a5e f   ucrt:api-ms-win-crt-string-l1-1-0.dll
 0001:00043a64       tan                        0000000140044a64 f   ucrt:api-ms-win-crt-math-l1-1-0.dll
 0001:00043a6a       ceilf                      0000000140044a6a f   ucrt:api-ms-win-crt-math-l1-1-0.dll
 0001:00043a70       powf                       0000000140044a70 f   ucrt:api-ms-win-crt-math-l1-1-0.dll
 0001:00043a76       exit                       0000000140044a76 f   ucrt:api-ms-win-crt-runtime-l1-1-0.dll
 0001:00043a7c       _seh_filter_exe            0000000140044a7c f   ucrt:api-ms-win-crt-runtime-l1-1-0.dll
 0001:00043a82       _set_app_type              0000000140044a82 f   ucrt:api-ms-win-crt-runtime-l1-1-0.dll
 0001:00043a88       __setusermatherr           0000000140044a88 f   ucrt:api-ms-win-crt-math-l1-1-0.dll
 0001:00043a8e       _configure_narrow_argv     0000000140044a8e f   ucrt:api-ms-win-crt-runtime-l1-1-0.dll
 0001:00043a94       _initialize_narrow_environment 0000000140044a94 f   ucrt:api-ms-win-crt-runtime-l1-1-0.dll
 0001:00043a9a       _get_initial_narrow_environment 0000000140044a9a f   ucrt:api-ms-win-crt-runtime-l1-1-0.dll
 0001:00043aa0       _initterm                  0000000140044aa0 f   ucrt:api-ms-win-crt-runtime-l1-1-0.dll
 0001:00043aa6       _initterm_e                0000000140044aa6 f   ucrt:api-ms-win-crt-runtime-l1-1-0.dll
 0001:00043aac       _exit                      0000000140044aac f   ucrt:api-ms-win-crt-runtime-l1-1-0.dll
 0001:00043ab2       _set_fmode                 0000000140044ab2 f   ucrt:api-ms-win-crt-stdio-l1-1-0.dll
 0001:00043ab8       __p___argc                 0000000140044ab8 f   ucrt:api-ms-win-crt-runtime-l1-1-0.dll
 0001:00043abe       __p___argv                 0000000140044abe f   ucrt:api-ms-win-crt-runtime-l1-1-0.dll
 0001:00043ac4       _cexit                     0000000140044ac4 f   ucrt:api-ms-win-crt-runtime-l1-1-0.dll
 0001:00043aca       _c_exit                    0000000140044aca f   ucrt:api-ms-win-crt-runtime-l1-1-0.dll
 0001:00043ad0       _register_thread_local_exe_atexit_callback 0000000140044ad0 f   ucrt:api-ms-win-crt-runtime-l1-1-0.dll
 0001:00043ad6       _configthreadlocale        0000000140044ad6 f   ucrt:api-ms-win-crt-locale-l1-1-0.dll
 0001:00043adc       _set_new_mode              0000000140044adc f   ucrt:api-ms-win-crt-heap-l1-1-0.dll
 0001:00043ae2       __p__commode               0000000140044ae2 f   ucrt:api-ms-win-crt-stdio-l1-1-0.dll
 0001:00043ae8       _initialize_onexit_table   0000000140044ae8 f   ucrt:api-ms-win-crt-runtime-l1-1-0.dll
 0001:00043aee       _register_onexit_function  0000000140044aee f   ucrt:api-ms-win-crt-runtime-l1-1-0.dll
 0001:00043af4       _crt_atexit                0000000140044af4 f   ucrt:api-ms-win-crt-runtime-l1-1-0.dll
 0001:00043afa       terminate                  0000000140044afa f   ucrt:api-ms-win-crt-runtime-l1-1-0.dll
 0001:00043b10       _guard_dispatch_icall_nop  0000000140044b10 f   msvcrt:guard_dispatch.obj
 0001:00043b30       _guard_xfg_dispatch_icall_nop 0000000140044b30 f   msvcrt:guard_xfg_dispatch.obj
 0002:00000000       __imp_ChoosePixelFormat    0000000140045000     gdi32:GDI32.dll
 0002:00000008       __imp_CreateBitmap         0000000140045008     gdi32:GDI32.dll
 0002:00000010       __imp_CreateDCW            0000000140045010     gdi32:GDI32.dll
 0002:00000018       __imp_CreateRectRgn        0000000140045018     gdi32:GDI32.dll
 0002:00000020       __imp_DeleteDC             0000000140045020     gdi32:GDI32.dll
 0002:00000028       __imp_DeleteObject         0000000140045028     gdi32:GDI32.dll
 0002:00000030       __imp_DescribePixelFormat  0000000140045030     gdi32:GDI32.dll
 0002:00000038       __imp_GetDeviceCaps        0000000140045038     gdi32:GDI32.dll
 0002:00000040       __imp_SetPixelFormat       0000000140045040     gdi32:GDI32.dll
 0002:00000048       __imp_CreateDIBSection     0000000140045048     gdi32:GDI32.dll
 0002:00000050       __imp_GetDeviceGammaRamp   0000000140045050     gdi32:GDI32.dll
 0002:00000058       __imp_SetDeviceGammaRamp   0000000140045058     gdi32:GDI32.dll
 0002:00000060       __imp_SwapBuffers          0000000140045060     gdi32:GDI32.dll
 0002:00000068       \177GDI32_NULL_THUNK_DATA  0000000140045068     gdi32:GDI32.dll
 0002:00000070       __imp_IsDebuggerPresent    0000000140045070     kernel32:KERNEL32.dll
 0002:00000078       __imp_InitializeSListHead  0000000140045078     kernel32:KERNEL32.dll
 0002:00000080       __imp_GetSystemTimeAsFileTime 0000000140045080     kernel32:KERNEL32.dll
 0002:00000088       __imp_GetCurrentThreadId   0000000140045088     kernel32:KERNEL32.dll
 0002:00000090       __imp_GetCurrentProcessId  0000000140045090     kernel32:KERNEL32.dll
 0002:00000098       __imp_IsProcessorFeaturePresent 0000000140045098     kernel32:KERNEL32.dll
 0002:000000a0       __imp_TerminateProcess     00000001400450a0     kernel32:KERNEL32.dll
 0002:000000a8       __imp_GetCurrentProcess    00000001400450a8     kernel32:KERNEL32.dll
 0002:000000b0       __imp_SetUnhandledExceptionFilter 00000001400450b0     kernel32:KERNEL32.dll
 0002:000000b8       __imp_UnhandledExceptionFilter 00000001400450b8     kernel32:KERNEL32.dll
 0002:000000c0       __imp_RtlVirtualUnwind     00000001400450c0     kernel32:KERNEL32.dll
 0002:000000c8       __imp_RtlLookupFunctionEntry 00000001400450c8     kernel32:KERNEL32.dll
 0002:000000d0       __imp_RtlCaptureContext    00000001400450d0     kernel32:KERNEL32.dll
 0002:000000d8       __imp_MultiByteToWideChar  00000001400450d8     kernel32:KERNEL32.dll
 0002:000000e0       __imp_FormatMessageW       00000001400450e0     kernel32:KERNEL32.dll
 0002:000000e8       __imp_SetThreadExecutionState 00000001400450e8     kernel32:KERNEL32.dll
 0002:000000f0       __imp_GlobalFree           00000001400450f0     kernel32:KERNEL32.dll
 0002:000000f8       __imp_GlobalLock           00000001400450f8     kernel32:KERNEL32.dll
 0002:00000100       __imp_GlobalUnlock         0000000140045100     kernel32:KERNEL32.dll
 0002:00000108       __imp_GlobalAlloc          0000000140045108     kernel32:KERNEL32.dll
 0002:00000110       __imp_LoadLibraryA         0000000140045110     kernel32:KERNEL32.dll
 0002:00000118       __imp_GetProcAddress       0000000140045118     kernel32:KERNEL32.dll
 0002:00000120       __imp_GetModuleHandleExW   0000000140045120     kernel32:KERNEL32.dll
 0002:00000128       __imp_GetModuleHandleW     0000000140045128     kernel32:KERNEL32.dll
 0002:00000130       __imp_FreeLibrary          0000000140045130     kernel32:KERNEL32.dll
 0002:00000138       __imp_TlsFree              0000000140045138     kernel32:KERNEL32.dll
 0002:00000140       __imp_TlsSetValue          0000000140045140     kernel32:KERNEL32.dll
 0002:00000148       __imp_TlsGetValue          0000000140045148     kernel32:KERNEL32.dll
 0002:00000150       __imp_TlsAlloc             0000000140045150     kernel32:KERNEL32.dll
 0002:00000158       __imp_DeleteCriticalSection 0000000140045158     kernel32:KERNEL32.dll
 0002:00000160       __imp_LeaveCriticalSection 0000000140045160     kernel32:KERNEL32.dll
 0002:00000168       __imp_EnterCriticalSection 0000000140045168     kernel32:KERNEL32.dll
 0002:00000170       __imp_InitializeCriticalSection 0000000140045170     kernel32:KERNEL32.dll
 0002:00000178       __imp_QueryPerformanceFrequency 0000000140045178     kernel32:KERNEL32.dll
 0002:00000180       __imp_QueryPerformanceCounter 0000000140045180     kernel32:KERNEL32.dll
 0002:00000188       __imp_GetLastError         0000000140045188     kernel32:KERNEL32.dll
 0002:00000190       __imp_VerSetConditionMask  0000000140045190     kernel32:KERNEL32.dll
 0002:00000198       __imp_Sleep                0000000140045198     kernel32:KERNEL32.dll
 0002:000001a0       __imp_WideCharToMultiByte  00000001400451a0     kernel32:KERNEL32.dll
 0002:000001a8       \177KERNEL32_NULL_THUNK_DATA 00000001400451a8     kernel32:KERNEL32.dll
 0002:000001b0       __imp_DragQueryPoint       00000001400451b0     shell32:SHELL32.dll
 0002:000001b8       __imp_DragQueryFileW       00000001400451b8     shell32:SHELL32.dll
 0002:000001c0       __imp_DragFinish           00000001400451c0     shell32:SHELL32.dll
 0002:000001c8       __imp_DragAcceptFiles      00000001400451c8     shell32:SHELL32.dll
 0002:000001d0       \177SHELL32_NULL_THUNK_DATA 00000001400451d0     shell32:SHELL32.dll
 0002:000001d8       __imp_SetWindowTextW       00000001400451d8     user32:USER32.dll
 0002:000001e0       __imp_GetClientRect        00000001400451e0     user32:USER32.dll
 0002:000001e8       __imp_GetWindowRect        00000001400451e8     user32:USER32.dll
 0002:000001f0       __imp_AdjustWindowRectEx   00000001400451f0     user32:USER32.dll
 0002:000001f8       __imp_SetCursorPos         00000001400451f8     user32:USER32.dll
 0002:00000200       __imp_SetCursor            0000000140045200     user32:USER32.dll
 0002:00000208       __imp_GetCursorPos         0000000140045208     user32:USER32.dll
 0002:00000210       __imp_ClientToScreen       0000000140045210     user32:USER32.dll
 0002:00000218       __imp_ScreenToClient       0000000140045218     user32:USER32.dll
 0002:00000220       __imp_WindowFromPoint      0000000140045220     user32:USER32.dll
 0002:00000228       __imp_ClipCursor           0000000140045228     user32:USER32.dll
 0002:00000230       __imp_SetRect              0000000140045230     user32:USER32.dll
 0002:00000238       __imp_OffsetRect           0000000140045238     user32:USER32.dll
 0002:00000240       __imp_PtInRect             0000000140045240     user32:USER32.dll
 0002:00000248       __imp_GetWindowLongW       0000000140045248     user32:USER32.dll
 0002:00000250       __imp_SetWindowLongW       0000000140045250     user32:USER32.dll
 0002:00000258       __imp_GetClassLongPtrW     0000000140045258     user32:USER32.dll
 0002:00000260       __imp_RemovePropW          0000000140045260     user32:USER32.dll
 0002:00000268       __imp_DestroyIcon          0000000140045268     user32:USER32.dll
 0002:00000270       __imp_LoadImageW           0000000140045270     user32:USER32.dll
 0002:00000278       __imp_CreateIconIndirect   0000000140045278     user32:USER32.dll
 0002:00000280       __imp_ChangeDisplaySettingsExW 0000000140045280     user32:USER32.dll
 0002:00000288       __imp_EnumDisplaySettingsW 0000000140045288     user32:USER32.dll
 0002:00000290       __imp_EnumDisplaySettingsExW 0000000140045290     user32:USER32.dll
 0002:00000298       __imp_EnumDisplayDevicesW  0000000140045298     user32:USER32.dll
 0002:000002a0       __imp_SystemParametersInfoW 00000001400452a0     user32:USER32.dll
 0002:000002a8       __imp_MonitorFromWindow    00000001400452a8     user32:USER32.dll
 0002:000002b0       __imp_GetMonitorInfoW      00000001400452b0     user32:USER32.dll
 0002:000002b8       __imp_EnumDisplayMonitors  00000001400452b8     user32:USER32.dll
 0002:000002c0       __imp_GetRawInputData      00000001400452c0     user32:USER32.dll
 0002:000002c8       __imp_GetRawInputDeviceInfoA 00000001400452c8     user32:USER32.dll
 0002:000002d0       __imp_RegisterRawInputDevices 00000001400452d0     user32:USER32.dll
 0002:000002d8       __imp_GetRawInputDeviceList 00000001400452d8     user32:USER32.dll
 0002:000002e0       __imp_GetPropW             00000001400452e0     user32:USER32.dll
 0002:000002e8       __imp_TrackMouseEvent      00000001400452e8     user32:USER32.dll
 0002:000002f0       __imp_TranslateMessage     00000001400452f0     user32:USER32.dll
 0002:000002f8       __imp_DispatchMessageW     00000001400452f8     user32:USER32.dll
 0002:00000300       __imp_SetPropW             0000000140045300     user32:USER32.dll
 0002:00000308       __imp_ReleaseDC            0000000140045308     user32:USER32.dll
 0002:00000310       __imp_GetDC                0000000140045310     user32:USER32.dll
 0002:00000318       __imp_LoadCursorW          0000000140045318     user32:USER32.dll
 0002:00000320       __imp_SetForegroundWindow  0000000140045320     user32:USER32.dll
 0002:00000328       __imp_GetSystemMetrics     0000000140045328     user32:USER32.dll
 0002:00000330       __imp_MsgWaitForMultipleObjects 0000000140045330     user32:USER32.dll
 0002:00000338       __imp_ReleaseCapture       0000000140045338     user32:USER32.dll
 0002:00000340       __imp_SetCapture           0000000140045340     user32:USER32.dll
 0002:00000348       __imp_MapVirtualKeyW       0000000140045348     user32:USER32.dll
 0002:00000350       __imp_ToUnicode            0000000140045350     user32:USER32.dll
 0002:00000358       __imp_GetKeyState          0000000140045358     user32:USER32.dll
 0002:00000360       __imp_GetActiveWindow      0000000140045360     user32:USER32.dll
 0002:00000368       __imp_SetFocus             0000000140045368     user32:USER32.dll
 0002:00000370       __imp_EmptyClipboard       0000000140045370     user32:USER32.dll
 0002:00000378       __imp_GetClipboardData     0000000140045378     user32:USER32.dll
 0002:00000380       __imp_SetClipboardData     0000000140045380     user32:USER32.dll
 0002:00000388       __imp_CloseClipboard       0000000140045388     user32:USER32.dll
 0002:00000390       __imp_OpenClipboard        0000000140045390     user32:USER32.dll
 0002:00000398       __imp_IsZoomed             0000000140045398     user32:USER32.dll
 0002:000003a0       __imp_BringWindowToTop     00000001400453a0     user32:USER32.dll
 0002:000003a8       __imp_IsIconic             00000001400453a8     user32:USER32.dll
 0002:000003b0       __imp_IsWindowVisible      00000001400453b0     user32:USER32.dll
 0002:000003b8       __imp_SetWindowPlacement   00000001400453b8     user32:USER32.dll
 0002:000003c0       __imp_GetWindowPlacement   00000001400453c0     user32:USER32.dll
 0002:000003c8       __imp_SetWindowPos         00000001400453c8     user32:USER32.dll
 0002:000003d0       __imp_MoveWindow           00000001400453d0     user32:USER32.dll
 0002:000003d8       __imp_FlashWindow          00000001400453d8     user32:USER32.dll
 0002:000003e0       __imp_SetLayeredWindowAttributes 00000001400453e0     user32:USER32.dll
 0002:000003e8       __imp_GetLayeredWindowAttributes 00000001400453e8     user32:USER32.dll
 0002:000003f0       __imp_ShowWindow           00000001400453f0     user32:USER32.dll
 0002:000003f8       __imp_DestroyWindow        00000001400453f8     user32:USER32.dll
 0002:00000400       __imp_CreateWindowExW      0000000140045400     user32:USER32.dll
 0002:00000408       __imp_RegisterClassExW     0000000140045408     user32:USER32.dll
 0002:00000410       __imp_UnregisterClassW     0000000140045410     user32:USER32.dll
 0002:00000418       __imp_DefWindowProcW       0000000140045418     user32:USER32.dll
 0002:00000420       __imp_WaitMessage          0000000140045420     user32:USER32.dll
 0002:00000428       __imp_PostMessageW         0000000140045428     user32:USER32.dll
 0002:00000430       __imp_UnregisterDeviceNotification 0000000140045430     user32:USER32.dll
 0002:00000438       __imp_RegisterDeviceNotificationW 0000000140045438     user32:USER32.dll
 0002:00000440       __imp_SendMessageW         0000000140045440     user32:USER32.dll
 0002:00000448       __imp_GetMessageTime       0000000140045448     user32:USER32.dll
 0002:00000450       __imp_PeekMessageW         0000000140045450     user32:USER32.dll
 0002:00000458       \177USER32_NULL_THUNK_DATA 0000000140045458     user32:USER32.dll
 0002:00000460       __imp___current_exception_context 0000000140045460     vcruntime:VCRUNTIME140.dll
 0002:00000468       __imp___current_exception  0000000140045468     vcruntime:VCRUNTIME140.dll
 0002:00000470       __imp_strchr               0000000140045470     vcruntime:VCRUNTIME140.dll
 0002:00000478       __imp_strrchr              0000000140045478     vcruntime:VCRUNTIME140.dll
 0002:00000480       __imp_strstr               0000000140045480     vcruntime:VCRUNTIME140.dll
 0002:00000488       __imp_memcpy               0000000140045488     vcruntime:VCRUNTIME140.dll
 0002:00000490       __imp_memset               0000000140045490     vcruntime:VCRUNTIME140.dll
 0002:00000498       __imp_memmove              0000000140045498     vcruntime:VCRUNTIME140.dll
 0002:000004a0       __imp___C_specific_handler 00000001400454a0     vcruntime:VCRUNTIME140.dll
 0002:000004a8       \177VCRUNTIME140_NULL_THUNK_DATA 00000001400454a8     vcruntime:VCRUNTIME140.dll
 0002:000004b0       __imp_timeBeginPeriod      00000001400454b0     winmm:WINMM.dll
 0002:000004b8       \177WINMM_NULL_THUNK_DATA  00000001400454b8     winmm:WINMM.dll
 0002:000004c0       __imp_strtoul              00000001400454c0     ucrt:api-ms-win-crt-convert-l1-1-0.dll
 0002:000004c8       \177api-ms-win-crt-convert-l1-1-0_NULL_THUNK_DATA 00000001400454c8     ucrt:api-ms-win-crt-convert-l1-1-0.dll
 0002:000004d0       __imp__access              00000001400454d0     ucrt:api-ms-win-crt-filesystem-l1-1-0.dll
 0002:000004d8       \177api-ms-win-crt-filesystem-l1-1-0_NULL_THUNK_DATA 00000001400454d8     ucrt:api-ms-win-crt-filesystem-l1-1-0.dll
 0002:000004e0       __imp__set_new_mode        00000001400454e0     ucrt:api-ms-win-crt-heap-l1-1-0.dll
 0002:000004e8       __imp_calloc               00000001400454e8     ucrt:api-ms-win-crt-heap-l1-1-0.dll
 0002:000004f0       __imp_malloc               00000001400454f0     ucrt:api-ms-win-crt-heap-l1-1-0.dll
 0002:000004f8       __imp_free                 00000001400454f8     ucrt:api-ms-win-crt-heap-l1-1-0.dll
 0002:00000500       __imp_realloc              0000000140045500     ucrt:api-ms-win-crt-heap-l1-1-0.dll
 0002:00000508       \177api-ms-win-crt-heap-l1-1-0_NULL_THUNK_DATA 0000000140045508     ucrt:api-ms-win-crt-heap-l1-1-0.dll
 0002:00000510       __imp__configthreadlocale  0000000140045510     ucrt:api-ms-win-crt-locale-l1-1-0.dll
 0002:00000518       \177api-ms-win-crt-locale-l1-1-0_NULL_THUNK_DATA 0000000140045518     ucrt:api-ms-win-crt-locale-l1-1-0.dll
 0002:00000520       __imp_round                0000000140045520     ucrt:api-ms-win-crt-math-l1-1-0.dll
 0002:00000528       __imp___setusermatherr     0000000140045528     ucrt:api-ms-win-crt-math-l1-1-0.dll
 0002:00000530       __imp_sqrtf                0000000140045530     ucrt:api-ms-win-crt-math-l1-1-0.dll
 0002:00000538       __imp_acosf                0000000140045538     ucrt:api-ms-win-crt-math-l1-1-0.dll
 0002:00000540       __imp_atan2f               0000000140045540     ucrt:api-ms-win-crt-math-l1-1-0.dll
 0002:00000548       __imp_cosf                 0000000140045548     ucrt:api-ms-win-crt-math-l1-1-0.dll
 0002:00000550       __imp_sinf                 0000000140045550     ucrt:api-ms-win-crt-math-l1-1-0.dll
 0002:00000558       __imp_sqrt                 0000000140045558     ucrt:api-ms-win-crt-math-l1-1-0.dll
 0002:00000560       __imp_tan                  0000000140045560     ucrt:api-ms-win-crt-math-l1-1-0.dll
 0002:00000568       __imp_powf                 0000000140045568     ucrt:api-ms-win-crt-math-l1-1-0.dll
 0002:00000570       __imp_ceilf                0000000140045570     ucrt:api-ms-win-crt-math-l1-1-0.dll
 0002:00000578       \177api-ms-win-crt-math-l1-1-0_NULL_THUNK_DATA 0000000140045578     ucrt:api-ms-win-crt-math-l1-1-0.dll
 0002:00000580       __imp__initialize_onexit_table 0000000140045580     ucrt:api-ms-win-crt-runtime-l1-1-0.dll
 0002:00000588       __imp__register_thread_local_exe_atexit_callback 0000000140045588     ucrt:api-ms-win-crt-runtime-l1-1-0.dll
 0002:00000590       __imp__c_exit              0000000140045590     ucrt:api-ms-win-crt-runtime-l1-1-0.dll
 0002:00000598       __imp__cexit               0000000140045598     ucrt:api-ms-win-crt-runtime-l1-1-0.dll
 0002:000005a0       __imp___p___argv           00000001400455a0     ucrt:api-ms-win-crt-runtime-l1-1-0.dll
 0002:000005a8       __imp___p___argc           00000001400455a8     ucrt:api-ms-win-crt-runtime-l1-1-0.dll
 0002:000005b0       __imp__exit                00000001400455b0     ucrt:api-ms-win-crt-runtime-l1-1-0.dll
 0002:000005b8       __imp__initterm_e          00000001400455b8     ucrt:api-ms-win-crt-runtime-l1-1-0.dll
 0002:000005c0       __imp__initterm            00000001400455c0     ucrt:api-ms-win-crt-runtime-l1-1-0.dll
 0002:000005c8       __imp__get_initial_narrow_environment 00000001400455c8     ucrt:api-ms-win-crt-runtime-l1-1-0.dll
 0002:000005d0       __imp__initialize_narrow_environment 00000001400455d0     ucrt:api-ms-win-crt-runtime-l1-1-0.dll
 0002:000005d8       __imp_terminate            00000001400455d8     ucrt:api-ms-win-crt-runtime-l1-1-0.dll
 0002:000005e0       __imp__configure_narrow_argv 00000001400455e0     ucrt:api-ms-win-crt-runtime-l1-1-0.dll
 0002:000005e8       __imp__set_app_type        00000001400455e8     ucrt:api-ms-win-crt-runtime-l1-1-0.dll
 0002:000005f0       __imp__crt_atexit          00000001400455f0     ucrt:api-ms-win-crt-runtime-l1-1-0.dll
 0002:000005f8       __imp__register_onexit_function 00000001400455f8     ucrt:api-ms-win-crt-runtime-l1-1-0.dll
 0002:00000600       __imp__seh_filter_exe      0000000140045600     ucrt:api-ms-win-crt-runtime-l1-1-0.dll
 0002:00000608       __imp_exit                 0000000140045608     ucrt:api-ms-win-crt-runtime-l1-1-0.dll
 0002:00000610       \177api-ms-win-crt-runtime-l1-1-0_NULL_THUNK_DATA 0000000140045610     ucrt:api-ms-win-crt-runtime-l1-1-0.dll
 0002:00000618       __imp_fseek                0000000140045618     ucrt:api-ms-win-crt-stdio-l1-1-0.dll
 0002:00000620       __imp__getcwd              0000000140045620     ucrt:api-ms-win-crt-stdio-l1-1-0.dll
 0002:00000628       __imp_fopen                0000000140045628     ucrt:api-ms-win-crt-stdio-l1-1-0.dll
 0002:00000630       __imp_fclose               0000000140045630     ucrt:api-ms-win-crt-stdio-l1-1-0.dll
 0002:00000638       __imp___stdio_common_vsscanf 0000000140045638     ucrt:api-ms-win-crt-stdio-l1-1-0.dll
 0002:00000640       __imp_feof                 0000000140045640     ucrt:api-ms-win-crt-stdio-l1-1-0.dll
 0002:00000648       __imp___stdio_common_vsprintf 0000000140045648     ucrt:api-ms-win-crt-stdio-l1-1-0.dll
 0002:00000650       __imp___acrt_iob_func      0000000140045650     ucrt:api-ms-win-crt-stdio-l1-1-0.dll
 0002:00000658       __imp__set_fmode           0000000140045658     ucrt:api-ms-win-crt-stdio-l1-1-0.dll
 0002:00000660       __imp_ferror               0000000140045660     ucrt:api-ms-win-crt-stdio-l1-1-0.dll
 0002:00000668       __imp_fflush               0000000140045668     ucrt:api-ms-win-crt-stdio-l1-1-0.dll
 0002:00000670       __imp_fgetc                0000000140045670     ucrt:api-ms-win-crt-stdio-l1-1-0.dll
 0002:00000678       __imp_fread                0000000140045678     ucrt:api-ms-win-crt-stdio-l1-1-0.dll
 0002:00000680       __imp___stdio_common_vfprintf 0000000140045680     ucrt:api-ms-win-crt-stdio-l1-1-0.dll
 0002:00000688       __imp_ungetc               0000000140045688     ucrt:api-ms-win-crt-stdio-l1-1-0.dll
 0002:00000690       __imp___p__commode         0000000140045690     ucrt:api-ms-win-crt-stdio-l1-1-0.dll
 0002:00000698       __imp_fwrite               0000000140045698     ucrt:api-ms-win-crt-stdio-l1-1-0.dll
 0002:000006a0       \177api-ms-win-crt-stdio-l1-1-0_NULL_THUNK_DATA 00000001400456a0     ucrt:api-ms-win-crt-stdio-l1-1-0.dll
 0002:000006a8       __imp_strcspn              00000001400456a8     ucrt:api-ms-win-crt-string-l1-1-0.dll
 0002:000006b0       __imp_strspn               00000001400456b0     ucrt:api-ms-win-crt-string-l1-1-0.dll
 0002:000006b8       __imp_strpbrk              00000001400456b8     ucrt:api-ms-win-crt-string-l1-1-0.dll
 0002:000006c0       __imp_strcmp               00000001400456c0     ucrt:api-ms-win-crt-string-l1-1-0.dll
 0002:000006c8       __imp_strncmp              00000001400456c8     ucrt:api-ms-win-crt-string-l1-1-0.dll
 0002:000006d0       __imp_strncpy              00000001400456d0     ucrt:api-ms-win-crt-string-l1-1-0.dll
 0002:000006d8       \177api-ms-win-crt-string-l1-1-0_NULL_THUNK_DATA 00000001400456d8     ucrt:api-ms-win-crt-string-l1-1-0.dll
 0002:000006e0       __imp__time64              00000001400456e0     ucrt:api-ms-win-crt-time-l1-1-0.dll
 0002:000006e8       \177api-ms-win-crt-time-l1-1-0_NULL_THUNK_DATA 00000001400456e8     ucrt:api-ms-win-crt-time-l1-1-0.dll
 0002:000006f0       __imp_srand                00000001400456f0     ucrt:api-ms-win-crt-utility-l1-1-0.dll
 0002:000006f8       __imp_qsort                00000001400456f8     ucrt:api-ms-win-crt-utility-l1-1-0.dll
 0002:00000700       \177api-ms-win-crt-utility-l1-1-0_NULL_THUNK_DATA 0000000140045700     ucrt:api-ms-win-crt-utility-l1-1-0.dll
 0002:00000708       __guard_check_icall_fptr   0000000140045708     msvcrt:guard_support.obj
 0002:00000710       __guard_xfg_check_icall_fptr 0000000140045710     msvcrt:guard_support.obj
 0002:00000718       __guard_dispatch_icall_fptr 0000000140045718     msvcrt:guard_support.obj
 0002:00000720       __guard_xfg_dispatch_icall_fptr 0000000140045720     msvcrt:guard_support.obj
 0002:00000728       __guard_xfg_table_dispatch_icall_fptr 0000000140045728     msvcrt:guard_support.obj
 0002:00000730       __castguard_check_failure_os_handled_fptr 0000000140045730     msvcrt:guard_support.obj
 0002:00000738       __guard_memcpy_fptr        0000000140045738     vcruntime:softmemtag.obj
 0002:00000740       __xc_a                     0000000140045740     msvcrt:initializers.obj
 0002:00000750       __xc_z                     0000000140045750     msvcrt:initializers.obj
 0002:00000758       __xi_a                     0000000140045758     msvcrt:initializers.obj
 0002:00000770       __xi_z                     0000000140045770     msvcrt:initializers.obj
 0002:00000778       __xp_a                     0000000140045778     msvcrt:initializers.obj
 0002:00000780       __xp_z                     0000000140045780     msvcrt:initializers.obj
 0002:00000788       __xt_a                     0000000140045788     msvcrt:initializers.obj
 0002:00000790       __xt_z                     0000000140045790     msvcrt:initializers.obj
 0002:000007a8       __real@00000000            00000001400457a8     main.obj
 0002:000007ac       __real@3b449ba6            00000001400457ac     main.obj
 0002:000007b0       __real@3cf5c28f            00000001400457b0     main.obj
 0002:000007b4       __real@3dcccccd            00000001400457b4     main.obj
 0002:000007b8       __real@3e4ccccd            00000001400457b8     main.obj
 0002:000007bc       __real@3e800000            00000001400457bc     main.obj
 0002:000007c0       __real@3ee4f8b588e368f1    00000001400457c0     main.obj
 0002:000007c8       __real@3f000000            00000001400457c8     main.obj
 0002:000007cc       __real@3f800000            00000001400457cc     main.obj
 0002:000007d0       __real@40000000            00000001400457d0     main.obj
 0002:000007d4       __real@40600000            00000001400457d4     main.obj
 0002:000007d8       __real@41000000            00000001400457d8     main.obj
 0002:000007dc       __real@41200000            00000001400457dc     main.obj
 0002:000007e0       __real@42340000            00000001400457e0     main.obj
 0002:000007e4       __real@437f0000            00000001400457e4     main.obj
 0002:000007e8       __real@bcf5c28f            00000001400457e8     main.obj
 0002:000007ec       __real@be4ccccd            00000001400457ec     main.obj
 0002:000007f0       __real@be800000            00000001400457f0     main.obj
 0002:000007f4       __real@c0000000            00000001400457f4     main.obj
 0002:000007f8       __real@c0f00000            00000001400457f8     main.obj
 0002:00000800       __xmm@7fffffffffffffff7fffffffffffffff 0000000140045800     main.obj
 0002:00000810       __xmm@80000000800000008000000080000000 0000000140045810     main.obj
 0002:00000820       ??_C@_03PENLHFGJ@5?40@     0000000140045820     raylib:rcore.obj
 0002:00000828       ??_C@_0L@NGIDFJGJ@EVENT_NONE@ 0000000140045828     raylib:rcore.obj
 0002:00000838       ??_C@_0N@PIMCJOPF@INPUT_KEY_UP@ 0000000140045838     raylib:rcore.obj
 0002:00000848       ??_C@_0P@CMIPPADM@INPUT_KEY_DOWN@ 0000000140045848     raylib:rcore.obj
 0002:00000858       ??_C@_0BC@FHKADEMO@INPUT_KEY_PRESSED@ 0000000140045858     raylib:rcore.obj
 0002:00000870       ??_C@_0BD@JOJBNHPF@INPUT_KEY_RELEASED@ 0000000140045870     raylib:rcore.obj
 0002:00000888       ??_C@_0BG@KBAKADII@INPUT_MOUSE_BUTTON_UP@ 0000000140045888     raylib:rcore.obj
 0002:000008a0       ??_C@_0BI@DIKAEBLG@INPUT_MOUSE_BUTTON_DOWN@ 00000001400458a0     raylib:rcore.obj
 0002:000008b8       ??_C@_0BF@JKKODJEK@INPUT_MOUSE_POSITION@ 00000001400458b8     raylib:rcore.obj
 0002:000008d0       ??_C@_0BJ@GFGFEACJ@INPUT_MOUSE_WHEEL_MOTION@ 00000001400458d0     raylib:rcore.obj
 0002:000008f0       ??_C@_0BG@JCFAPLOK@INPUT_GAMEPAD_CONNECT@ 00000001400458f0     raylib:rcore.obj
 0002:00000908       ??_C@_0BJ@OIIGCJCA@INPUT_GAMEPAD_DISCONNECT@ 0000000140045908     raylib:rcore.obj
 0002:00000928       ??_C@_0BI@CIMBDOMJ@INPUT_GAMEPAD_BUTTON_UP@ 0000000140045928     raylib:rcore.obj
 0002:00000940       ??_C@_0BK@IJKKPKCI@INPUT_GAMEPAD_BUTTON_DOWN@ 0000000140045940     raylib:rcore.obj
 0002:00000960       ??_C@_0BK@JKKKBBPF@INPUT_GAMEPAD_AXIS_MOTION@ 0000000140045960     raylib:rcore.obj
 0002:00000980       ??_C@_0P@DPKOJIOP@INPUT_TOUCH_UP@ 0000000140045980     raylib:rcore.obj
 0002:00000990       ??_C@_0BB@HFMBGILO@INPUT_TOUCH_DOWN@ 0000000140045990     raylib:rcore.obj
 0002:000009a8       ??_C@_0BF@GPDCBBJB@INPUT_TOUCH_POSITION@ 00000001400459a8     raylib:rcore.obj
 0002:000009c0       ??_C@_0O@MCEBKMBL@INPUT_GESTURE@ 00000001400459c0     raylib:rcore.obj
 0002:000009d0       ??_C@_0N@IFMOJBBJ@WINDOW_CLOSE@ 00000001400459d0     raylib:rcore.obj
 0002:000009e0       ??_C@_0BA@GOMLMNDI@WINDOW_MAXIMIZE@ 00000001400459e0     raylib:rcore.obj
 0002:000009f0       ??_C@_0BA@LJCAHPHJ@WINDOW_MINIMIZE@ 00000001400459f0     raylib:rcore.obj
 0002:00000a00       ??_C@_0O@ICIIDCJG@WINDOW_RESIZE@ 0000000140045a00     raylib:rcore.obj
 0002:00000a10       ??_C@_0BH@CAAFGMDJ@ACTION_TAKE_SCREENSHOT@ 0000000140045a10     raylib:rcore.obj
 0002:00000a28       ??_C@_0BE@PBBDGMIG@ACTION_SETTARGETFPS@ 0000000140045a28     raylib:rcore.obj
 0002:00000f30       ??_C@_0M@PFBKOKOH@glBlendFunc@ 0000000140045f30     raylib:rcore.obj
 0002:00000f40       ??_C@_07IBAPPAHJ@glClear@  0000000140045f40     raylib:rcore.obj
 0002:00000f48       ??_C@_0N@OGLMDNKC@glClearColor@ 0000000140045f48     raylib:rcore.obj
 0002:00000f58       ??_C@_0N@LJIELNG@glClearDepth@ 0000000140045f58     raylib:rcore.obj
 0002:00000f68       ??_C@_0P@KBLPBBFP@glClearStencil@ 0000000140045f68     raylib:rcore.obj
 0002:00000f78       ??_C@_0M@DLGOAHPH@glColorMask@ 0000000140045f78     raylib:rcore.obj
 0002:00000f88       ??_C@_0L@BAPBLHME@glCullFace@ 0000000140045f88     raylib:rcore.obj
 0002:00000f98       ??_C@_0M@NEJABAEP@glDepthFunc@ 0000000140045f98     raylib:rcore.obj
 0002:00000fa8       ??_C@_0M@KABMFLLN@glDepthMask@ 0000000140045fa8     raylib:rcore.obj
 0002:00000fb8       ??_C@_0N@PEBDIKOA@glDepthRange@ 0000000140045fb8     raylib:rcore.obj
 0002:00000fc8       ??_C@_09MHGMIMKN@glDisable@ 0000000140045fc8     raylib:rcore.obj
 0002:00000fd8       ??_C@_0N@EKCLGPL@glDrawBuffer@ 0000000140045fd8     raylib:rcore.obj
 0002:00000fe8       ??_C@_08OOEHEKOP@glEnable@ 0000000140045fe8     raylib:rcore.obj
 0002:00000ff8       ??_C@_08DFCPOKBK@glFinish@ 0000000140045ff8     raylib:rcore.obj
 0002:00001008       ??_C@_07COFELLJA@glFlush@  0000000140046008     raylib:rcore.obj
 0002:00001010       ??_C@_0M@ILBMDJDA@glFrontFace@ 0000000140046010     raylib:rcore.obj
 0002:00001020       ??_C@_0O@NLMELLCJ@glGetBooleanv@ 0000000140046020     raylib:rcore.obj
 0002:00001030       ??_C@_0N@OFBMMCDH@glGetDoublev@ 0000000140046030     raylib:rcore.obj
 0002:00001040       ??_C@_0L@FPKAMKHB@glGetError@ 0000000140046040     raylib:rcore.obj
 0002:00001050       ??_C@_0M@CKCOBONE@glGetFloatv@ 0000000140046050     raylib:rcore.obj
 0002:00001060       ??_C@_0O@DHHDCCLF@glGetIntegerv@ 0000000140046060     raylib:rcore.obj
 0002:00001070       ??_C@_0M@OPOBFDCB@glGetString@ 0000000140046070     raylib:rcore.obj
 0002:00001080       ??_C@_0O@DOIIJLAD@glGetTexImage@ 0000000140046080     raylib:rcore.obj
 0002:00001090       ??_C@_0BJ@GAMLGIFF@glGetTexLevelParameterfv@ 0000000140046090     raylib:rcore.obj
 0002:000010b0       ??_C@_0BJ@GLJHCPGI@glGetTexLevelParameteriv@ 00000001400460b0     raylib:rcore.obj
 0002:000010d0       ??_C@_0BE@DNHBPKMC@glGetTexParameterfv@ 00000001400460d0     raylib:rcore.obj
 0002:000010e8       ??_C@_0BE@DGCNLNPP@glGetTexParameteriv@ 00000001400460e8     raylib:rcore.obj
 0002:000010fc       ??_C@_06HEADGMBC@glHint@   00000001400460fc     raylib:rcore.obj
 0002:00001108       ??_C@_0M@INHMIHKC@glIsEnabled@ 0000000140046108     raylib:rcore.obj
 0002:00001118       ??_C@_0M@CFLGNFPG@glLineWidth@ 0000000140046118     raylib:rcore.obj
 0002:00001128       ??_C@_09GKGMNAKG@glLogicOp@ 0000000140046128     raylib:rcore.obj
 0002:00001138       ??_C@_0O@BFLAHHCK@glPixelStoref@ 0000000140046138     raylib:rcore.obj
 0002:00001148       ??_C@_0O@JCCIGLOF@glPixelStorei@ 0000000140046148     raylib:rcore.obj
 0002:00001158       ??_C@_0M@EEAPMMNM@glPointSize@ 0000000140046158     raylib:rcore.obj
 0002:00001168       ??_C@_0O@DKMNBFMB@glPolygonMode@ 0000000140046168     raylib:rcore.obj
 0002:00001178       ??_C@_0N@HFKHBECK@glReadBuffer@ 0000000140046178     raylib:rcore.obj
 0002:00001188       ??_C@_0N@CKFNNHOO@glReadPixels@ 0000000140046188     raylib:rcore.obj
 0002:00001198       ??_C@_09ECGPAEPL@glScissor@ 0000000140046198     raylib:rcore.obj
 0002:000011a8       ??_C@_0O@ENNLLOLN@glStencilFunc@ 00000001400461a8     raylib:rcore.obj
 0002:000011b8       ??_C@_0O@DJFHPFEP@glStencilMask@ 00000001400461b8     raylib:rcore.obj
 0002:000011c8       ??_C@_0M@BILBNGF@glStencilOp@ 00000001400461c8     raylib:rcore.obj
 0002:000011d8       ??_C@_0N@JDMMMFHL@glTexImage1D@ 00000001400461d8     raylib:rcore.obj
 0002:000011e8       ??_C@_0N@JBIKHLCC@glTexImage2D@ 00000001400461e8     raylib:rcore.obj
 0002:000011f8       ??_C@_0BA@INKFIMGP@glTexParameterf@ 00000001400461f8     raylib:rcore.obj
 0002:00001208       ??_C@_0BB@KEOFAHDF@glTexParameterfv@ 0000000140046208     raylib:rcore.obj
 0002:00001220       ??_C@_0BA@KDNJAKA@glTexParameteri@ 0000000140046220     raylib:rcore.obj
 0002:00001230       ??_C@_0BB@KPLJEAAI@glTexParameteriv@ 0000000140046230     raylib:rcore.obj
 0002:00001248       ??_C@_0L@KBLIPDFH@glViewport@ 0000000140046248     raylib:rcore.obj
 0002:00001258       ??_C@_0O@JKKCIBGC@glBindTexture@ 0000000140046258     raylib:rcore.obj
 0002:00001268       ??_C@_0BB@MEEDBHPL@glCopyTexImage1D@ 0000000140046268     raylib:rcore.obj
 0002:00001280       ??_C@_0BB@MGAFKJKC@glCopyTexImage2D@ 0000000140046280     raylib:rcore.obj
 0002:00001298       ??_C@_0BE@PKNCAIGI@glCopyTexSubImage1D@ 0000000140046298     raylib:rcore.obj
 0002:000012b0       ??_C@_0BE@PIJELGDB@glCopyTexSubImage2D@ 00000001400462b0     raylib:rcore.obj
 0002:000012c8       ??_C@_0BB@KMPLFJIC@glDeleteTextures@ 00000001400462c8     raylib:rcore.obj
 0002:000012e0       ??_C@_0N@CMNPPOHA@glDrawArrays@ 00000001400462e0     raylib:rcore.obj
 0002:000012f0       ??_C@_0P@MENFIFGE@glDrawElements@ 00000001400462f0     raylib:rcore.obj
 0002:00001300       ??_C@_0O@LLMANLNK@glGenTextures@ 0000000140046300     raylib:rcore.obj
 0002:00001310       ??_C@_0O@LADEDGJO@glGetPointerv@ 0000000140046310     raylib:rcore.obj
 0002:00001320       ??_C@_0M@NJHAEPDN@glIsTexture@ 0000000140046320     raylib:rcore.obj
 0002:00001330       ??_C@_0BA@FFBJGNC@glPolygonOffset@ 0000000140046330     raylib:rcore.obj
 0002:00001340       ??_C@_0BA@NFOOCKJD@glTexSubImage1D@ 0000000140046340     raylib:rcore.obj
 0002:00001350       ??_C@_0BA@NHKIJEMK@glTexSubImage2D@ 0000000140046350     raylib:rcore.obj
 0002:00001360       ??_C@_0BE@PJFGNMAG@glCopyTexSubImage3D@ 0000000140046360     raylib:rcore.obj
 0002:00001378       ??_C@_0BE@IHNAGJGJ@glDrawRangeElements@ 0000000140046378     raylib:rcore.obj
 0002:00001390       ??_C@_0N@JAEIBBBF@glTexImage3D@ 0000000140046390     raylib:rcore.obj
 0002:000013a0       ??_C@_0BA@NGGKPOPN@glTexSubImage3D@ 00000001400463a0     raylib:rcore.obj
 0002:000013b0       ??_C@_0BA@KOBBIKOF@glActiveTexture@ 00000001400463b0     raylib:rcore.obj
 0002:000013c0       ??_C@_0BH@GFPJBEAB@glCompressedTexImage1D@ 00000001400463c0     raylib:rcore.obj
 0002:000013d8       ??_C@_0BH@GHLPKKFI@glCompressedTexImage2D@ 00000001400463d8     raylib:rcore.obj
 0002:000013f0       ??_C@_0BH@GGHNMAGP@glCompressedTexImage3D@ 00000001400463f0     raylib:rcore.obj
 0002:00001408       ??_C@_0BK@ECBIPHJO@glCompressedTexSubImage1D@ 0000000140046408     raylib:rcore.obj
 0002:00001428       ??_C@_0BK@EAFOEJMH@glCompressedTexSubImage2D@ 0000000140046428     raylib:rcore.obj
 0002:00001448       ??_C@_0BK@EBJMCDPA@glCompressedTexSubImage3D@ 0000000140046448     raylib:rcore.obj
 0002:00001468       ??_C@_0BI@MPANLPPL@glGetCompressedTexImage@ 0000000140046468     raylib:rcore.obj
 0002:00001480       ??_C@_0BB@BJGIPMOA@glSampleCoverage@ 0000000140046480     raylib:rcore.obj
 0002:00001498       ??_C@_0N@PKBMFJDK@glBlendColor@ 0000000140046498     raylib:rcore.obj
 0002:000014a8       ??_C@_0BA@PFHILPAN@glBlendEquation@ 00000001400464a8     raylib:rcore.obj
 0002:000014b8       ??_C@_0BE@LLLCIIOO@glBlendFuncSeparate@ 00000001400464b8     raylib:rcore.obj
 0002:000014d0       ??_C@_0BC@IBABPJFA@glMultiDrawArrays@ 00000001400464d0     raylib:rcore.obj
 0002:000014e8       ??_C@_0BE@MPDFJJLL@glMultiDrawElements@ 00000001400464e8     raylib:rcore.obj
 0002:00001500       ??_C@_0BC@FGOOEDO@glPointParameterf@ 0000000140046500     raylib:rcore.obj
 0002:00001518       ??_C@_0BD@LIABKNDP@glPointParameterfv@ 0000000140046518     raylib:rcore.obj
 0002:00001530       ??_C@_0BC@ICPGPIPB@glPointParameteri@ 0000000140046530     raylib:rcore.obj
 0002:00001548       ??_C@_0BD@LDFNOKAC@glPointParameteriv@ 0000000140046548     raylib:rcore.obj
 0002:00001560       ??_C@_0N@GIAGIGPA@glBeginQuery@ 0000000140046560     raylib:rcore.obj
 0002:00001570       ??_C@_0N@BONEPPLO@glBindBuffer@ 0000000140046570     raylib:rcore.obj
 0002:00001580       ??_C@_0N@JHHJMABP@glBufferData@ 0000000140046580     raylib:rcore.obj
 0002:00001590       ??_C@_0BA@GAJMDBBN@glBufferSubData@ 0000000140046590     raylib:rcore.obj
 0002:000015a0       ??_C@_0BA@DMNLADIO@glDeleteBuffers@ 00000001400465a0     raylib:rcore.obj
 0002:000015b0       ??_C@_0BA@IOKEHMOH@glDeleteQueries@ 00000001400465b0     raylib:rcore.obj
 0002:000015c0       ??_C@_0L@FLEBHIDM@glEndQuery@ 00000001400465c0     raylib:rcore.obj
 0002:000015d0       ??_C@_0N@LAOHBIBA@glGenBuffers@ 00000001400465d0     raylib:rcore.obj
 0002:000015e0       ??_C@_0N@CJIGHHJ@glGenQueries@ 00000001400465e0     raylib:rcore.obj
 0002:000015f0       ??_C@_0BH@BMIEIFJP@glGetBufferParameteriv@ 00000001400465f0     raylib:rcore.obj
 0002:00001608       ??_C@_0BE@KNJEIFMC@glGetBufferPointerv@ 0000000140046608     raylib:rcore.obj
 0002:00001620       ??_C@_0BD@PNDAHMBO@glGetBufferSubData@ 0000000140046620     raylib:rcore.obj
 0002:00001638       ??_C@_0BD@KMBBCJID@glGetQueryObjectiv@ 0000000140046638     raylib:rcore.obj
 0002:00001650       ??_C@_0BE@MNBBKJ@glGetQueryObjectuiv@ 0000000140046650     raylib:rcore.obj
 0002:00001668       ??_C@_0N@BPACPFCI@glGetQueryiv@ 0000000140046668     raylib:rcore.obj
 0002:00001678       ??_C@_0L@KFPDMKNG@glIsBuffer@ 0000000140046678     raylib:rcore.obj
 0002:00001688       ??_C@_09CNNLCEBN@glIsQuery@ 0000000140046688     raylib:rcore.obj
 0002:00001698       ??_C@_0M@NNHDPACA@glMapBuffer@ 0000000140046698     raylib:rcore.obj
 0002:000016a8       ??_C@_0O@OFGHBLEO@glUnmapBuffer@ 00000001400466a8     raylib:rcore.obj
 0002:000016b8       ??_C@_0P@LDMLEABL@glAttachShader@ 00000001400466b8     raylib:rcore.obj
 0002:000016c8       ??_C@_0BF@MHKEFIHM@glBindAttribLocation@ 00000001400466c8     raylib:rcore.obj
 0002:000016e0       ??_C@_0BI@JNHDNJAG@glBlendEquationSeparate@ 00000001400466e0     raylib:rcore.obj
 0002:000016f8       ??_C@_0BA@DGIEGONF@glCompileShader@ 00000001400466f8     raylib:rcore.obj
 0002:00001708       ??_C@_0BA@FLKLHNKP@glCreateProgram@ 0000000140046708     raylib:rcore.obj
 0002:00001718       ??_C@_0P@HGHBNC@glCreateShader@ 0000000140046718     raylib:rcore.obj
 0002:00001728       ??_C@_0BA@NKGCDOPO@glDeleteProgram@ 0000000140046728     raylib:rcore.obj
 0002:00001738       ??_C@_0P@HHCDONAG@glDeleteShader@ 0000000140046738     raylib:rcore.obj
 0002:00001748       ??_C@_0P@DJFJFCJL@glDetachShader@ 0000000140046748     raylib:rcore.obj
 0002:00001758       ??_C@_0BL@NKHLOFFF@glDisableVertexAttribArray@ 0000000140046758     raylib:rcore.obj
 0002:00001778       ??_C@_0O@COHJKDBH@glDrawBuffers@ 0000000140046778     raylib:rcore.obj
 0002:00001788       ??_C@_0BK@EHBAHNHE@glEnableVertexAttribArray@ 0000000140046788     raylib:rcore.obj
 0002:000017a8       ??_C@_0BC@MBALAOHF@glGetActiveAttrib@ 00000001400467a8     raylib:rcore.obj
 0002:000017c0       ??_C@_0BD@NIMHLLKN@glGetActiveUniform@ 00000001400467c0     raylib:rcore.obj
 0002:000017d8       ??_C@_0BF@GHMDGFEM@glGetAttachedShaders@ 00000001400467d8     raylib:rcore.obj
 0002:000017f0       ??_C@_0BE@BEPGJDMM@glGetAttribLocation@ 00000001400467f0     raylib:rcore.obj
 0002:00001808       ??_C@_0BE@DHGHAJFL@glGetProgramInfoLog@ 0000000140046808     raylib:rcore.obj
 0002:00001820       ??_C@_0P@FMMDFLCO@glGetProgramiv@ 0000000140046820     raylib:rcore.obj
 0002:00001830       ??_C@_0BD@GIABBCMO@glGetShaderInfoLog@ 0000000140046830     raylib:rcore.obj
 0002:00001848       ??_C@_0BC@ELEIFJEL@glGetShaderSource@ 0000000140046848     raylib:rcore.obj
 0002:00001860       ??_C@_0O@JBDFPDMG@glGetShaderiv@ 0000000140046860     raylib:rcore.obj
 0002:00001870       ??_C@_0BF@KIOPGICP@glGetUniformLocation@ 0000000140046870     raylib:rcore.obj
 0002:00001888       ??_C@_0P@DFCJIBG@glGetUniformfv@ 0000000140046888     raylib:rcore.obj
 0002:00001898       ??_C@_0P@IAONPCL@glGetUniformiv@ 0000000140046898     raylib:rcore.obj
 0002:000018a8       ??_C@_0BK@DOJMENLD@glGetVertexAttribPointerv@ 00000001400468a8     raylib:rcore.obj
 0002:000018c8       ??_C@_0BE@HDPMJMIN@glGetVertexAttribdv@ 00000001400468c8     raylib:rcore.obj
 0002:000018e0       ??_C@_0BE@HAHIEIOD@glGetVertexAttribfv@ 00000001400468e0     raylib:rcore.obj
 0002:000018f8       ??_C@_0BE@HLCEAPNO@glGetVertexAttribiv@ 00000001400468f8     raylib:rcore.obj
 0002:00001910       ??_C@_0M@INLOJDGO@glIsProgram@ 0000000140046910     raylib:rcore.obj
 0002:00001920       ??_C@_0L@MDDLFIHC@glIsShader@ 0000000140046920     raylib:rcore.obj
 0002:00001930       ??_C@_0O@PIOEEBPO@glLinkProgram@ 0000000140046930     raylib:rcore.obj
 0002:00001940       ??_C@_0P@DFHCPFMO@glShaderSource@ 0000000140046940     raylib:rcore.obj
 0002:00001950       ??_C@_0BG@FCMNCEIA@glStencilFuncSeparate@ 0000000140046950     raylib:rcore.obj
 0002:00001968       ??_C@_0BG@MMKPIEJI@glStencilMaskSeparate@ 0000000140046968     raylib:rcore.obj
 0002:00001980       ??_C@_0BE@GAPLDNGF@glStencilOpSeparate@ 0000000140046980     raylib:rcore.obj
 0002:00001998       ??_C@_0M@MLICAPOF@glUniform1f@ 0000000140046998     raylib:rcore.obj
 0002:000019a8       ??_C@_0N@KJMOEKII@glUniform1fv@ 00000001400469a8     raylib:rcore.obj
 0002:000019b8       ??_C@_0M@EMBKBDCK@glUniform1i@ 00000001400469b8     raylib:rcore.obj
 0002:000019c8       ??_C@_0N@KCJCANLF@glUniform1iv@ 00000001400469c8     raylib:rcore.obj
 0002:000019d8       ??_C@_0M@MJMELBLM@glUniform2f@ 00000001400469d8     raylib:rcore.obj
 0002:000019e8       ??_C@_0N@LLHLOFGG@glUniform2fv@ 00000001400469e8     raylib:rcore.obj
 0002:000019f8       ??_C@_0M@EOFMKNHD@glUniform2i@ 00000001400469f8     raylib:rcore.obj
 0002:00001a08       ??_C@_0N@LACHKCFL@glUniform2iv@ 0000000140046a08     raylib:rcore.obj
 0002:00001a18       ??_C@_0M@MIAGNLIL@glUniform3f@ 0000000140046a18     raylib:rcore.obj
 0002:00001a28       ??_C@_0N@DMHICAD@glUniform3fv@ 0000000140046a28     raylib:rcore.obj
 0002:00001a38       ??_C@_0M@EPJOMHEE@glUniform3i@ 0000000140046a38     raylib:rcore.obj
 0002:00001a48       ??_C@_0N@IJLMFDO@glUniform3iv@ 0000000140046a48     raylib:rcore.obj
 0002:00001a58       ??_C@_0M@MNEJMNAO@glUniform4f@ 0000000140046a58     raylib:rcore.obj
 0002:00001a68       ??_C@_0N@JOBALKLK@glUniform4fv@ 0000000140046a68     raylib:rcore.obj
 0002:00001a78       ??_C@_0M@EKNBNBMB@glUniform4i@ 0000000140046a78     raylib:rcore.obj
 0002:00001a88       ??_C@_0N@JFEMPNIH@glUniform4iv@ 0000000140046a88     raylib:rcore.obj
 0002:00001a98       ??_C@_0BD@JIBJELHD@glUniformMatrix2fv@ 0000000140046a98     raylib:rcore.obj
 0002:00001ab0       ??_C@_0BD@CAKFCMBG@glUniformMatrix3fv@ 0000000140046ab0     raylib:rcore.obj
 0002:00001ac8       ??_C@_0BD@LNHCBEKP@glUniformMatrix4fv@ 0000000140046ac8     raylib:rcore.obj
 0002:00001ae0       ??_C@_0N@ICBDHBI@glUseProgram@ 0000000140046ae0     raylib:rcore.obj
 0002:00001af0       ??_C@_0BC@MAPGDLJK@glValidateProgram@ 0000000140046af0     raylib:rcore.obj
 0002:00001b08       ??_C@_0BB@PIOLPNPC@glVertexAttrib1d@ 0000000140046b08     raylib:rcore.obj
 0002:00001b20       ??_C@_0BC@CKCOKGLN@glVertexAttrib1dv@ 0000000140046b20     raylib:rcore.obj
 0002:00001b38       ??_C@_0BB@MKNNJPHA@glVertexAttrib1f@ 0000000140046b38     raylib:rcore.obj
 0002:00001b50       ??_C@_0BC@CJKKHCND@glVertexAttrib1fv@ 0000000140046b50     raylib:rcore.obj
 0002:00001b68       ??_C@_0BB@PNGIHJGE@glVertexAttrib1s@ 0000000140046b68     raylib:rcore.obj
 0002:00001b80       ??_C@_0BC@DDEHBDEI@glVertexAttrib1sv@ 0000000140046b80     raylib:rcore.obj
 0002:00001b98       ??_C@_0BB@PKKNEDKL@glVertexAttrib2d@ 0000000140046b98     raylib:rcore.obj
 0002:00001bb0       ??_C@_0BC@DIJLAJFD@glVertexAttrib2dv@ 0000000140046bb0     raylib:rcore.obj
 0002:00001bc8       ??_C@_0BB@MIJLCBCJ@glVertexAttrib2f@ 0000000140046bc8     raylib:rcore.obj
 0002:00001be0       ??_C@_0BC@DLBPNNDN@glVertexAttrib2fv@ 0000000140046be0     raylib:rcore.obj
 0002:00001bf8       ??_C@_0BB@PPCOMHDN@glVertexAttrib2s@ 0000000140046bf8     raylib:rcore.obj
 0002:00001c10       ??_C@_0BC@CBPCLMKG@glVertexAttrib2sv@ 0000000140046c10     raylib:rcore.obj
 0002:00001c28       ??_C@_0BB@PLGPCJJM@glVertexAttrib3d@ 0000000140046c28     raylib:rcore.obj
 0002:00001c40       ??_C@_0BC@IACHGODG@glVertexAttrib3dv@ 0000000140046c40     raylib:rcore.obj
 0002:00001c58       ??_C@_0BB@MJFJELBO@glVertexAttrib3f@ 0000000140046c58     raylib:rcore.obj
 0002:00001c70       ??_C@_0BC@IDKDLKFI@glVertexAttrib3fv@ 0000000140046c70     raylib:rcore.obj
 0002:00001c88       ??_C@_0BB@POOMKNAK@glVertexAttrib3s@ 0000000140046c88     raylib:rcore.obj
 0002:00001ca0       ??_C@_0BC@JJEONLMD@glVertexAttrib3sv@ 0000000140046ca0     raylib:rcore.obj
 0002:00001cb8       ??_C@_0BD@NANPPEGB@glVertexAttrib4Nbv@ 0000000140046cb8     raylib:rcore.obj
 0002:00001cd0       ??_C@_0BD@NMIKBLIA@glVertexAttrib4Niv@ 0000000140046cd0     raylib:rcore.obj
 0002:00001ce8       ??_C@_0BD@MNDLDNCG@glVertexAttrib4Nsv@ 0000000140046ce8     raylib:rcore.obj
 0002:00001d00       ??_C@_0BD@OHBIJGMB@glVertexAttrib4Nub@ 0000000140046d00     raylib:rcore.obj
 0002:00001d18       ??_C@_0BE@JFOBDEMA@glVertexAttrib4Nubv@ 0000000140046d18     raylib:rcore.obj
 0002:00001d30       ??_C@_0BE@JJLENLCB@glVertexAttrib4Nuiv@ 0000000140046d30     raylib:rcore.obj
 0002:00001d48       ??_C@_0BE@IIAFPNIH@glVertexAttrib4Nusv@ 0000000140046d48     raylib:rcore.obj
 0002:00001d60       ??_C@_0BC@BJHNCKDN@glVertexAttrib4bv@ 0000000140046d60     raylib:rcore.obj
 0002:00001d78       ??_C@_0BB@POCADPBJ@glVertexAttrib4d@ 0000000140046d78     raylib:rcore.obj
 0002:00001d90       ??_C@_0BC@BNPAFGIP@glVertexAttrib4dv@ 0000000140046d90     raylib:rcore.obj
 0002:00001da8       ??_C@_0BB@MMBGFNJL@glVertexAttrib4f@ 0000000140046da8     raylib:rcore.obj
 0002:00001dc0       ??_C@_0BC@BOHEICOB@glVertexAttrib4fv@ 0000000140046dc0     raylib:rcore.obj
 0002:00001dd8       ??_C@_0BC@BFCIMFNM@glVertexAttrib4iv@ 0000000140046dd8     raylib:rcore.obj
 0002:00001df0       ??_C@_0BB@PLKDLLIP@glVertexAttrib4s@ 0000000140046df0     raylib:rcore.obj
 0002:00001e08       ??_C@_0BC@EJJODHK@glVertexAttrib4sv@ 0000000140046e08     raylib:rcore.obj
 0002:00001e20       ??_C@_0BD@PHPFILMB@glVertexAttrib4ubv@ 0000000140046e20     raylib:rcore.obj
 0002:00001e38       ??_C@_0BD@PLKAGECA@glVertexAttrib4uiv@ 0000000140046e38     raylib:rcore.obj
 0002:00001e50       ??_C@_0BD@OKBBECIG@glVertexAttrib4usv@ 0000000140046e50     raylib:rcore.obj
 0002:00001e68       ??_C@_0BG@JPNNNPKG@glVertexAttribPointer@ 0000000140046e68     raylib:rcore.obj
 0002:00001e80       ??_C@_0BF@KDDJMCDK@glUniformMatrix2x3fv@ 0000000140046e80     raylib:rcore.obj
 0002:00001e98       ??_C@_0BF@DOOOPKID@glUniformMatrix2x4fv@ 0000000140046e98     raylib:rcore.obj
 0002:00001eb0       ??_C@_0BF@NANJHGPK@glUniformMatrix3x2fv@ 0000000140046eb0     raylib:rcore.obj
 0002:00001ec8       ??_C@_0BF@PFLCCJCG@glUniformMatrix3x4fv@ 0000000140046ec8     raylib:rcore.obj
 0002:00001ee0       ??_C@_0BF@MNNMEGEC@glUniformMatrix4x2fv@ 0000000140046ee0     raylib:rcore.obj
 0002:00001ef8       ??_C@_0BF@HFGACBCH@glUniformMatrix4x3fv@ 0000000140046ef8     raylib:rcore.obj
 0002:00001f10       ??_C@_0BJ@EHEPIEPF@glBeginConditionalRender@ 0000000140046f10     raylib:rcore.obj
 0002:00001f30       ??_C@_0BJ@FHJKOECC@glBeginTransformFeedback@ 0000000140046f30     raylib:rcore.obj
 0002:00001f50       ??_C@_0BB@LDPKOCJI@glBindBufferBase@ 0000000140046f50     raylib:rcore.obj
 0002:00001f68       ??_C@_0BC@EEMMCHMB@glBindBufferRange@ 0000000140046f68     raylib:rcore.obj
 0002:00001f80       ??_C@_0BH@DLJLAGBA@glBindFragDataLocation@ 0000000140046f80     raylib:rcore.obj
 0002:00001f98       ??_C@_0BC@CJMIBNO@glBindFramebuffer@ 0000000140046f98     raylib:rcore.obj
 0002:00001fb0       ??_C@_0BD@EPOPJGFA@glBindRenderbuffer@ 0000000140046fb0     raylib:rcore.obj
 0002:00001fc8       ??_C@_0BC@LHBAHFAN@glBindVertexArray@ 0000000140046fc8     raylib:rcore.obj
 0002:00001fe0       ??_C@_0BC@OANBDDEP@glBlitFramebuffer@ 0000000140046fe0     raylib:rcore.obj
 0002:00001ff8       ??_C@_0BJ@GIOLHEAD@glCheckFramebufferStatus@ 0000000140046ff8     raylib:rcore.obj
 0002:00002018       ??_C@_0N@HLGAGIMI@glClampColor@ 0000000140047018     raylib:rcore.obj
 0002:00002028       ??_C@_0BA@OACPENCO@glClearBufferfi@ 0000000140047028     raylib:rcore.obj
 0002:00002038       ??_C@_0BA@CNHFEDLA@glClearBufferfv@ 0000000140047038     raylib:rcore.obj
 0002:00002048       ??_C@_0BA@CGCJAEIN@glClearBufferiv@ 0000000140047048     raylib:rcore.obj
 0002:00002058       ??_C@_0BB@OHPPAEID@glClearBufferuiv@ 0000000140047058     raylib:rcore.obj
 0002:00002070       ??_C@_0N@JHNNNJFG@glColorMaski@ 0000000140047070     raylib:rcore.obj
 0002:00002080       ??_C@_0BF@DJNJENP@glDeleteFramebuffers@ 0000000140047080     raylib:rcore.obj
 0002:00002098       ??_C@_0BG@KKOKEJDE@glDeleteRenderbuffers@ 0000000140047098     raylib:rcore.obj
 0002:000020b0       ??_C@_0BF@BMPCJLEF@glDeleteVertexArrays@ 00000001400470b0     raylib:rcore.obj
 0002:000020c8       ??_C@_0L@BMJPGDDH@glDisablei@ 00000001400470c8     raylib:rcore.obj
 0002:000020d8       ??_C@_09IEGEGIEN@glEnablei@ 00000001400470d8     raylib:rcore.obj
 0002:000020e8       ??_C@_0BH@KCIOLNMA@glEndConditionalRender@ 00000001400470e8     raylib:rcore.obj
 0002:00002100       ??_C@_0BH@LCFLNNBH@glEndTransformFeedback@ 0000000140047100     raylib:rcore.obj
 0002:00002118       ??_C@_0BJ@NCDMGHKF@glFlushMappedBufferRange@ 0000000140047118     raylib:rcore.obj
 0002:00002138       ??_C@_0BK@OJDINAOA@glFramebufferRenderbuffer@ 0000000140047138     raylib:rcore.obj
 0002:00002158       ??_C@_0BH@JAMDNNBM@glFramebufferTexture1D@ 0000000140047158     raylib:rcore.obj
 0002:00002170       ??_C@_0BH@JCIFGDEF@glFramebufferTexture2D@ 0000000140047170     raylib:rcore.obj
 0002:00002188       ??_C@_0BH@JDEHAJHC@glFramebufferTexture3D@ 0000000140047188     raylib:rcore.obj
 0002:000021a0       ??_C@_0BK@NIHIDBBO@glFramebufferTextureLayer@ 00000001400471a0     raylib:rcore.obj
 0002:000021c0       ??_C@_0BC@FAPEBGID@glGenFramebuffers@ 00000001400471c0     raylib:rcore.obj
 0002:000021d8       ??_C@_0BD@MIGEDNGJ@glGenRenderbuffers@ 00000001400471d8     raylib:rcore.obj
 0002:000021f0       ??_C@_0BC@EPJLBJBJ@glGenVertexArrays@ 00000001400471f0     raylib:rcore.obj
 0002:00002208       ??_C@_0BB@BHNIMGDM@glGenerateMipmap@ 0000000140047208     raylib:rcore.obj
 0002:00002220       ??_C@_0BA@OAKNOBP@glGetBooleani_v@ 0000000140047220     raylib:rcore.obj
 0002:00002230       ??_C@_0BG@NDOIGAMC@glGetFragDataLocation@ 0000000140047230     raylib:rcore.obj
 0002:00002248       ??_C@_0CG@KLDGJEON@glGetFramebufferAttachmentParam@ 0000000140047248     raylib:rcore.obj
 0002:00002270       ??_C@_0BA@FKCNNMFO@glGetIntegeri_v@ 0000000140047270     raylib:rcore.obj
 0002:00002280       ??_C@_0BN@FGKAECKO@glGetRenderbufferParameteriv@ 0000000140047280     raylib:rcore.obj
 0002:000022a0       ??_C@_0N@PILJCBOD@glGetStringi@ 00000001400472a0     raylib:rcore.obj
 0002:000022b0       ??_C@_0BF@ODBJFHDD@glGetTexParameterIiv@ 00000001400472b0     raylib:rcore.obj
 0002:000022c8       ??_C@_0BG@MLODKKFL@glGetTexParameterIuiv@ 00000001400472c8     raylib:rcore.obj
 0002:000022e0       ??_C@_0BO@ODFLPNG@glGetTransformFeedbackVarying@ 00000001400472e0     raylib:rcore.obj
 0002:00002300       ??_C@_0BA@NIGECFIF@glGetUniformuiv@ 0000000140047300     raylib:rcore.obj
 0002:00002310       ??_C@_0BF@KPDNEONP@glGetVertexAttribIiv@ 0000000140047310     raylib:rcore.obj
 0002:00002328       ??_C@_0BG@GCBDCABB@glGetVertexAttribIuiv@ 0000000140047328     raylib:rcore.obj
 0002:00002340       ??_C@_0N@IMGKGOKN@glIsEnabledi@ 0000000140047340     raylib:rcore.obj
 0002:00002350       ??_C@_0BA@FGBIJCNH@glIsFramebuffer@ 0000000140047350     raylib:rcore.obj
 0002:00002360       ??_C@_0BB@DGGHKKOH@glIsRenderbuffer@ 0000000140047360     raylib:rcore.obj
 0002:00002378       ??_C@_0BA@ODJEGGAE@glIsVertexArray@ 0000000140047378     raylib:rcore.obj
 0002:00002388       ??_C@_0BB@EOHJGBIO@glMapBufferRange@ 0000000140047388     raylib:rcore.obj
 0002:000023a0       ??_C@_0BG@EOIILGMJ@glRenderbufferStorage@ 00000001400473a0     raylib:rcore.obj
 0002:000023b8       ??_C@_0CB@HNONLGJE@glRenderbufferStorageMultisampl@ 00000001400473b8     raylib:rcore.obj
 0002:000023e0       ??_C@_0BC@MAFJKEHB@glTexParameterIiv@ 00000001400473e0     raylib:rcore.obj
 0002:000023f8       ??_C@_0BD@FDBCMKBE@glTexParameterIuiv@ 00000001400473f8     raylib:rcore.obj
 0002:00002410       ??_C@_0BM@IJFAKBEF@glTransformFeedbackVaryings@ 0000000140047410     raylib:rcore.obj
 0002:00002430       ??_C@_0N@HKPEFJDP@glUniform1ui@ 0000000140047430     raylib:rcore.obj
 0002:00002440       ??_C@_0O@MPHJAHBE@glUniform1uiv@ 0000000140047440     raylib:rcore.obj
 0002:00002450       ??_C@_0N@GIEBPGNB@glUniform2ui@ 0000000140047450     raylib:rcore.obj
 0002:00002460       ??_C@_0O@IINJHNME@glUniform2uiv@ 0000000140047460     raylib:rcore.obj
 0002:00002470       ??_C@_0N@NAPNJBLE@glUniform3ui@ 0000000140047470     raylib:rcore.obj
 0002:00002480       ??_C@_0O@LFLJFEHE@glUniform3uiv@ 0000000140047480     raylib:rcore.obj
 0002:00002490       ??_C@_0N@ENCKKJAN@glUniform4ui@ 0000000140047490     raylib:rcore.obj
 0002:000024a0       ??_C@_0O@HJJIIGE@glUniform4uiv@ 00000001400474a0     raylib:rcore.obj
 0002:000024b0       ??_C@_0BC@CDIIMMAL@glVertexAttribI1i@ 00000001400474b0     raylib:rcore.obj
 0002:000024c8       ??_C@_0BD@OOJEIPDE@glVertexAttribI1iv@ 00000001400474c8     raylib:rcore.obj
 0002:000024e0       ??_C@_0BD@DGPCNLLO@glVertexAttribI1ui@ 00000001400474e0     raylib:rcore.obj
 0002:000024f8       ??_C@_0BE@FFIKLCCA@glVertexAttribI1uiv@ 00000001400474f8     raylib:rcore.obj
 0002:00002510       ??_C@_0BC@CBMOHCFC@glVertexAttribI2i@ 0000000140047510     raylib:rcore.obj
 0002:00002528       ??_C@_0BD@PMCBCANK@glVertexAttribI2iv@ 0000000140047528     raylib:rcore.obj
 0002:00002540       ??_C@_0BD@CEEHHEFA@glVertexAttribI2ui@ 0000000140047540     raylib:rcore.obj
 0002:00002558       ??_C@_0BE@BCCKMIPA@glVertexAttribI2uiv@ 0000000140047558     raylib:rcore.obj
 0002:00002570       ??_C@_0BC@CAAMBIGF@glVertexAttribI3i@ 0000000140047570     raylib:rcore.obj
 0002:00002588       ??_C@_0BD@EEJNEHLP@glVertexAttribI3iv@ 0000000140047588     raylib:rcore.obj
 0002:000025a0       ??_C@_0BD@JMPLBDDF@glVertexAttribI3ui@ 00000001400475a0     raylib:rcore.obj
 0002:000025b8       ??_C@_0BE@CPEKOBEA@glVertexAttribI3uiv@ 00000001400475b8     raylib:rcore.obj
 0002:000025d0       ??_C@_0BD@NFBPJAOH@glVertexAttribI4bv@ 00000001400475d0     raylib:rcore.obj
 0002:000025e8       ??_C@_0BC@CFEDAOOA@glVertexAttribI4i@ 00000001400475e8     raylib:rcore.obj
 0002:00002600       ??_C@_0BD@NJEKHPAG@glVertexAttribI4iv@ 0000000140047600     raylib:rcore.obj
 0002:00002618       ??_C@_0BD@MIPLFJKA@glVertexAttribI4sv@ 0000000140047618     raylib:rcore.obj
 0002:00002630       ??_C@_0BE@JBDPNCLB@glVertexAttribI4ubv@ 0000000140047630     raylib:rcore.obj
 0002:00002648       ??_C@_0BD@BCMCLIM@glVertexAttribI4ui@ 0000000140047648     raylib:rcore.obj
 0002:00002660       ??_C@_0BE@JNGKDNFA@glVertexAttribI4uiv@ 0000000140047660     raylib:rcore.obj
 0002:00002678       ??_C@_0BE@IMNLBLPG@glVertexAttribI4usv@ 0000000140047678     raylib:rcore.obj
 0002:00002690       ??_C@_0BH@NLOEHKCD@glVertexAttribIPointer@ 0000000140047690     raylib:rcore.obj
 0002:000026a8       ??_C@_0BE@EPKABDOG@glCopyBufferSubData@ 00000001400476a8     raylib:rcore.obj
 0002:000026c0       ??_C@_0BG@HIOFINAN@glDrawArraysInstanced@ 00000001400476c0     raylib:rcore.obj
 0002:000026d8       ??_C@_0BI@CGJENFBH@glDrawElementsInstanced@ 00000001400476d8     raylib:rcore.obj
 0002:000026f0       ??_C@_0BM@KEMCJPAJ@glGetActiveUniformBlockName@ 00000001400476f0     raylib:rcore.obj
 0002:00002710       ??_C@_0BK@DMHOPJGL@glGetActiveUniformBlockiv@ 0000000140047710     raylib:rcore.obj
 0002:00002730       ??_C@_0BH@EGGFHKJJ@glGetActiveUniformName@ 0000000140047730     raylib:rcore.obj
 0002:00002748       ??_C@_0BG@JEHIMPCG@glGetActiveUniformsiv@ 0000000140047748     raylib:rcore.obj
 0002:00002760       ??_C@_0BH@CBDIMHHE@glGetUniformBlockIndex@ 0000000140047760     raylib:rcore.obj
 0002:00002778       ??_C@_0BE@MDPMIDEE@glGetUniformIndices@ 0000000140047778     raylib:rcore.obj
 0002:00002790       ??_C@_0BI@LJDLNGAF@glPrimitiveRestartIndex@ 0000000140047790     raylib:rcore.obj
 0002:000027a8       ??_C@_0M@IIMBBALL@glTexBuffer@ 00000001400477a8     raylib:rcore.obj
 0002:000027b8       ??_C@_0BG@BOLEKKCP@glUniformBlockBinding@ 00000001400477b8     raylib:rcore.obj
 0002:000027d0       ??_C@_0BB@KDMPGJAC@glClientWaitSync@ 00000001400477d0     raylib:rcore.obj
 0002:000027e8       ??_C@_0N@PIFDNDFG@glDeleteSync@ 00000001400477e8     raylib:rcore.obj
 0002:000027f8       ??_C@_0BJ@LFMMIAHA@glDrawElementsBaseVertex@ 00000001400477f8     raylib:rcore.obj
 0002:00002818       ??_C@_0CC@KLOIIKNA@glDrawElementsInstancedBaseVert@ 0000000140047818     raylib:rcore.obj
 0002:00002840       ??_C@_0BO@KBDDBILP@glDrawRangeElementsBaseVertex@ 0000000140047840     raylib:rcore.obj
 0002:00002860       ??_C@_0M@EFGFPFLP@glFenceSync@ 0000000140047860     raylib:rcore.obj
 0002:00002870       ??_C@_0BF@ENLMLILA@glFramebufferTexture@ 0000000140047870     raylib:rcore.obj
 0002:00002888       ??_C@_0BJ@KKBIDGPP@glGetBufferParameteri64v@ 0000000140047888     raylib:rcore.obj
 0002:000028a8       ??_C@_0BC@KOJILIEC@glGetInteger64i_v@ 00000001400478a8     raylib:rcore.obj
 0002:000028c0       ??_C@_0BA@INMBOHGL@glGetInteger64v@ 00000001400478c0     raylib:rcore.obj
 0002:000028d0       ??_C@_0BD@DHLIMGN@glGetMultisamplefv@ 00000001400478d0     raylib:rcore.obj
 0002:000028e8       ??_C@_0M@MPEEOPIN@glGetSynciv@ 00000001400478e8     raylib:rcore.obj
 0002:000028f8       ??_C@_08JPIIHJEO@glIsSync@ 00000001400478f8     raylib:rcore.obj
 0002:00002908       ??_C@_0BO@NAPFJEEK@glMultiDrawElementsBaseVertex@ 0000000140047908     raylib:rcore.obj
 0002:00002928       ??_C@_0BC@ECOAPEBI@glProvokingVertex@ 0000000140047928     raylib:rcore.obj
 0002:00002940       ??_C@_0O@JNHBCHMB@glSampleMaski@ 0000000140047940     raylib:rcore.obj
 0002:00002950       ??_C@_0BI@FHDFLFA@glTexImage2DMultisample@ 0000000140047950     raylib:rcore.obj
 0002:00002968       ??_C@_0BI@JIHMLKCG@glTexImage3DMultisample@ 0000000140047968     raylib:rcore.obj
 0002:00002980       ??_C@_0L@MHLOGHGO@glWaitSync@ 0000000140047980     raylib:rcore.obj
 0002:00002990       ??_C@_0BO@POJBGCGG@glBindFragDataLocationIndexed@ 0000000140047990     raylib:rcore.obj
 0002:000029b0       ??_C@_0O@PDEILAPG@glBindSampler@ 00000001400479b0     raylib:rcore.obj
 0002:000029c0       ??_C@_0BB@FLPAOEOO@glDeleteSamplers@ 00000001400479c0     raylib:rcore.obj
 0002:000029d8       ??_C@_0O@EMMLGGLG@glGenSamplers@ 00000001400479d8     raylib:rcore.obj
 0002:000029e8       ??_C@_0BD@COCJFEOH@glGetFragDataIndex@ 00000001400479e8     raylib:rcore.obj
 0002:00002a00       ??_C@_0BF@JDAPDEPE@glGetQueryObjecti64v@ 0000000140047a00     raylib:rcore.obj
 0002:00002a18       ??_C@_0BG@NEGGOMJO@glGetQueryObjectui64v@ 0000000140047a18     raylib:rcore.obj
 0002:00002a30       ??_C@_0BJ@KOMJDLDN@glGetSamplerParameterIiv@ 0000000140047a30     raylib:rcore.obj
 0002:00002a50       ??_C@_0BK@CMBGFHDA@glGetSamplerParameterIuiv@ 0000000140047a50     raylib:rcore.obj
 0002:00002a70       ??_C@_0BI@FPHMKMKC@glGetSamplerParameterfv@ 0000000140047a70     raylib:rcore.obj
 0002:00002a88       ??_C@_0BI@FECAOLJP@glGetSamplerParameteriv@ 0000000140047a88     raylib:rcore.obj
 0002:00002aa0       ??_C@_0M@LAJKHOKJ@glIsSampler@ 0000000140047aa0     raylib:rcore.obj
 0002:00002ab0       ??_C@_0P@KALICDIM@glQueryCounter@ 0000000140047ab0     raylib:rcore.obj
 0002:00002ac0       ??_C@_0BG@HKEIFIHF@glSamplerParameterIiv@ 0000000140047ac0     raylib:rcore.obj
 0002:00002ad8       ??_C@_0BH@FEMFBPPB@glSamplerParameterIuiv@ 0000000140047ad8     raylib:rcore.obj
 0002:00002af0       ??_C@_0BE@CGLJNDFB@glSamplerParameterf@ 0000000140047af0     raylib:rcore.obj
 0002:00002b08       ??_C@_0BF@GFCPAGMB@glSamplerParameterfv@ 0000000140047b08     raylib:rcore.obj
 0002:00002b20       ??_C@_0BE@KBCBMPJO@glSamplerParameteri@ 0000000140047b20     raylib:rcore.obj
 0002:00002b38       ??_C@_0BF@GOHDEBPM@glSamplerParameteriv@ 0000000140047b38     raylib:rcore.obj
 0002:00002b50       ??_C@_0BG@NEBMAEHM@glVertexAttribDivisor@ 0000000140047b50     raylib:rcore.obj
 0002:00002b68       ??_C@_0BD@FLACCOEN@glVertexAttribP1ui@ 0000000140047b68     raylib:rcore.obj
 0002:00002b80       ??_C@_0BE@HBFDOBHD@glVertexAttribP1uiv@ 0000000140047b80     raylib:rcore.obj
 0002:00002b98       ??_C@_0BD@EJLHIBKD@glVertexAttribP2ui@ 0000000140047b98     raylib:rcore.obj
 0002:00002bb0       ??_C@_0BE@DGPDJLKD@glVertexAttribP2uiv@ 0000000140047bb0     raylib:rcore.obj
 0002:00002bc8       ??_C@_0BD@PBALOGMG@glVertexAttribP3ui@ 0000000140047bc8     raylib:rcore.obj
 0002:00002be0       ??_C@_0BE@LJDLCBD@glVertexAttribP3uiv@ 0000000140047be0     raylib:rcore.obj
 0002:00002bf8       ??_C@_0BD@GMNMNOHP@glVertexAttribP4ui@ 0000000140047bf8     raylib:rcore.obj
 0002:00002c10       ??_C@_0BE@LJLDGOAD@glVertexAttribP4uiv@ 0000000140047c10     raylib:rcore.obj
 0002:00002c28       ??_C@_0BE@BDKPJDEE@glBeginQueryIndexed@ 0000000140047c28     raylib:rcore.obj
 0002:00002c40       ??_C@_0BI@BPJKLMIG@glBindTransformFeedback@ 0000000140047c40     raylib:rcore.obj
 0002:00002c58       ??_C@_0BJ@FNMBAGAC@glBlendEquationSeparatei@ 0000000140047c58     raylib:rcore.obj
 0002:00002c78       ??_C@_0BB@MKHLNEOM@glBlendEquationi@ 0000000140047c78     raylib:rcore.obj
 0002:00002c90       ??_C@_0BF@PDDGKNBJ@glBlendFuncSeparatei@ 0000000140047c90     raylib:rcore.obj
 0002:00002ca8       ??_C@_0N@IKKELNNP@glBlendFunci@ 0000000140047ca8     raylib:rcore.obj
 0002:00002cb8       ??_C@_0BL@DIGEBFBK@glDeleteTransformFeedbacks@ 0000000140047cb8     raylib:rcore.obj
 0002:00002cd8       ??_C@_0BF@BGDCPAEP@glDrawArraysIndirect@ 0000000140047cd8     raylib:rcore.obj
 0002:00002cf0       ??_C@_0BH@LJJDOEDH@glDrawElementsIndirect@ 0000000140047cf0     raylib:rcore.obj
 0002:00002d08       ??_C@_0BI@LEOILCPN@glDrawTransformFeedback@ 0000000140047d08     raylib:rcore.obj
 0002:00002d20       ??_C@_0BO@IGLFNCDG@glDrawTransformFeedbackStream@ 0000000140047d20     raylib:rcore.obj
 0002:00002d40       ??_C@_0BC@DPMHMNME@glEndQueryIndexed@ 0000000140047d40     raylib:rcore.obj
 0002:00002d58       ??_C@_0BI@KANKBGAE@glGenTransformFeedbacks@ 0000000140047d58     raylib:rcore.obj
 0002:00002d70       ??_C@_0BK@JPHEACLL@glGetActiveSubroutineName@ 0000000140047d70     raylib:rcore.obj
 0002:00002d90       ??_C@_0CB@KCFFPCGJ@glGetActiveSubroutineUniformNam@ 0000000140047d90     raylib:rcore.obj
 0002:00002db8       ??_C@_0BP@FAPFAJFP@glGetActiveSubroutineUniformiv@ 0000000140047db8     raylib:rcore.obj
 0002:00002dd8       ??_C@_0BE@LOKJCDFH@glGetProgramStageiv@ 0000000140047dd8     raylib:rcore.obj
 0002:00002df0       ??_C@_0BE@CCFJPMFI@glGetQueryIndexediv@ 0000000140047df0     raylib:rcore.obj
 0002:00002e08       ??_C@_0BF@ONDIGCJG@glGetSubroutineIndex@ 0000000140047e08     raylib:rcore.obj
 0002:00002e20       ??_C@_0BP@IBIPLDOA@glGetSubroutineUniformLocation@ 0000000140047e20     raylib:rcore.obj
 0002:00002e40       ??_C@_0BK@BLMOFAGJ@glGetUniformSubroutineuiv@ 0000000140047e40     raylib:rcore.obj
 0002:00002e60       ??_C@_0P@NGEMHI@glGetUniformdv@ 0000000140047e60     raylib:rcore.obj
 0002:00002e70       ??_C@_0BG@BGFLKHBM@glIsTransformFeedback@ 0000000140047e70     raylib:rcore.obj
 0002:00002e88       ??_C@_0BD@EDGCEBP@glMinSampleShading@ 0000000140047e88     raylib:rcore.obj
 0002:00002ea0       ??_C@_0BD@LJKINJKN@glPatchParameterfv@ 0000000140047ea0     raylib:rcore.obj
 0002:00002eb8       ??_C@_0BC@PAPDGMLA@glPatchParameteri@ 0000000140047eb8     raylib:rcore.obj
 0002:00002ed0       ??_C@_0BJ@FFNLKBCB@glPauseTransformFeedback@ 0000000140047ed0     raylib:rcore.obj
 0002:00002ef0       ??_C@_0BK@JMHONFHF@glResumeTransformFeedback@ 0000000140047ef0     raylib:rcore.obj
 0002:00002f10       ??_C@_0M@PJLEGNGH@glUniform1d@ 0000000140047f10     raylib:rcore.obj
 0002:00002f20       ??_C@_0N@KKEKJOOG@glUniform1dv@ 0000000140047f20     raylib:rcore.obj
 0002:00002f30       ??_C@_0M@PLPCNDDO@glUniform2d@ 0000000140047f30     raylib:rcore.obj
 0002:00002f40       ??_C@_0N@LIPPDBAI@glUniform2dv@ 0000000140047f40     raylib:rcore.obj
 0002:00002f50       ??_C@_0M@PKDALJAJ@glUniform3d@ 0000000140047f50     raylib:rcore.obj
 0002:00002f60       ??_C@_0N@EDFGGN@glUniform3dv@ 0000000140047f60     raylib:rcore.obj
 0002:00002f70       ??_C@_0M@PPHPKPIM@glUniform4d@ 0000000140047f70     raylib:rcore.obj
 0002:00002f80       ??_C@_0N@JNJEGONE@glUniform4dv@ 0000000140047f80     raylib:rcore.obj
 0002:00002f90       ??_C@_0BD@JLJNJPBN@glUniformMatrix2dv@ 0000000140047f90     raylib:rcore.obj
 0002:00002fa8       ??_C@_0BF@KALNBGFE@glUniformMatrix2x3dv@ 0000000140047fa8     raylib:rcore.obj
 0002:00002fc0       ??_C@_0BF@DNGKCOON@glUniformMatrix2x4dv@ 0000000140047fc0     raylib:rcore.obj
 0002:00002fd8       ??_C@_0BD@CDCBPIHI@glUniformMatrix3dv@ 0000000140047fd8     raylib:rcore.obj
 0002:00002ff0       ??_C@_0BF@NDFNKCJE@glUniformMatrix3x2dv@ 0000000140047ff0     raylib:rcore.obj
 0002:00003008       ??_C@_0BF@PGDGPNEI@glUniformMatrix3x4dv@ 0000000140048008     raylib:rcore.obj
 0002:00003020       ??_C@_0BD@LOPGMAMB@glUniformMatrix4dv@ 0000000140048020     raylib:rcore.obj
 0002:00003038       ??_C@_0BF@MOFIJCCM@glUniformMatrix4x2dv@ 0000000140048038     raylib:rcore.obj
 0002:00003050       ??_C@_0BF@HGOEPFEJ@glUniformMatrix4x3dv@ 0000000140048050     raylib:rcore.obj
 0002:00003068       ??_C@_0BI@CDPOBBHI@glUniformSubroutinesuiv@ 0000000140048068     raylib:rcore.obj
 0002:00003080       ??_C@_0BG@IAIOGMEB@glActiveShaderProgram@ 0000000140048080     raylib:rcore.obj
 0002:00003098       ??_C@_0BG@GLPOKNCG@glBindProgramPipeline@ 0000000140048098     raylib:rcore.obj
 0002:000030b0       ??_C@_0O@FMBMCDIL@glClearDepthf@ 00000001400480b0     raylib:rcore.obj
 0002:000030c0       ??_C@_0BH@BOJGDFJN@glCreateShaderProgramv@ 00000001400480c0     raylib:rcore.obj
 0002:000030d8       ??_C@_0BJ@CHBGABHE@glDeleteProgramPipelines@ 00000001400480d8     raylib:rcore.obj
 0002:000030f8       ??_C@_0BD@JLCIOMKN@glDepthRangeArrayv@ 00000001400480f8     raylib:rcore.obj
 0002:00003110       ??_C@_0BE@FMCFIJBP@glDepthRangeIndexed@ 0000000140048110     raylib:rcore.obj
 0002:00003128       ??_C@_0O@JDFJDNND@glDepthRangef@ 0000000140048128     raylib:rcore.obj
 0002:00003138       ??_C@_0BG@CCBKOCA@glGenProgramPipelines@ 0000000140048138     raylib:rcore.obj
 0002:00003150       ??_C@_0P@PDJCBGIA@glGetDoublei_v@ 0000000140048150     raylib:rcore.obj
 0002:00003160       ??_C@_0O@JKEOHGC@glGetFloati_v@ 0000000140048160     raylib:rcore.obj
 0002:00003170       ??_C@_0BD@JBCEHKON@glGetProgramBinary@ 0000000140048170     raylib:rcore.obj
 0002:00003188       ??_C@_0BM@BFFCFFFG@glGetProgramPipelineInfoLog@ 0000000140048188     raylib:rcore.obj
 0002:000031a8       ??_C@_0BH@DNOPNJMO@glGetProgramPipelineiv@ 00000001400481a8     raylib:rcore.obj
 0002:000031c0       ??_C@_0BL@MLAOOHPD@glGetShaderPrecisionFormat@ 00000001400481c0     raylib:rcore.obj
 0002:000031e0       ??_C@_0BF@JADLCNLO@glGetVertexAttribLdv@ 00000001400481e0     raylib:rcore.obj
 0002:000031f8       ??_C@_0BE@DLHPDHCH@glIsProgramPipeline@ 00000001400481f8     raylib:rcore.obj
 0002:00003210       ??_C@_0BA@MIIDHOO@glProgramBinary@ 0000000140048210     raylib:rcore.obj
 0002:00003220       ??_C@_0BE@EELDBEME@glProgramParameteri@ 0000000140048220     raylib:rcore.obj
 0002:00003238       ??_C@_0BD@JLIFLIMB@glProgramUniform1d@ 0000000140048238     raylib:rcore.obj
 0002:00003250       ??_C@_0BE@JFJNKJOO@glProgramUniform1dv@ 0000000140048250     raylib:rcore.obj
 0002:00003268       ??_C@_0BD@KJLDNKED@glProgramUniform1f@ 0000000140048268     raylib:rcore.obj
 0002:00003280       ??_C@_0BE@JGBJHNIA@glProgramUniform1fv@ 0000000140048280     raylib:rcore.obj
 0002:00003298       ??_C@_0BD@COCLMGIM@glProgramUniform1i@ 0000000140048298     raylib:rcore.obj
 0002:000032b0       ??_C@_0BE@JNEFDKLN@glProgramUniform1iv@ 00000001400482b0     raylib:rcore.obj
 0002:000032c8       ??_C@_0BE@EFCDGODH@glProgramUniform1ui@ 00000001400482c8     raylib:rcore.obj
 0002:000032e0       ??_C@_0BF@MBJNFIBB@glProgramUniform1uiv@ 00000001400482e0     raylib:rcore.obj
 0002:000032f8       ??_C@_0BD@JJMDAGJI@glProgramUniform2d@ 00000001400482f8     raylib:rcore.obj
 0002:00003310       ??_C@_0BE@IHCIAGAA@glProgramUniform2dv@ 0000000140048310     raylib:rcore.obj
 0002:00003328       ??_C@_0BD@KLPFGEBK@glProgramUniform2f@ 0000000140048328     raylib:rcore.obj
 0002:00003340       ??_C@_0BE@IEKMNCGO@glProgramUniform2fv@ 0000000140048340     raylib:rcore.obj
 0002:00003358       ??_C@_0BD@CMGNHINF@glProgramUniform2i@ 0000000140048358     raylib:rcore.obj
 0002:00003370       ??_C@_0BE@IPPAJFFD@glProgramUniform2iv@ 0000000140048370     raylib:rcore.obj
 0002:00003388       ??_C@_0BE@FHJGMBNJ@glProgramUniform2ui@ 0000000140048388     raylib:rcore.obj
 0002:000033a0       ??_C@_0BF@IGDNCCMB@glProgramUniform2uiv@ 00000001400483a0     raylib:rcore.obj
 0002:000033b8       ??_C@_0BD@JIABGMKP@glProgramUniform3d@ 00000001400483b8     raylib:rcore.obj
 0002:000033d0       ??_C@_0BE@DPJEGBGF@glProgramUniform3dv@ 00000001400483d0     raylib:rcore.obj
 0002:000033e8       ??_C@_0BD@KKDHAOCN@glProgramUniform3f@ 00000001400483e8     raylib:rcore.obj
 0002:00003400       ??_C@_0BE@DMBALFAL@glProgramUniform3fv@ 0000000140048400     raylib:rcore.obj
 0002:00003418       ??_C@_0BD@CNKPBCOC@glProgramUniform3i@ 0000000140048418     raylib:rcore.obj
 0002:00003430       ??_C@_0BE@DHEMPCDG@glProgramUniform3iv@ 0000000140048430     raylib:rcore.obj
 0002:00003448       ??_C@_0BE@OPCKKGLM@glProgramUniform3ui@ 0000000140048448     raylib:rcore.obj
 0002:00003460       ??_C@_0BF@LLFNALHB@glProgramUniform3uiv@ 0000000140048460     raylib:rcore.obj
 0002:00003478       ??_C@_0BD@JNEOHKCK@glProgramUniform4d@ 0000000140048478     raylib:rcore.obj
 0002:00003490       ??_C@_0BE@KCEDFJNM@glProgramUniform4dv@ 0000000140048490     raylib:rcore.obj
 0002:000034a8       ??_C@_0BD@KPHIBIKI@glProgramUniform4f@ 00000001400484a8     raylib:rcore.obj
 0002:000034c0       ??_C@_0BE@KBMHINLC@glProgramUniform4fv@ 00000001400484c0     raylib:rcore.obj
 0002:000034d8       ??_C@_0BD@CIOAAEGH@glProgramUniform4i@ 00000001400484d8     raylib:rcore.obj
 0002:000034f0       ??_C@_0BE@KKJLMKIP@glProgramUniform4iv@ 00000001400484f0     raylib:rcore.obj
 0002:00003508       ??_C@_0BE@HCPNJOAF@glProgramUniform4ui@ 0000000140048508     raylib:rcore.obj
 0002:00003520       ??_C@_0BF@JHNNHGB@glProgramUniform4uiv@ 0000000140048520     raylib:rcore.obj
 0002:00003538       ??_C@_0BK@PAHLFKGL@glProgramUniformMatrix2dv@ 0000000140048538     raylib:rcore.obj
 0002:00003558       ??_C@_0BK@PDPPIOAF@glProgramUniformMatrix2fv@ 0000000140048558     raylib:rcore.obj
 0002:00003578       ??_C@_0BM@DCNGJFPN@glProgramUniformMatrix2x3dv@ 0000000140048578     raylib:rcore.obj
 0002:00003598       ??_C@_0BM@DBFCEBJD@glProgramUniformMatrix2x3fv@ 0000000140048598     raylib:rcore.obj
 0002:000035b8       ??_C@_0BM@KPABKNEE@glProgramUniformMatrix2x4dv@ 00000001400485b8     raylib:rcore.obj
 0002:000035d8       ??_C@_0BM@KMIFHJCK@glProgramUniformMatrix2x4fv@ 00000001400485d8     raylib:rcore.obj
 0002:000035f8       ??_C@_0BK@EIMHDNAO@glProgramUniformMatrix3dv@ 00000001400485f8     raylib:rcore.obj
 0002:00003618       ??_C@_0BK@ELEDOJGA@glProgramUniformMatrix3fv@ 0000000140048618     raylib:rcore.obj
 0002:00003638       ??_C@_0BM@EBDGCBDN@glProgramUniformMatrix3x2dv@ 0000000140048638     raylib:rcore.obj
 0002:00003658       ??_C@_0BM@ECLCPFFD@glProgramUniformMatrix3x2fv@ 0000000140048658     raylib:rcore.obj
 0002:00003678       ??_C@_0BM@GEFNHOOB@glProgramUniformMatrix3x4dv@ 0000000140048678     raylib:rcore.obj
 0002:00003698       ??_C@_0BM@GHNJKKIP@glProgramUniformMatrix3x4fv@ 0000000140048698     raylib:rcore.obj
 0002:000036b8       ??_C@_0BK@NFBAAFLH@glProgramUniformMatrix4dv@ 00000001400486b8     raylib:rcore.obj
 0002:000036d8       ??_C@_0BK@NGJENBNJ@glProgramUniformMatrix4fv@ 00000001400486d8     raylib:rcore.obj
 0002:000036f8       ??_C@_0BM@FMDDBBIF@glProgramUniformMatrix4x2dv@ 00000001400486f8     raylib:rcore.obj
 0002:00003718       ??_C@_0BM@FPLHMFOL@glProgramUniformMatrix4x2fv@ 0000000140048718     raylib:rcore.obj
 0002:00003738       ??_C@_0BM@OEIPHGOA@glProgramUniformMatrix4x3dv@ 0000000140048738     raylib:rcore.obj
 0002:00003758       ??_C@_0BM@OHALKCIO@glProgramUniformMatrix4x3fv@ 0000000140048758     raylib:rcore.obj
 0002:00003778       ??_C@_0BI@HGKABJPJ@glReleaseShaderCompiler@ 0000000140048778     raylib:rcore.obj
 0002:00003790       ??_C@_0BA@BMNFINIA@glScissorArrayv@ 0000000140048790     raylib:rcore.obj
 0002:000037a0       ??_C@_0BB@BJHNCIAL@glScissorIndexed@ 00000001400487a0     raylib:rcore.obj
 0002:000037b8       ??_C@_0BC@OOKOHKNA@glScissorIndexedv@ 00000001400487b8     raylib:rcore.obj
 0002:000037d0       ??_C@_0P@IMINELFB@glShaderBinary@ 00000001400487d0     raylib:rcore.obj
 0002:000037e0       ??_C@_0BD@CADKHDMH@glUseProgramStages@ 00000001400487e0     raylib:rcore.obj
 0002:000037f8       ??_C@_0BK@HHHCKEGH@glValidateProgramPipeline@ 00000001400487f8     raylib:rcore.obj
 0002:00003818       ??_C@_0BC@KBPIECHE@glVertexAttribL1d@ 0000000140048818     raylib:rcore.obj
 0002:00003830       ??_C@_0BD@COKMJDBH@glVertexAttribL1dv@ 0000000140048830     raylib:rcore.obj
 0002:00003848       ??_C@_0BC@KDLOPMCN@glVertexAttribL2d@ 0000000140048848     raylib:rcore.obj
 0002:00003860       ??_C@_0BD@DMBJDMPJ@glVertexAttribL2dv@ 0000000140048860     raylib:rcore.obj
 0002:00003878       ??_C@_0BC@KCHMJGBK@glVertexAttribL3d@ 0000000140048878     raylib:rcore.obj
 0002:00003890       ??_C@_0BD@IEKFFLJM@glVertexAttribL3dv@ 0000000140048890     raylib:rcore.obj
 0002:000038a8       ??_C@_0BC@KHDDIAJP@glVertexAttribL4d@ 00000001400488a8     raylib:rcore.obj
 0002:000038c0       ??_C@_0BD@BJHCGDCF@glVertexAttribL4dv@ 00000001400488c0     raylib:rcore.obj
 0002:000038d8       ??_C@_0BH@JBHDDPGM@glVertexAttribLPointer@ 00000001400488d8     raylib:rcore.obj
 0002:000038f0       ??_C@_0BB@JIDIDPIB@glViewportArrayv@ 00000001400488f0     raylib:rcore.obj
 0002:00003908       ??_C@_0BD@JIBIAPIN@glViewportIndexedf@ 0000000140048908     raylib:rcore.obj
 0002:00003920       ??_C@_0BE@OKPEDJOC@glViewportIndexedfv@ 0000000140048920     raylib:rcore.obj
 0002:00003938       ??_C@_0BD@GAKEPNGD@glBindImageTexture@ 0000000140048938     raylib:rcore.obj
 0002:00003950       ??_C@_0CC@FBJBJHCN@glDrawArraysInstancedBaseInstan@ 0000000140048950     raylib:rcore.obj
 0002:00003978       ??_C@_0CE@NGNINKJD@glDrawElementsInstancedBaseInst@ 0000000140048978     raylib:rcore.obj
 0002:000039a0       ??_C@_0CO@GCMNEAOA@glDrawElementsInstancedBaseVert@ 00000001400489a0     raylib:rcore.obj
 0002:000039d0       ??_C@_0CB@NDMLCEF@glDrawTransformFeedbackInstance@ 00000001400489d0     raylib:rcore.obj
 0002:000039f8       ??_C@_0CH@OMPFKBLK@glDrawTransformFeedbackStreamIn@ 00000001400489f8     raylib:rcore.obj
 0002:00003a20       ??_C@_0CB@CEHFMJFN@glGetActiveAtomicCounterBufferi@ 0000000140048a20     raylib:rcore.obj
 0002:00003a48       ??_C@_0BG@BAOCDJPF@glGetInternalformativ@ 0000000140048a48     raylib:rcore.obj
 0002:00003a60       ??_C@_0BA@HIHPNLBJ@glMemoryBarrier@ 0000000140048a60     raylib:rcore.obj
 0002:00003a70       ??_C@_0P@LCLGPEBO@glTexStorage1D@ 0000000140048a70     raylib:rcore.obj
 0002:00003a80       ??_C@_0P@LAPAEKEH@glTexStorage2D@ 0000000140048a80     raylib:rcore.obj
 0002:00003a90       ??_C@_0P@LBDCCAHA@glTexStorage3D@ 0000000140048a90     raylib:rcore.obj
 0002:00003aa0       ??_C@_0BD@FCGJAOHG@glBindVertexBuffer@ 0000000140048aa0     raylib:rcore.obj
 0002:00003ab8       ??_C@_0BC@FCMBBKMP@glClearBufferData@ 0000000140048ab8     raylib:rcore.obj
 0002:00003ad0       ??_C@_0BF@FDHIBCMD@glClearBufferSubData@ 0000000140048ad0     raylib:rcore.obj
 0002:00003ae8       ??_C@_0BD@BNCHOBBL@glCopyImageSubData@ 0000000140048ae8     raylib:rcore.obj
 0002:00003b00       ??_C@_0BH@IGFENJCI@glDebugMessageCallback@ 0000000140048b00     raylib:rcore.obj
 0002:00003b18       ??_C@_0BG@MNBDCEEP@glDebugMessageControl@ 0000000140048b18     raylib:rcore.obj
 0002:00003b30       ??_C@_0BF@DGOJNFDO@glDebugMessageInsert@ 0000000140048b30     raylib:rcore.obj
 0002:00003b48       ??_C@_0BC@DKKFFIGC@glDispatchCompute@ 0000000140048b48     raylib:rcore.obj
 0002:00003b60       ??_C@_0BK@EJMOGMMI@glDispatchComputeIndirect@ 0000000140048b60     raylib:rcore.obj
 0002:00003b80       ??_C@_0BI@MLACHGDK@glFramebufferParameteri@ 0000000140048b80     raylib:rcore.obj
 0002:00003b98       ??_C@_0BF@FGBMJKND@glGetDebugMessageLog@ 0000000140048b98     raylib:rcore.obj
 0002:00003bb0       ??_C@_0BM@BFEEFCMK@glGetFramebufferParameteriv@ 0000000140048bb0     raylib:rcore.obj
 0002:00003bd0       ??_C@_0BI@PHNNEGBD@glGetInternalformati64v@ 0000000140048bd0     raylib:rcore.obj
 0002:00003be8       ??_C@_0BB@MOEDHKDB@glGetObjectLabel@ 0000000140048be8     raylib:rcore.obj
 0002:00003c00       ??_C@_0BE@MIJFJOHM@glGetObjectPtrLabel@ 0000000140048c00     raylib:rcore.obj
 0002:00003c18       ??_C@_0BI@ICGPDPK@glGetProgramInterfaceiv@ 0000000140048c18     raylib:rcore.obj
 0002:00003c30       ??_C@_0BK@DBDCONKB@glGetProgramResourceIndex@ 0000000140048c30     raylib:rcore.obj
 0002:00003c50       ??_C@_0BN@BIJNENLC@glGetProgramResourceLocation@ 0000000140048c50     raylib:rcore.obj
 0002:00003c70       ??_C@_0CC@GHECGAIH@glGetProgramResourceLocationInd@ 0000000140048c70     raylib:rcore.obj
 0002:00003c98       ??_C@_0BJ@OHCPEAGJ@glGetProgramResourceName@ 0000000140048c98     raylib:rcore.obj
 0002:00003cb8       ??_C@_0BH@LEDFEPHI@glGetProgramResourceiv@ 0000000140048cb8     raylib:rcore.obj
 0002:00003cd0       ??_C@_0BH@OGIFIBHA@glInvalidateBufferData@ 0000000140048cd0     raylib:rcore.obj
 0002:00003ce8       ??_C@_0BK@HOHOHNAC@glInvalidateBufferSubData@ 0000000140048ce8     raylib:rcore.obj
 0002:00003d08       ??_C@_0BI@OAJPOHIP@glInvalidateFramebuffer@ 0000000140048d08     raylib:rcore.obj
 0002:00003d20       ??_C@_0BL@IHGLAPPE@glInvalidateSubFramebuffer@ 0000000140048d20     raylib:rcore.obj
 0002:00003d40       ??_C@_0BF@KHIECPKG@glInvalidateTexImage@ 0000000140048d40     raylib:rcore.obj
 0002:00003d58       ??_C@_0BI@FJDKFLGL@glInvalidateTexSubImage@ 0000000140048d58     raylib:rcore.obj
 0002:00003d70       ??_C@_0BK@IKGAIKOP@glMultiDrawArraysIndirect@ 0000000140048d70     raylib:rcore.obj
 0002:00003d90       ??_C@_0BM@KHEEFMKO@glMultiDrawElementsIndirect@ 0000000140048d90     raylib:rcore.obj
 0002:00003db0       ??_C@_0O@EFJDECDM@glObjectLabel@ 0000000140048db0     raylib:rcore.obj
 0002:00003dc0       ??_C@_0BB@FBABGDIL@glObjectPtrLabel@ 0000000140048dc0     raylib:rcore.obj
 0002:00003dd8       ??_C@_0BA@PMJBDENK@glPopDebugGroup@ 0000000140048dd8     raylib:rcore.obj
 0002:00003de8       ??_C@_0BB@DEFFBEGJ@glPushDebugGroup@ 0000000140048de8     raylib:rcore.obj
 0002:00003e00       ??_C@_0BM@GDDCNIBO@glShaderStorageBlockBinding@ 0000000140048e00     raylib:rcore.obj
 0002:00003e20       ??_C@_0BB@DPMGLFNI@glTexBufferRange@ 0000000140048e20     raylib:rcore.obj
 0002:00003e38       ??_C@_0BK@PDJAKDKP@glTexStorage2DMultisample@ 0000000140048e38     raylib:rcore.obj
 0002:00003e58       ??_C@_0BK@GOJPECNJ@glTexStorage3DMultisample@ 0000000140048e58     raylib:rcore.obj
 0002:00003e78       ??_C@_0O@BNFDGIMP@glTextureView@ 0000000140048e78     raylib:rcore.obj
 0002:00003e88       ??_C@_0BG@MLFHCGE@glVertexAttribBinding@ 0000000140048e88     raylib:rcore.obj
 0002:00003ea0       ??_C@_0BF@JEIPPBFE@glVertexAttribFormat@ 0000000140048ea0     raylib:rcore.obj
 0002:00003eb8       ??_C@_0BG@KJAHAHDI@glVertexAttribIFormat@ 0000000140048eb8     raylib:rcore.obj
 0002:00003ed0       ??_C@_0BG@OBOHAJFM@glVertexAttribLFormat@ 0000000140048ed0     raylib:rcore.obj
 0002:00003ee8       ??_C@_0BH@GNGCLGOI@glVertexBindingDivisor@ 0000000140048ee8     raylib:rcore.obj
 0002:00003f00       ??_C@_0BI@IDCHHHAI@glMemoryBarrierByRegion@ 0000000140048f00     raylib:rcore.obj
 0002:00003f18       ??_C@_0BK@GDKNFLLH@glPrimitiveBoundingBoxARB@ 0000000140048f18     raylib:rcore.obj
 0002:00003f38       ??_C@_0BA@COBILMHM@glBufferStorage@ 0000000140048f38     raylib:rcore.obj
 0002:00003f48       ??_C@_0BA@FNPOIBAF@glClearTexImage@ 0000000140048f48     raylib:rcore.obj
 0002:00003f58       ??_C@_0BD@CFALBON@glClearTexSubImage@ 0000000140048f58     raylib:rcore.obj
 0002:00003f70       ??_C@_0BA@PBPFKPHF@glClampColorARB@ 0000000140048f70     raylib:rcore.obj
 0002:00003f80       ??_C@_0BO@GJCJOBMI@glDispatchComputeGroupSizeARB@ 0000000140048f80     raylib:rcore.obj
 0002:00003fa0       ??_C@_0BK@IEHNBEGE@glDebugMessageCallbackARB@ 0000000140048fa0     raylib:rcore.obj
 0002:00003fc0       ??_C@_0BJ@IAEPICEJ@glDebugMessageControlARB@ 0000000140048fc0     raylib:rcore.obj
 0002:00003fe0       ??_C@_0BI@IFLDELCL@glDebugMessageInsertARB@ 0000000140048fe0     raylib:rcore.obj
 0002:00003ff8       ??_C@_0BI@JOLPFNOB@glGetDebugMessageLogARB@ 0000000140048ff8     raylib:rcore.obj
 0002:00004010       ??_C@_0BC@NKGMGGNI@glBindTextureUnit@ 0000000140049010     raylib:rcore.obj
 0002:00004028       ??_C@_0BH@FNFDNHAI@glBlitNamedFramebuffer@ 0000000140049028     raylib:rcore.obj
 0002:00004040       ??_C@_0BO@LMABFPGK@glCheckNamedFramebufferStatus@ 0000000140049040     raylib:rcore.obj
 0002:00004060       ??_C@_0BH@KJMLMCB@glClearNamedBufferData@ 0000000140049060     raylib:rcore.obj
 0002:00004078       ??_C@_0BK@BNIDNJBH@glClearNamedBufferSubData@ 0000000140049078     raylib:rcore.obj
 0002:00004098       ??_C@_0BK@BJONNAKJ@glClearNamedFramebufferfi@ 0000000140049098     raylib:rcore.obj
 0002:000040b8       ??_C@_0BK@NELHNODH@glClearNamedFramebufferfv@ 00000001400490b8     raylib:rcore.obj
 0002:000040d8       ??_C@_0BK@NPOLJJAK@glClearNamedFramebufferiv@ 00000001400490d8     raylib:rcore.obj
 0002:000040f8       ??_C@_0BL@JENKNAJN@glClearNamedFramebufferuiv@ 00000001400490f8     raylib:rcore.obj
 0002:00004118       ??_C@_0BO@NIHAIHFC@glCompressedTextureSubImage1D@ 0000000140049118     raylib:rcore.obj
 0002:00004138       ??_C@_0BO@NKDGDJAL@glCompressedTextureSubImage2D@ 0000000140049138     raylib:rcore.obj
 0002:00004158       ??_C@_0BO@NLPEFDDM@glCompressedTextureSubImage3D@ 0000000140049158     raylib:rcore.obj
 0002:00004178       ??_C@_0BJ@MJPDCHND@glCopyNamedBufferSubData@ 0000000140049178     raylib:rcore.obj
 0002:00004198       ??_C@_0BI@DBEKPOLO@glCopyTextureSubImage1D@ 0000000140049198     raylib:rcore.obj
 0002:000041b0       ??_C@_0BI@DDAMEAOH@glCopyTextureSubImage2D@ 00000001400491b0     raylib:rcore.obj
 0002:000041c8       ??_C@_0BI@DCMOCKNA@glCopyTextureSubImage3D@ 00000001400491c8     raylib:rcore.obj
 0002:000041e0       ??_C@_0BA@LNBCEANP@glCreateBuffers@ 00000001400491e0     raylib:rcore.obj
 0002:000041f0       ??_C@_0BF@DDKJIBLC@glCreateFramebuffers@ 00000001400491f0     raylib:rcore.obj
 0002:00004208       ??_C@_0BJ@GJEEIMGK@glCreateProgramPipelines@ 0000000140049208     raylib:rcore.obj
 0002:00004228       ??_C@_0BA@PGNDPLG@glCreateQueries@ 0000000140049228     raylib:rcore.obj
 0002:00004238       ??_C@_0BG@JJNJGAME@glCreateRenderbuffers@ 0000000140049238     raylib:rcore.obj
 0002:00004250       ??_C@_0BB@EHBNEMMP@glCreateSamplers@ 0000000140049250     raylib:rcore.obj
 0002:00004268       ??_C@_0BB@LABGPBKD@glCreateTextures@ 0000000140049268     raylib:rcore.obj
 0002:00004280       ??_C@_0BL@HPCMJLAK@glCreateTransformFeedbacks@ 0000000140049280     raylib:rcore.obj
 0002:000042a0       ??_C@_0BF@CMMGIOCI@glCreateVertexArrays@ 00000001400492a0     raylib:rcore.obj
 0002:000042b8       ??_C@_0BL@FEKBMKFD@glDisableVertexArrayAttrib@ 00000001400492b8     raylib:rcore.obj
 0002:000042d8       ??_C@_0BK@MJMKFCHC@glEnableVertexArrayAttrib@ 00000001400492d8     raylib:rcore.obj
 0002:000042f8       ??_C@_0BO@DBGNKBKH@glFlushMappedNamedBufferRange@ 00000001400492f8     raylib:rcore.obj
 0002:00004318       ??_C@_0BI@JJPLGFEG@glGenerateTextureMipmap@ 0000000140049318     raylib:rcore.obj
 0002:00004330       ??_C@_0BM@JOKODHH@glGetCompressedTextureImage@ 0000000140049330     raylib:rcore.obj
 0002:00004350       ??_C@_0BO@ECJNIDNL@glGetNamedBufferParameteri64v@ 0000000140049350     raylib:rcore.obj
 0002:00004370       ??_C@_0BM@KFAGBFPK@glGetNamedBufferParameteriv@ 0000000140049370     raylib:rcore.obj
 0002:00004390       ??_C@_0BJ@NBEMEIKG@glGetNamedBufferPointerv@ 0000000140049390     raylib:rcore.obj
 0002:000043b0       ??_C@_0BI@PJBCKPNA@glGetNamedBufferSubData@ 00000001400493b0     raylib:rcore.obj
 0002:000043c8       ??_C@_0CL@BGDPEPCC@glGetNamedFramebufferAttachment@ 00000001400493c8     raylib:rcore.obj
 0002:000043f8       ??_C@_0CB@COGAJBEM@glGetNamedFramebufferParameteri@ 00000001400493f8     raylib:rcore.obj
 0002:00004420       ??_C@_0CC@FCEAEAHI@glGetNamedRenderbufferParameter@ 0000000140049420     raylib:rcore.obj
 0002:00004448       ??_C@_0BL@KFECDHBF@glGetQueryBufferObjecti64v@ 0000000140049448     raylib:rcore.obj
 0002:00004468       ??_C@_0BJ@OBIFNHGB@glGetQueryBufferObjectiv@ 0000000140049468     raylib:rcore.obj
 0002:00004488       ??_C@_0BM@DFNHDHD@glGetQueryBufferObjectui64v@ 0000000140049488     raylib:rcore.obj
 0002:000044a8       ??_C@_0BK@EOIEAGAD@glGetQueryBufferObjectuiv@ 00000001400494a8     raylib:rcore.obj
 0002:000044c8       ??_C@_0BC@PJDCJNIH@glGetTextureImage@ 00000001400494c8     raylib:rcore.obj
 0002:000044e0       ??_C@_0BN@HMEFKCC@glGetTextureLevelParameterfv@ 00000001400494e0     raylib:rcore.obj
 0002:00004500       ??_C@_0BN@MJIBNBP@glGetTextureLevelParameteriv@ 0000000140049500     raylib:rcore.obj
 0002:00004520       ??_C@_0BJ@PIPELMMF@glGetTextureParameterIiv@ 0000000140049520     raylib:rcore.obj
 0002:00004540       ??_C@_0BK@JPCGBAJJ@glGetTextureParameterIuiv@ 0000000140049540     raylib:rcore.obj
 0002:00004560       ??_C@_0BI@NBDPHHJH@glGetTextureParameterfv@ 0000000140049560     raylib:rcore.obj
 0002:00004578       ??_C@_0BI@NKGDDAKK@glGetTextureParameteriv@ 0000000140049578     raylib:rcore.obj
 0002:00004590       ??_C@_0BM@KDHFPNLE@glGetTransformFeedbacki64_v@ 0000000140049590     raylib:rcore.obj
 0002:000045b0       ??_C@_0BK@IPHNHFEI@glGetTransformFeedbacki_v@ 00000001400495b0     raylib:rcore.obj
 0002:000045d0       ??_C@_0BJ@OFMLPMDO@glGetTransformFeedbackiv@ 00000001400495d0     raylib:rcore.obj
 0002:000045f0       ??_C@_0BM@HHNNHCN@glGetVertexArrayIndexed64iv@ 00000001400495f0     raylib:rcore.obj
 0002:00004610       ??_C@_0BK@FIIPMDBK@glGetVertexArrayIndexediv@ 0000000140049610     raylib:rcore.obj
 0002:00004630       ??_C@_0BD@CPJNCJFG@glGetVertexArrayiv@ 0000000140049630     raylib:rcore.obj
 0002:00004648       ??_C@_0CB@OGGNKJIL@glInvalidateNamedFramebufferDat@ 0000000140049648     raylib:rcore.obj
 0002:00004670       ??_C@_0CE@DEGDCFND@glInvalidateNamedFramebufferSub@ 0000000140049670     raylib:rcore.obj
 0002:00004698       ??_C@_0BB@JLMCGIDB@glMapNamedBuffer@ 0000000140049698     raylib:rcore.obj
 0002:000046b0       ??_C@_0BG@JLCGKFD@glMapNamedBufferRange@ 00000001400496b0     raylib:rcore.obj
 0002:000046c8       ??_C@_0BC@LHEABGCG@glNamedBufferData@ 00000001400496c8     raylib:rcore.obj
 0002:000046e0       ??_C@_0BF@INMFIINC@glNamedBufferStorage@ 00000001400496e0     raylib:rcore.obj
 0002:000046f8       ??_C@_0BF@MDEBAFLD@glNamedBufferSubData@ 00000001400496f8     raylib:rcore.obj
 0002:00004710       ??_C@_0BN@MOAIHNEF@glNamedFramebufferDrawBuffer@ 0000000140049710     raylib:rcore.obj
 0002:00004730       ??_C@_0BO@CGKJHFH@glNamedFramebufferDrawBuffers@ 0000000140049730     raylib:rcore.obj
 0002:00004750       ??_C@_0BN@LBMOOIHC@glNamedFramebufferParameteri@ 0000000140049750     raylib:rcore.obj
 0002:00004770       ??_C@_0BN@LPANNPJE@glNamedFramebufferReadBuffer@ 0000000140049770     raylib:rcore.obj
 0002:00004790       ??_C@_0BP@MGCPNBGC@glNamedFramebufferRenderbuffer@ 0000000140049790     raylib:rcore.obj
 0002:000047b0       ??_C@_0BK@PNJJLPPI@glNamedFramebufferTexture@ 00000001400497b0     raylib:rcore.obj
 0002:000047d0       ??_C@_0BP@PHGPDAJM@glNamedFramebufferTextureLayer@ 00000001400497d0     raylib:rcore.obj
 0002:000047f0       ??_C@_0BL@DGDPFKGM@glNamedRenderbufferStorage@ 00000001400497f0     raylib:rcore.obj
 0002:00004810       ??_C@_0CG@IDKJGKBA@glNamedRenderbufferStorageMulti@ 0000000140049810     raylib:rcore.obj
 0002:00004838       ??_C@_0BA@BEJOBNBA@glTextureBuffer@ 0000000140049838     raylib:rcore.obj
 0002:00004848       ??_C@_0BF@HAEPGPBJ@glTextureBufferRange@ 0000000140049848     raylib:rcore.obj
 0002:00004860       ??_C@_0BG@CMHFNPIN@glTextureParameterIiv@ 0000000140049860     raylib:rcore.obj
 0002:00004878       ??_C@_0BH@OHPFFIFI@glTextureParameterIuiv@ 0000000140049878     raylib:rcore.obj
 0002:00004890       ??_C@_0BE@NLINBPMM@glTextureParameterf@ 0000000140049890     raylib:rcore.obj
 0002:000048a8       ??_C@_0BF@OLGMNNPE@glTextureParameterfv@ 00000001400498a8     raylib:rcore.obj
 0002:000048c0       ??_C@_0BE@FMBFADAD@glTextureParameteri@ 00000001400498c0     raylib:rcore.obj
 0002:000048d8       ??_C@_0BF@OADAJKMJ@glTextureParameteriv@ 00000001400498d8     raylib:rcore.obj
 0002:000048f0       ??_C@_0BD@CJOBHECL@glTextureStorage1D@ 00000001400498f0     raylib:rcore.obj
 0002:00004908       ??_C@_0BD@CLKHMKHC@glTextureStorage2D@ 0000000140049908     raylib:rcore.obj
 0002:00004920       ??_C@_0BO@CIHBMJOI@glTextureStorage2DMultisample@ 0000000140049920     raylib:rcore.obj
 0002:00004940       ??_C@_0BD@CKGFKAEF@glTextureStorage3D@ 0000000140049940     raylib:rcore.obj
 0002:00004958       ??_C@_0BO@LFHOCIJO@glTextureStorage3DMultisample@ 0000000140049958     raylib:rcore.obj
 0002:00004978       ??_C@_0BE@IDMGLJDA@glTextureSubImage1D@ 0000000140049978     raylib:rcore.obj
 0002:00004990       ??_C@_0BE@IBIAAHGJ@glTextureSubImage2D@ 0000000140049990     raylib:rcore.obj
 0002:000049a8       ??_C@_0BE@IAECGNFO@glTextureSubImage3D@ 00000001400499a8     raylib:rcore.obj
 0002:000049c0       ??_C@_0BO@EGLKNJFA@glTransformFeedbackBufferBase@ 00000001400499c0     raylib:rcore.obj
 0002:000049e0       ??_C@_0BP@NBIGCNHI@glTransformFeedbackBufferRange@ 00000001400499e0     raylib:rcore.obj
 0002:00004a00       ??_C@_0BD@LAAONAHD@glUnmapNamedBuffer@ 0000000140049a00     raylib:rcore.obj
 0002:00004a18       ??_C@_0BL@DJHJAEGB@glVertexArrayAttribBinding@ 0000000140049a18     raylib:rcore.obj
 0002:00004a38       ??_C@_0BK@ONFBAOHM@glVertexArrayAttribFormat@ 0000000140049a38     raylib:rcore.obj
 0002:00004a58       ??_C@_0BL@JMMLHBDN@glVertexArrayAttribIFormat@ 0000000140049a58     raylib:rcore.obj
 0002:00004a78       ??_C@_0BL@NECLHPFJ@glVertexArrayAttribLFormat@ 0000000140049a78     raylib:rcore.obj
 0002:00004a98       ??_C@_0BM@BNDNIOBB@glVertexArrayBindingDivisor@ 0000000140049a98     raylib:rcore.obj
 0002:00004ab8       ??_C@_0BL@GGCAPDMO@glVertexArrayElementBuffer@ 0000000140049ab8     raylib:rcore.obj
 0002:00004ad8       ??_C@_0BK@BIEMNHGJ@glVertexArrayVertexBuffer@ 0000000140049ad8     raylib:rcore.obj
 0002:00004af8       ??_C@_0BL@DAGELPBO@glVertexArrayVertexBuffers@ 0000000140049af8     raylib:rcore.obj
 0002:00004b18       ??_C@_0BB@DLEFHLGI@glDrawBuffersARB@ 0000000140049b18     raylib:rcore.obj
 0002:00004b30       ??_C@_0BM@DHGCGJJC@glBlendEquationSeparateiARB@ 0000000140049b30     raylib:rcore.obj
 0002:00004b50       ??_C@_0BE@MKEGJKA@glBlendEquationiARB@ 0000000140049b50     raylib:rcore.obj
 0002:00004b68       ??_C@_0BI@EJDLCHDA@glBlendFuncSeparateiARB@ 0000000140049b68     raylib:rcore.obj
 0002:00004b80       ??_C@_0BA@IINKCNIC@glBlendFunciARB@ 0000000140049b80     raylib:rcore.obj
 0002:00004b90       ??_C@_0BJ@NIEKILNL@glDrawArraysInstancedARB@ 0000000140049b90     raylib:rcore.obj
 0002:00004bb0       ??_C@_0BL@JMJLDLNF@glDrawElementsInstancedARB@ 0000000140049bb0     raylib:rcore.obj
 0002:00004bd0       ??_C@_0BB@OAGHGJAC@glBindProgramARB@ 0000000140049bd0     raylib:rcore.obj
 0002:00004be8       ??_C@_0BE@EJCMOJPP@glDeleteProgramsARB@ 0000000140049be8     raylib:rcore.obj
 0002:00004c00       ??_C@_0BB@JDDNIFAN@glGenProgramsARB@ 0000000140049c00     raylib:rcore.obj
 0002:00004c18       ??_C@_0BO@NHNBOOKI@glGetProgramEnvParameterdvARB@ 0000000140049c18     raylib:rcore.obj
 0002:00004c38       ??_C@_0BO@JKBJEPKD@glGetProgramEnvParameterfvARB@ 0000000140049c38     raylib:rcore.obj
 0002:00004c58       ??_C@_0CA@IBOBFJKB@glGetProgramLocalParameterdvARB@ 0000000140049c58     raylib:rcore.obj
 0002:00004c78       ??_C@_0CA@MMCJPIKK@glGetProgramLocalParameterfvARB@ 0000000140049c78     raylib:rcore.obj
 0002:00004c98       ??_C@_0BG@OAOKBADO@glGetProgramStringARB@ 0000000140049c98     raylib:rcore.obj
 0002:00004cb0       ??_C@_0BC@OHCOJECC@glGetProgramivARB@ 0000000140049cb0     raylib:rcore.obj
 0002:00004cc8       ??_C@_0P@LKCDEJPE@glIsProgramARB@ 0000000140049cc8     raylib:rcore.obj
 0002:00004cd8       ??_C@_0BL@IFMMBIHE@glProgramEnvParameter4dARB@ 0000000140049cd8     raylib:rcore.obj
 0002:00004cf8       ??_C@_0BM@NICJGLCN@glProgramEnvParameter4dvARB@ 0000000140049cf8     raylib:rcore.obj
 0002:00004d18       ??_C@_0BL@PPAMELBE@glProgramEnvParameter4fARB@ 0000000140049d18     raylib:rcore.obj
 0002:00004d38       ??_C@_0BM@JFOBMKCG@glProgramEnvParameter4fvARB@ 0000000140049d38     raylib:rcore.obj
 0002:00004d58       ??_C@_0BN@ELHLGELC@glProgramLocalParameter4dARB@ 0000000140049d58     raylib:rcore.obj
 0002:00004d78       ??_C@_0BO@KKOALLNE@glProgramLocalParameter4dvARB@ 0000000140049d78     raylib:rcore.obj
 0002:00004d98       ??_C@_0BN@DBLLDHNC@glProgramLocalParameter4fARB@ 0000000140049d98     raylib:rcore.obj
 0002:00004db8       ??_C@_0BO@OHCIBKNP@glProgramLocalParameter4fvARB@ 0000000140049db8     raylib:rcore.obj
 0002:00004dd8       ??_C@_0BD@HIBLHAHB@glProgramStringARB@ 0000000140049dd8     raylib:rcore.obj
 0002:00004df0       ??_C@_0BI@KFEKMNEL@glFramebufferTextureARB@ 0000000140049df0     raylib:rcore.obj
 0002:00004e08       ??_C@_0BM@PJPLFKLO@glFramebufferTextureFaceARB@ 0000000140049e08     raylib:rcore.obj
 0002:00004e28       ??_C@_0BN@OEJIBP@glFramebufferTextureLayerARB@ 0000000140049e28     raylib:rcore.obj
 0002:00004e48       ??_C@_0BH@GELPODLK@glProgramParameteriARB@ 0000000140049e48     raylib:rcore.obj
 0002:00004e60       ??_C@_0BP@BIDENANP@glGetCompressedTextureSubImage@ 0000000140049e60     raylib:rcore.obj
 0002:00004e80       ??_C@_0BF@JEEEKNGB@glGetTextureSubImage@ 0000000140049e80     raylib:rcore.obj
 0002:00004e98       ??_C@_0BG@FJHAHFCB@glSpecializeShaderARB@ 0000000140049e98     raylib:rcore.obj
 0002:00004eb0       ??_C@_0BE@CJMMNNHE@glGetUniformi64vARB@ 0000000140049eb0     raylib:rcore.obj
 0002:00004ec8       ??_C@_0BF@MLHIIBKJ@glGetUniformui64vARB@ 0000000140049ec8     raylib:rcore.obj
 0002:00004ee0       ??_C@_0BF@JCDBOHM@glGetnUniformi64vARB@ 0000000140049ee0     raylib:rcore.obj
 0002:00004ef8       ??_C@_0BG@MFIDOGFI@glGetnUniformui64vARB@ 0000000140049ef8     raylib:rcore.obj
 0002:00004f10       ??_C@_0BI@BAHCFOJD@glProgramUniform1i64ARB@ 0000000140049f10     raylib:rcore.obj
 0002:00004f28       ??_C@_0BJ@OGNCKCLA@glProgramUniform1i64vARB@ 0000000140049f28     raylib:rcore.obj
 0002:00004f48       ??_C@_0BJ@HHKALFKI@glProgramUniform1ui64ARB@ 0000000140049f48     raylib:rcore.obj
 0002:00004f68       ??_C@_0BK@FHLOJJHP@glProgramUniform1ui64vARB@ 0000000140049f68     raylib:rcore.obj
 0002:00004f88       ??_C@_0BI@JOPNFJHA@glProgramUniform2i64ARB@ 0000000140049f88     raylib:rcore.obj
 0002:00004fa0       ??_C@_0BJ@NPFPJOHF@glProgramUniform2i64vARB@ 0000000140049fa0     raylib:rcore.obj
 0002:00004fc0       ??_C@_0BJ@EOCNIJGN@glProgramUniform2ui64ARB@ 0000000140049fc0     raylib:rcore.obj
 0002:00004fe0       ??_C@_0BK@LMIJCCHM@glProgramUniform2ui64vARB@ 0000000140049fe0     raylib:rcore.obj
 0002:00005000       ??_C@_0BI@FCFHFJOO@glProgramUniform3i64ARB@ 000000014004a000     raylib:rcore.obj
 0002:00005018       ??_C@_0BJ@MICEIKDG@glProgramUniform3i64vARB@ 000000014004a018     raylib:rcore.obj
 0002:00005038       ??_C@_0BJ@FJFGJNCO@glProgramUniform3ui64ARB@ 000000014004a038     raylib:rcore.obj
 0002:00005058       ??_C@_0BK@FDELEJEC@glProgramUniform3ui64vARB@ 000000014004a058     raylib:rcore.obj
 0002:00005078       ??_C@_0BI@FIJCFAPH@glProgramUniform4i64ARB@ 000000014004a078     raylib:rcore.obj
 0002:00005090       ??_C@_0BJ@KMEFOHPP@glProgramUniform4i64vARB@ 000000014004a090     raylib:rcore.obj
 0002:000050b0       ??_C@_0BJ@DNDHPAOH@glProgramUniform4ui64ARB@ 000000014004a0b0     raylib:rcore.obj
 0002:000050d0       ??_C@_0BK@LBJHFCDL@glProgramUniform4ui64vARB@ 000000014004a0d0     raylib:rcore.obj
 0002:000050f0       ??_C@_0BB@IMPNPLIM@glUniform1i64ARB@ 000000014004a0f0     raylib:rcore.obj
 0002:00005108       ??_C@_0BC@GLEGCAOA@glUniform1i64vARB@ 000000014004a108     raylib:rcore.obj
 0002:00005120       ??_C@_0BC@PKDEDHPI@glUniform1ui64ARB@ 000000014004a120     raylib:rcore.obj
 0002:00005138       ??_C@_0BD@DMFIFMAJ@glUniform1ui64vARB@ 000000014004a138     raylib:rcore.obj
 0002:00005150       ??_C@_0BB@CHCPMGP@glUniform2i64ARB@ 000000014004a150     raylib:rcore.obj
 0002:00005168       ??_C@_0BC@FCMLBMCF@glUniform2i64vARB@ 000000014004a168     raylib:rcore.obj
 0002:00005180       ??_C@_0BC@MDLJALDN@glUniform2ui64ARB@ 000000014004a180     raylib:rcore.obj
 0002:00005198       ??_C@_0BD@NHGPOHAK@glUniform2ui64vARB@ 000000014004a198     raylib:rcore.obj
 0002:000051b0       ??_C@_0BB@MONIPMPB@glUniform3i64ARB@ 000000014004a1b0     raylib:rcore.obj
 0002:000051c8       ??_C@_0BC@EFLAAIGG@glUniform3i64vARB@ 000000014004a1c8     raylib:rcore.obj
 0002:000051e0       ??_C@_0BC@NEMCBPHO@glUniform3ui64ARB@ 000000014004a1e0     raylib:rcore.obj
 0002:000051f8       ??_C@_0BD@DIKNIMDE@glUniform3ui64vARB@ 000000014004a1f8     raylib:rcore.obj
 0002:00005210       ??_C@_0BB@MEBNPFOI@glUniform4i64ARB@ 000000014004a210     raylib:rcore.obj
 0002:00005228       ??_C@_0BC@CBNBGFKP@glUniform4i64vARB@ 000000014004a228     raylib:rcore.obj
 0002:00005240       ??_C@_0BC@LAKDHCLH@glUniform4ui64ARB@ 000000014004a240     raylib:rcore.obj
 0002:00005258       ??_C@_0BD@NKHBJHEN@glUniform4ui64vARB@ 000000014004a258     raylib:rcore.obj
 0002:00005270       ??_C@_0BJ@KDFJOAKK@glVertexAttribDivisorARB@ 000000014004a270     raylib:rcore.obj
 0002:00005290       ??_C@_0BC@ENBBLPHM@glBindBuffersBase@ 000000014004a290     raylib:rcore.obj
 0002:000052a8       ??_C@_0BD@ODFFOKPN@glBindBuffersRange@ 000000014004a2a8     raylib:rcore.obj
 0002:000052c0       ??_C@_0BE@NAMJLOCK@glBindImageTextures@ 000000014004a2c0     raylib:rcore.obj
 0002:000052d8       ??_C@_0P@FADPDFKM@glBindSamplers@ 000000014004a2d8     raylib:rcore.obj
 0002:000052e8       ??_C@_0P@KHDEIIMA@glBindTextures@ 000000014004a2e8     raylib:rcore.obj
 0002:000052f8       ??_C@_0BE@LNCGJHDC@glBindVertexBuffers@ 000000014004a2f8     raylib:rcore.obj
 0002:00005310       ??_C@_0BE@NMFNHPGD@glSampleCoverageARB@ 000000014004a310     raylib:rcore.obj
 0002:00005328       ??_C@_0BD@IKCKKKNH@glActiveTextureARB@ 000000014004a328     raylib:rcore.obj
 0002:00005340       ??_C@_0BJ@PBJNGLJH@glClientActiveTextureARB@ 000000014004a340     raylib:rcore.obj
 0002:00005360       ??_C@_0BF@JJDGKFDO@glMultiTexCoord1dARB@ 000000014004a360     raylib:rcore.obj
 0002:00005378       ??_C@_0BG@EODMDJBO@glMultiTexCoord1dvARB@ 000000014004a378     raylib:rcore.obj
 0002:00005390       ??_C@_0BF@ODPGPGFO@glMultiTexCoord1fARB@ 000000014004a390     raylib:rcore.obj
 0002:000053a8       ??_C@_0BG@DPEJIBF@glMultiTexCoord1fvARB@ 000000014004a3a8     raylib:rcore.obj
 0002:000053c0       ??_C@_0BF@GBKGGBIP@glMultiTexCoord1iARB@ 000000014004a3c0     raylib:rcore.obj
 0002:000053d8       ??_C@_0BG@PCKCCKMA@glMultiTexCoord1ivARB@ 000000014004a3d8     raylib:rcore.obj
 0002:000053f0       ??_C@_0BF@ELPGOOKM@glMultiTexCoord1sARB@ 000000014004a3f0     raylib:rcore.obj
 0002:00005408       ??_C@_0BG@FAOPALDN@glMultiTexCoord1svARB@ 000000014004a408     raylib:rcore.obj
 0002:00005420       ??_C@_0BF@BPKCNHJA@glMultiTexCoord2dARB@ 000000014004a420     raylib:rcore.obj
 0002:00005438       ??_C@_0BG@HPNECDID@glMultiTexCoord2dvARB@ 000000014004a438     raylib:rcore.obj
 0002:00005450       ??_C@_0BF@GFGCIEPA@glMultiTexCoord2fARB@ 000000014004a450     raylib:rcore.obj
 0002:00005468       ??_C@_0BG@DCBMICII@glMultiTexCoord2fvARB@ 000000014004a468     raylib:rcore.obj
 0002:00005480       ??_C@_0BF@OHDCBDCB@glMultiTexCoord2iARB@ 000000014004a480     raylib:rcore.obj
 0002:00005498       ??_C@_0BG@MDEKDAFN@glMultiTexCoord2ivARB@ 000000014004a498     raylib:rcore.obj
 0002:000054b0       ??_C@_0BF@MNGCJMAC@glMultiTexCoord2sARB@ 000000014004a4b0     raylib:rcore.obj
 0002:000054c8       ??_C@_0BG@GBAHBBKA@glMultiTexCoord2svARB@ 000000014004a4c8     raylib:rcore.obj
 0002:000054e0       ??_C@_0BF@NEPOAEDF@glMultiTexCoord3dARB@ 000000014004a4e0     raylib:rcore.obj
 0002:000054f8       ??_C@_0BG@NJKDCIDH@glMultiTexCoord3dvARB@ 000000014004a4f8     raylib:rcore.obj
 0002:00005510       ??_C@_0BF@KODOFHFF@glMultiTexCoord3fARB@ 000000014004a510     raylib:rcore.obj
 0002:00005528       ??_C@_0BG@JEGLIJDM@glMultiTexCoord3fvARB@ 000000014004a528     raylib:rcore.obj
 0002:00005540       ??_C@_0BF@CMGOMAIE@glMultiTexCoord3iARB@ 000000014004a540     raylib:rcore.obj
 0002:00005558       ??_C@_0BG@GFDNDLOJ@glMultiTexCoord3ivARB@ 000000014004a558     raylib:rcore.obj
 0002:00005570       ??_C@_0BF@GDOEPKH@glMultiTexCoord3sARB@ 000000014004a570     raylib:rcore.obj
 0002:00005588       ??_C@_0BG@MHHABKBE@glMultiTexCoord3svARB@ 000000014004a588     raylib:rcore.obj
 0002:000055a0       ??_C@_0BF@MJPLDEIN@glMultiTexCoord4dARB@ 000000014004a5a0     raylib:rcore.obj
 0002:000055b8       ??_C@_0BG@BMAEBGLJ@glMultiTexCoord4dvARB@ 000000014004a5b8     raylib:rcore.obj
 0002:000055d0       ??_C@_0BF@LDDLGHON@glMultiTexCoord4fARB@ 000000014004a5d0     raylib:rcore.obj
 0002:000055e8       ??_C@_0BG@FBMMLHLC@glMultiTexCoord4fvARB@ 000000014004a5e8     raylib:rcore.obj
 0002:00005600       ??_C@_0BF@DBGLPADM@glMultiTexCoord4iARB@ 000000014004a600     raylib:rcore.obj
 0002:00005618       ??_C@_0BG@KAJKAFGH@glMultiTexCoord4ivARB@ 000000014004a618     raylib:rcore.obj
 0002:00005630       ??_C@_0BF@BLDLHPBP@glMultiTexCoord4sARB@ 000000014004a630     raylib:rcore.obj
 0002:00005648       ??_C@_0BG@CNHCEJK@glMultiTexCoord4svARB@ 000000014004a648     raylib:rcore.obj
 0002:00005660       ??_C@_0BA@LPKBABEB@glBeginQueryARB@ 000000014004a660     raylib:rcore.obj
 0002:00005670       ??_C@_0BD@HAEDHPKB@glDeleteQueriesARB@ 000000014004a670     raylib:rcore.obj
 0002:00005688       ??_C@_0O@EFJDHGFG@glEndQueryARB@ 000000014004a688     raylib:rcore.obj
 0002:00005698       ??_C@_0BA@BJHFNMK@glGenQueriesARB@ 000000014004a698     raylib:rcore.obj
 0002:000056a8       ??_C@_0BG@EDFKPCGN@glGetQueryObjectivARB@ 000000014004a6a8     raylib:rcore.obj
 0002:000056c0       ??_C@_0BH@OOHKBDPD@glGetQueryObjectuivARB@ 000000014004a6c0     raylib:rcore.obj
 0002:000056d8       ??_C@_0BA@DPEEILJC@glGetQueryivARB@ 000000014004a6d8     raylib:rcore.obj
 0002:000056e8       ??_C@_0N@HKMIDCPF@glIsQueryARB@ 000000014004a6e8     raylib:rcore.obj
 0002:000056f8       ??_C@_0BJ@DMCMMLHP@glEvaluateDepthValuesARB@ 000000014004a6f8     raylib:rcore.obj
 0002:00005718       ??_C@_0CC@HNJFPNPL@glFramebufferSampleLocationsfvA@ 000000014004a718     raylib:rcore.obj
 0002:00005740       ??_C@_0CH@JHLOPOBO@glNamedFramebufferSampleLocatio@ 000000014004a740     raylib:rcore.obj
 0002:00005768       ??_C@_0BG@KHPHHIHH@glMinSampleShadingARB@ 000000014004a768     raylib:rcore.obj
 0002:00005780       ??_C@_0BC@GINLBKLJ@glAttachObjectARB@ 000000014004a780     raylib:rcore.obj
 0002:00005798       ??_C@_0BD@BEDGBOPM@glCompileShaderARB@ 000000014004a798     raylib:rcore.obj
 0002:000057b0       ??_C@_0BJ@KGMBEPBI@glCreateProgramObjectARB@ 000000014004a7b0     raylib:rcore.obj
 0002:000057d0       ??_C@_0BI@FMNPOEGE@glCreateShaderObjectARB@ 000000014004a7d0     raylib:rcore.obj
 0002:000057e8       ??_C@_0BC@MJFNICLA@glDeleteObjectARB@ 000000014004a7e8     raylib:rcore.obj
 0002:00005800       ??_C@_0BC@OPBLIDAI@glDetachObjectARB@ 000000014004a800     raylib:rcore.obj
 0002:00005818       ??_C@_0BG@FNEOAGIK@glGetActiveUniformARB@ 000000014004a818     raylib:rcore.obj
 0002:00005830       ??_C@_0BI@KFAABOIL@glGetAttachedObjectsARB@ 000000014004a830     raylib:rcore.obj
 0002:00005848       ??_C@_0P@LFBJNCKO@glGetHandleARB@ 000000014004a848     raylib:rcore.obj
 0002:00005858       ??_C@_0BA@FLIOBLOG@glGetInfoLogARB@ 000000014004a858     raylib:rcore.obj
 0002:00005868       ??_C@_0BK@HCFOBODO@glGetObjectParameterfvARB@ 000000014004a868     raylib:rcore.obj
 0002:00005888       ??_C@_0BK@IDAIKMOL@glGetObjectParameterivARB@ 000000014004a888     raylib:rcore.obj
 0002:000058a8       ??_C@_0BF@OBGOKFNE@glGetShaderSourceARB@ 000000014004a8a8     raylib:rcore.obj
 0002:000058c0       ??_C@_0BI@CAFPPHDC@glGetUniformLocationARB@ 000000014004a8c0     raylib:rcore.obj
 0002:000058d8       ??_C@_0BC@KKIJAHAK@glGetUniformfvARB@ 000000014004a8d8     raylib:rcore.obj
 0002:000058f0       ??_C@_0BC@FLNPLFNP@glGetUniformivARB@ 000000014004a8f0     raylib:rcore.obj
 0002:00005908       ??_C@_0BB@HPIAOOAG@glLinkProgramARB@ 000000014004a908     raylib:rcore.obj
 0002:00005920       ??_C@_0BC@MCCOFGJG@glShaderSourceARB@ 000000014004a920     raylib:rcore.obj
 0002:00005938       ??_C@_0P@KFNIAEEC@glUniform1fARB@ 000000014004a938     raylib:rcore.obj
 0002:00005948       ??_C@_0BA@BHLDOKKI@glUniform1fvARB@ 000000014004a948     raylib:rcore.obj
 0002:00005958       ??_C@_0P@CHIIJDJD@glUniform1iARB@ 000000014004a958     raylib:rcore.obj
 0002:00005968       ??_C@_0BA@OGOFFIHN@glUniform1ivARB@ 000000014004a968     raylib:rcore.obj
 0002:00005978       ??_C@_0P@CDEMHGOM@glUniform2fARB@ 000000014004a978     raylib:rcore.obj
 0002:00005988       ??_C@_0BA@CGFLPADF@glUniform2fvARB@ 000000014004a988     raylib:rcore.obj
 0002:00005998       ??_C@_0P@KBBMOBDN@glUniform2iARB@ 000000014004a998     raylib:rcore.obj
 0002:000059a8       ??_C@_0BA@NHANECOA@glUniform2ivARB@ 000000014004a9a8     raylib:rcore.obj
 0002:000059b8       ??_C@_0P@OIBAKFEJ@glUniform3fARB@ 000000014004a9b8     raylib:rcore.obj
 0002:000059c8       ??_C@_0BA@IACMPLIB@glUniform3fvARB@ 000000014004a9c8     raylib:rcore.obj
 0002:000059d8       ??_C@_0P@GKEADCJI@glUniform3iARB@ 000000014004a9d8     raylib:rcore.obj
 0002:000059e8       ??_C@_0BA@HBHKEJFE@glUniform3ivARB@ 000000014004a9e8     raylib:rcore.obj
 0002:000059f8       ??_C@_0P@PFBFJFPB@glUniform4fARB@ 000000014004a9f8     raylib:rcore.obj
 0002:00005a08       ??_C@_0BA@EFILMFAP@glUniform4fvARB@ 000000014004aa08     raylib:rcore.obj
 0002:00005a18       ??_C@_0P@HHEFACCA@glUniform4iARB@ 000000014004aa18     raylib:rcore.obj
 0002:00005a28       ??_C@_0BA@LENNHHNK@glUniform4ivARB@ 000000014004aa28     raylib:rcore.obj
 0002:00005a38       ??_C@_0BG@KPIOAAJO@glUniformMatrix2fvARB@ 000000014004aa38     raylib:rcore.obj
 0002:00005a50       ??_C@_0BG@JPJALCK@glUniformMatrix3fvARB@ 000000014004aa50     raylib:rcore.obj
 0002:00005a68       ??_C@_0BG@MMFODFKE@glUniformMatrix4fvARB@ 000000014004aa68     raylib:rcore.obj
 0002:00005a80       ??_C@_0BG@JEOFPDIM@glUseProgramObjectARB@ 000000014004aa80     raylib:rcore.obj
 0002:00005a98       ??_C@_0BF@BGDHGNPG@glValidateProgramARB@ 000000014004aa98     raylib:rcore.obj
 0002:00005ab0       ??_C@_0BK@EDOCLMLD@glCompileShaderIncludeARB@ 000000014004aab0     raylib:rcore.obj
 0002:00005ad0       ??_C@_0BH@NCMBPFNK@glDeleteNamedStringARB@ 000000014004aad0     raylib:rcore.obj
 0002:00005ae8       ??_C@_0BE@NFONNCFF@glGetNamedStringARB@ 000000014004aae8     raylib:rcore.obj
 0002:00005b00       ??_C@_0BG@MPGNLJCM@glGetNamedStringivARB@ 000000014004ab00     raylib:rcore.obj
 0002:00005b18       ??_C@_0BD@ICFECEJF@glIsNamedStringARB@ 000000014004ab18     raylib:rcore.obj
 0002:00005b30       ??_C@_0BB@EMHJCPKC@glNamedStringARB@ 000000014004ab30     raylib:rcore.obj
 0002:00005b48       ??_C@_0BK@GFNCBPLO@glCompressedTexImage1DARB@ 000000014004ab48     raylib:rcore.obj
 0002:00005b68       ??_C@_0BK@ODEGGNBA@glCompressedTexImage2DARB@ 000000014004ab68     raylib:rcore.obj
 0002:00005b88       ??_C@_0BK@CIBKLOLF@glCompressedTexImage3DARB@ 000000014004ab88     raylib:rcore.obj
 0002:00005ba8       ??_C@_0BN@DBMDJCJF@glCompressedTexSubImage1DARB@ 000000014004aba8     raylib:rcore.obj
 0002:00005bc8       ??_C@_0BN@LHFHOADL@glCompressedTexSubImage2DARB@ 000000014004abc8     raylib:rcore.obj
 0002:00005be8       ??_C@_0BN@HMALDDJO@glCompressedTexSubImage3DARB@ 000000014004abe8     raylib:rcore.obj
 0002:00005c08       ??_C@_0BL@CKKCLKDF@glGetCompressedTexImageARB@ 000000014004ac08     raylib:rcore.obj
 0002:00005c28       ??_C@_0BK@JMMPDFPI@glLoadTransposeMatrixdARB@ 000000014004ac28     raylib:rcore.obj
 0002:00005c48       ??_C@_0BK@OGAPGGJI@glLoadTransposeMatrixfARB@ 000000014004ac48     raylib:rcore.obj
 0002:00005c68       ??_C@_0BK@EIJJIFHA@glMultTransposeMatrixdARB@ 000000014004ac68     raylib:rcore.obj
 0002:00005c88       ??_C@_0BK@DCFJNGBA@glMultTransposeMatrixfARB@ 000000014004ac88     raylib:rcore.obj
 0002:00005ca8       ??_C@_0BA@FDIFNALK@glBindBufferARB@ 000000014004aca8     raylib:rcore.obj
 0002:00005cb8       ??_C@_0BA@HLIGBCAN@glBufferDataARB@ 000000014004acb8     raylib:rcore.obj
 0002:00005cc8       ??_C@_0BD@KFMFAAJP@glBufferSubDataARB@ 000000014004acc8     raylib:rcore.obj
 0002:00005ce0       ??_C@_0BD@FPFIIGCI@glDeleteBuffersARB@ 000000014004ace0     raylib:rcore.obj
 0002:00005cf8       ??_C@_0BA@COIMKEED@glGenBuffersARB@ 000000014004acf8     raylib:rcore.obj
 0002:00005d08       ??_C@_0BK@NELBDMOH@glGetBufferParameterivARB@ 000000014004ad08     raylib:rcore.obj
 0002:00005d28       ??_C@_0BH@KNGCJBNB@glGetBufferPointervARB@ 000000014004ad28     raylib:rcore.obj
 0002:00005d40       ??_C@_0BG@DNDEGANA@glGetBufferSubDataARB@ 000000014004ad40     raylib:rcore.obj
 0002:00005d58       ??_C@_0O@BCHKDNEE@glIsBufferARB@ 000000014004ad58     raylib:rcore.obj
 0002:00005d68       ??_C@_0P@GLCCGPAH@glMapBufferARB@ 000000014004ad68     raylib:rcore.obj
 0002:00005d78       ??_C@_0BB@IODLHHEP@glUnmapBufferARB@ 000000014004ad78     raylib:rcore.obj
 0002:00005d90       ??_C@_0BO@HGKLJN@glDisableVertexAttribArrayARB@ 000000014004ad90     raylib:rcore.obj
 0002:00005db0       ??_C@_0BN@FKABDPBF@glEnableVertexAttribArrayARB@ 000000014004adb0     raylib:rcore.obj
 0002:00005dd0       ??_C@_0BN@PFKJEGFB@glGetVertexAttribPointervARB@ 000000014004add0     raylib:rcore.obj
 0002:00005df0       ??_C@_0BH@OMNBLIA@glGetVertexAttribdvARB@ 000000014004adf0     raylib:rcore.obj
 0002:00005e08       ??_C@_0BH@EDAFLKIL@glGetVertexAttribfvARB@ 000000014004ae08     raylib:rcore.obj
 0002:00005e20       ??_C@_0BH@LCFDAIFO@glGetVertexAttribivARB@ 000000014004ae20     raylib:rcore.obj
 0002:00005e38       ??_C@_0BE@KOFFOLEH@glVertexAttrib1dARB@ 000000014004ae38     raylib:rcore.obj
 0002:00005e50       ??_C@_0BF@GHNCJDMI@glVertexAttrib1dvARB@ 000000014004ae50     raylib:rcore.obj
 0002:00005e68       ??_C@_0BE@NEJFLICH@glVertexAttrib1fARB@ 000000014004ae68     raylib:rcore.obj
 0002:00005e80       ??_C@_0BF@CKBKDCMD@glVertexAttrib1fvARB@ 000000014004ae80     raylib:rcore.obj
 0002:00005e98       ??_C@_0BE@HMJFKANF@glVertexAttrib1sARB@ 000000014004ae98     raylib:rcore.obj
 0002:00005eb0       ??_C@_0BF@HJABKBOL@glVertexAttrib1svARB@ 000000014004aeb0     raylib:rcore.obj
 0002:00005ec8       ??_C@_0BE@CIMBJJOJ@glVertexAttrib2dARB@ 000000014004aec8     raylib:rcore.obj
 0002:00005ee0       ??_C@_0BF@FGDKIJFF@glVertexAttrib2dvARB@ 000000014004aee0     raylib:rcore.obj
 0002:00005ef8       ??_C@_0BE@FCABMKIJ@glVertexAttrib2fARB@ 000000014004aef8     raylib:rcore.obj
 0002:00005f10       ??_C@_0BF@BLPCCIFO@glVertexAttrib2fvARB@ 000000014004af10     raylib:rcore.obj
 0002:00005f28       ??_C@_0BE@PKABNCHL@glVertexAttrib2sARB@ 000000014004af28     raylib:rcore.obj
 0002:00005f40       ??_C@_0BF@EIOJLLHG@glVertexAttrib2svARB@ 000000014004af40     raylib:rcore.obj
 0002:00005f58       ??_C@_0BE@ODJNEKEM@glVertexAttrib3dARB@ 000000014004af58     raylib:rcore.obj
 0002:00005f70       ??_C@_0BF@PAENICOB@glVertexAttrib3dvARB@ 000000014004af70     raylib:rcore.obj
 0002:00005f88       ??_C@_0BE@JJFNBJCM@glVertexAttrib3fARB@ 000000014004af88     raylib:rcore.obj
 0002:00005fa0       ??_C@_0BF@LNIFCDOK@glVertexAttrib3fvARB@ 000000014004afa0     raylib:rcore.obj
 0002:00005fb8       ??_C@_0BE@DBFNABNO@glVertexAttrib3sARB@ 000000014004afb8     raylib:rcore.obj
 0002:00005fd0       ??_C@_0BF@OOJOLAMC@glVertexAttrib3svARB@ 000000014004afd0     raylib:rcore.obj
 0002:00005fe8       ??_C@_0BG@KBHGKCDK@glVertexAttrib4NbvARB@ 000000014004afe8     raylib:rcore.obj
 0002:00006000       ??_C@_0BG@MLLBFCPJ@glVertexAttrib4NivARB@ 000000014004b000     raylib:rcore.obj
 0002:00006018       ??_C@_0BG@GJPMHDAE@glVertexAttrib4NsvARB@ 000000014004b018     raylib:rcore.obj
 0002:00006030       ??_C@_0BG@CKMFKBFL@glVertexAttrib4NubARB@ 000000014004b030     raylib:rcore.obj
 0002:00006048       ??_C@_0BH@HDFHFPMN@glVertexAttrib4NubvARB@ 000000014004b048     raylib:rcore.obj
 0002:00006060       ??_C@_0BH@BJJAKPAO@glVertexAttrib4NuivARB@ 000000014004b060     raylib:rcore.obj
 0002:00006078       ??_C@_0BH@LLNNIOPD@glVertexAttrib4NusvARB@ 000000014004b078     raylib:rcore.obj
 0002:00006090       ??_C@_0BF@ODLDFPHC@glVertexAttrib4bvARB@ 000000014004b090     raylib:rcore.obj
 0002:000060a8       ??_C@_0BE@POJIHKPE@glVertexAttrib4dARB@ 000000014004b0a8     raylib:rcore.obj
 0002:000060c0       ??_C@_0BF@DFOKLMGP@glVertexAttrib4dvARB@ 000000014004b0c0     raylib:rcore.obj
 0002:000060d8       ??_C@_0BE@IEFICJJE@glVertexAttrib4fARB@ 000000014004b0d8     raylib:rcore.obj
 0002:000060f0       ??_C@_0BF@HICCBNGE@glVertexAttrib4fvARB@ 000000014004b0f0     raylib:rcore.obj
 0002:00006108       ??_C@_0BF@IJHEKPLB@glVertexAttrib4ivARB@ 000000014004b108     raylib:rcore.obj
 0002:00006120       ??_C@_0BE@CMFIDBGG@glVertexAttrib4sARB@ 000000014004b120     raylib:rcore.obj
 0002:00006138       ??_C@_0BF@CLDJIOEM@glVertexAttrib4svARB@ 000000014004b138     raylib:rcore.obj
 0002:00006150       ??_C@_0BG@LBCFDJC@glVertexAttrib4ubvARB@ 000000014004b150     raylib:rcore.obj
 0002:00006168       ??_C@_0BG@GBNFKDFB@glVertexAttrib4uivARB@ 000000014004b168     raylib:rcore.obj
 0002:00006180       ??_C@_0BG@MDJIICKM@glVertexAttrib4usvARB@ 000000014004b180     raylib:rcore.obj
 0002:00006198       ??_C@_0BJ@KNOILOPF@glVertexAttribPointerARB@ 000000014004b198     raylib:rcore.obj
 0002:000061b8       ??_C@_0BI@HAONMJFP@glBindAttribLocationARB@ 000000014004b1b8     raylib:rcore.obj
 0002:000061d0       ??_C@_0BF@NFLELGHN@glGetActiveAttribARB@ 000000014004b1d0     raylib:rcore.obj
 0002:000061e8       ??_C@_0BH@BINIAJMB@glGetAttribLocationARB@ 000000014004b1e8     raylib:rcore.obj
 0002:00006200       ??_C@_0BJ@EGCHCMIN@glDrawArraysInstancedEXT@ 000000014004b200     raylib:rcore.obj
 0002:00006220       ??_C@_0BL@CPGJMID@glDrawElementsInstancedEXT@ 000000014004b220     raylib:rcore.obj
 0002:00006240       ??_C@_0BF@FOOIEJCC@glFogCoordPointerEXT@ 000000014004b240     raylib:rcore.obj
 0002:00006258       ??_C@_0P@CHEMEAE@glFogCoorddEXT@ 000000014004b258     raylib:rcore.obj
 0002:00006268       ??_C@_0BA@JEFAJMPN@glFogCoorddvEXT@ 000000014004b268     raylib:rcore.obj
 0002:00006278       ??_C@_0P@HILEJHGE@glFogCoordfEXT@ 000000014004b278     raylib:rcore.obj
 0002:00006288       ??_C@_0BA@NJJIDNPG@glFogCoordfvEXT@ 000000014004b288     raylib:rcore.obj
 0002:00006298       ??_C@_0BF@GOMLACDI@glBlitFramebufferEXT@ 000000014004b298     raylib:rcore.obj
 0002:000062b0       ??_C@_0CE@IGIMMIPN@glRenderbufferStorageMultisampl@ 000000014004b2b0     raylib:rcore.obj
 0002:000062d8       ??_C@_0BF@EMIECBAK@glBindFramebufferEXT@ 000000014004b2d8     raylib:rcore.obj
 0002:000062f0       ??_C@_0BG@GLKALDNN@glBindRenderbufferEXT@ 000000014004b2f0     raylib:rcore.obj
 0002:00006308       ??_C@_0BM@GOHPHGGE@glCheckFramebufferStatusEXT@ 000000014004b308     raylib:rcore.obj
 0002:00006328       ??_C@_0BI@NPEJNLO@glDeleteFramebuffersEXT@ 000000014004b328     raylib:rcore.obj
 0002:00006340       ??_C@_0BJ@FCLEPNJL@glDeleteRenderbuffersEXT@ 000000014004b340     raylib:rcore.obj
 0002:00006360       ??_C@_0BN@BAGKOCJP@glFramebufferRenderbufferEXT@ 000000014004b360     raylib:rcore.obj
 0002:00006380       ??_C@_0BK@DDHFDNIL@glFramebufferTexture1DEXT@ 000000014004b380     raylib:rcore.obj
 0002:000063a0       ??_C@_0BK@LFOBEPCF@glFramebufferTexture2DEXT@ 000000014004b3a0     raylib:rcore.obj
 0002:000063c0       ??_C@_0BK@HOLNJMIA@glFramebufferTexture3DEXT@ 000000014004b3c0     raylib:rcore.obj
 0002:000063e0       ??_C@_0BF@FFIJGJAM@glGenFramebuffersEXT@ 000000014004b3e0     raylib:rcore.obj
 0002:000063f8       ??_C@_0BG@HHIDFCMP@glGenRenderbuffersEXT@ 000000014004b3f8     raylib:rcore.obj
 0002:00006410       ??_C@_0BE@CIGLHJJK@glGenerateMipmapEXT@ 000000014004b410     raylib:rcore.obj
 0002:00006428       ??_C@_0CJ@GLBPNGII@glGetFramebufferAttachmentParam@ 000000014004b428     raylib:rcore.obj
 0002:00006458       ??_C@_0CA@NHMNLBAE@glGetRenderbufferParameterivEXT@ 000000014004b458     raylib:rcore.obj
 0002:00006478       ??_C@_0BD@MIGPBMHK@glIsFramebufferEXT@ 000000014004b478     raylib:rcore.obj
 0002:00006490       ??_C@_0BE@DLCBCJNM@glIsRenderbufferEXT@ 000000014004b490     raylib:rcore.obj
 0002:000064a8       ??_C@_0BJ@NPDAOAPK@glRenderbufferStorageEXT@ 000000014004b4a8     raylib:rcore.obj
 0002:000064c8       ??_C@_0M@CPPEIPJO@glAccumxOES@ 000000014004b4c8     raylib:rcore.obj
 0002:000064d8       ??_C@_0BA@JJHDMMFG@glAlphaFuncxOES@ 000000014004b4d8     raylib:rcore.obj
 0002:000064e8       ??_C@_0N@CANFAEJM@glBitmapxOES@ 000000014004b4e8     raylib:rcore.obj
 0002:000064f8       ??_C@_0BB@KKPGOJHM@glBlendColorxOES@ 000000014004b4f8     raylib:rcore.obj
 0002:00006510       ??_C@_0BB@CNBFOBCG@glClearAccumxOES@ 000000014004b510     raylib:rcore.obj
 0002:00006528       ??_C@_0BB@CHNKKDGN@glClearColorxOES@ 000000014004b528     raylib:rcore.obj
 0002:00006540       ??_C@_0BB@LMKIPPCH@glClearDepthxOES@ 000000014004b540     raylib:rcore.obj
 0002:00006558       ??_C@_0BA@EDNPMHOP@glClipPlanexOES@ 000000014004b558     raylib:rcore.obj
 0002:00006568       ??_C@_0N@GGICLCJO@glColor3xOES@ 000000014004b568     raylib:rcore.obj
 0002:00006578       ??_C@_0O@FNGANHDH@glColor3xvOES@ 000000014004b578     raylib:rcore.obj
 0002:00006588       ??_C@_0N@HLIHICCG@glColor4xOES@ 000000014004b588     raylib:rcore.obj
 0002:00006598       ??_C@_0O@JIMHOJLJ@glColor4xvOES@ 000000014004b598     raylib:rcore.obj
 0002:000065a8       ??_C@_0BL@EDAHNLBG@glConvolutionParameterxOES@ 000000014004b5a8     raylib:rcore.obj
 0002:000065c8       ??_C@_0BM@LOCGFJEM@glConvolutionParameterxvOES@ 000000014004b5c8     raylib:rcore.obj
 0002:000065e8       ??_C@_0BB@MPAAKCA@glDepthRangexOES@ 000000014004b5e8     raylib:rcore.obj
 0002:00006600       ??_C@_0BB@LBMMICLD@glEvalCoord1xOES@ 000000014004b600     raylib:rcore.obj
 0002:00006618       ??_C@_0BC@BIGIMFHC@glEvalCoord1xvOES@ 000000014004b618     raylib:rcore.obj
 0002:00006630       ??_C@_0BB@DHFIPABN@glEvalCoord2xOES@ 000000014004b630     raylib:rcore.obj
 0002:00006648       ??_C@_0BC@CJIANPOP@glEvalCoord2xvOES@ 000000014004b648     raylib:rcore.obj
 0002:00006660       ??_C@_0BF@DFIFBLPH@glFeedbackBufferxOES@ 000000014004b660     raylib:rcore.obj
 0002:00006678       ??_C@_09PPPGJAGN@glFogxOES@ 000000014004b678     raylib:rcore.obj
 0002:00006688       ??_C@_0L@HJENAALD@glFogxvOES@ 000000014004b688     raylib:rcore.obj
 0002:00006698       ??_C@_0O@DMHBFGCB@glFrustumxOES@ 000000014004b698     raylib:rcore.obj
 0002:000066a8       ??_C@_0BD@NOHDIKOM@glGetClipPlanexOES@ 000000014004b6a8     raylib:rcore.obj
 0002:000066c0       ??_C@_0BP@FMNKJAGC@glGetConvolutionParameterxvOES@ 000000014004b6c0     raylib:rcore.obj
 0002:000066e0       ??_C@_0P@GNNHPNPE@glGetFixedvOES@ 000000014004b6e0     raylib:rcore.obj
 0002:000066f0       ??_C@_0BN@PDIECNJL@glGetHistogramParameterxvOES@ 000000014004b6f0     raylib:rcore.obj
 0002:00006710       ??_C@_0P@CFPJDIA@glGetLightxOES@ 000000014004b710     raylib:rcore.obj
 0002:00006720       ??_C@_0O@KDGAIGNJ@glGetMapxvOES@ 000000014004b720     raylib:rcore.obj
 0002:00006730       ??_C@_0BC@LHHGEBPN@glGetMaterialxOES@ 000000014004b730     raylib:rcore.obj
 0002:00006748       ??_C@_0BA@FFNFLIPO@glGetPixelMapxv@ 000000014004b748     raylib:rcore.obj
 0002:00006758       ??_C@_0BB@EICCOENI@glGetTexEnvxvOES@ 000000014004b758     raylib:rcore.obj
 0002:00006770       ??_C@_0BB@GPIPACKB@glGetTexGenxvOES@ 000000014004b770     raylib:rcore.obj
 0002:00006788       ??_C@_0BM@NGIJHMJA@glGetTexLevelParameterxvOES@ 000000014004b788     raylib:rcore.obj
 0002:000067a8       ??_C@_0BH@EGBGGALC@glGetTexParameterxvOES@ 000000014004b7a8     raylib:rcore.obj
 0002:000067c0       ??_C@_0M@PDGMCOMC@glIndexxOES@ 000000014004b7c0     raylib:rcore.obj
 0002:000067d0       ??_C@_0N@DPCICEHE@glIndexxvOES@ 000000014004b7d0     raylib:rcore.obj
 0002:000067e0       ??_C@_0BB@LCDBFMKH@glLightModelxOES@ 000000014004b7e0     raylib:rcore.obj
 0002:000067f8       ??_C@_0BC@CLBOMNB@glLightModelxvOES@ 000000014004b7f8     raylib:rcore.obj
 0002:00006810       ??_C@_0M@OJLOCOBH@glLightxOES@ 000000014004b810     raylib:rcore.obj
 0002:00006820       ??_C@_0N@MJILNACP@glLightxvOES@ 000000014004b820     raylib:rcore.obj
 0002:00006830       ??_C@_0BA@DMMGMBAA@glLineWidthxOES@ 000000014004b830     raylib:rcore.obj
 0002:00006840       ??_C@_0BB@CCPMNNHD@glLoadMatrixxOES@ 000000014004b840     raylib:rcore.obj
 0002:00006858       ??_C@_0BK@JDLAKOKN@glLoadTransposeMatrixxOES@ 000000014004b858     raylib:rcore.obj
 0002:00006878       ??_C@_0L@NLIMMLNJ@glMap1xOES@ 000000014004b878     raylib:rcore.obj
 0002:00006888       ??_C@_0L@FNBILJHH@glMap2xOES@ 000000014004b888     raylib:rcore.obj
 0002:00006898       ??_C@_0P@NABFHJJJ@glMapGrid1xOES@ 000000014004b898     raylib:rcore.obj
 0002:000068a8       ??_C@_0P@FGIBALDH@glMapGrid2xOES@ 000000014004b8a8     raylib:rcore.obj
 0002:000068b8       ??_C@_0P@MJEMONHI@glMaterialxOES@ 000000014004b8b8     raylib:rcore.obj
 0002:000068c8       ??_C@_0BA@BEKGFOCF@glMaterialxvOES@ 000000014004b8c8     raylib:rcore.obj
 0002:000068d8       ??_C@_0BB@GELGGNOO@glMultMatrixxOES@ 000000014004b8d8     raylib:rcore.obj
 0002:000068f0       ??_C@_0BK@EHOGBOCF@glMultTransposeMatrixxOES@ 000000014004b8f0     raylib:rcore.obj
 0002:00006910       ??_C@_0BF@JGEJDOGL@glMultiTexCoord1xOES@ 000000014004b910     raylib:rcore.obj
 0002:00006928       ??_C@_0BG@JAEHBKCI@glMultiTexCoord1xvOES@ 000000014004b928     raylib:rcore.obj
 0002:00006940       ??_C@_0BF@BANNEMMF@glMultiTexCoord2xOES@ 000000014004b940     raylib:rcore.obj
 0002:00006958       ??_C@_0BG@KBKPAALF@glMultiTexCoord2xvOES@ 000000014004b958     raylib:rcore.obj
 0002:00006970       ??_C@_0BF@NLIBJPGA@glMultiTexCoord3xOES@ 000000014004b970     raylib:rcore.obj
 0002:00006988       ??_C@_0BG@HNIALAB@glMultiTexCoord3xvOES@ 000000014004b988     raylib:rcore.obj
 0002:000069a0       ??_C@_0BF@MGIEKPNI@glMultiTexCoord4xOES@ 000000014004b9a0     raylib:rcore.obj
 0002:000069b8       ??_C@_0BG@MCHPDFIP@glMultiTexCoord4xvOES@ 000000014004b9b8     raylib:rcore.obj
 0002:000069d0       ??_C@_0O@CJFIKEFM@glNormal3xOES@ 000000014004b9d0     raylib:rcore.obj
 0002:000069e0       ??_C@_0P@CIEFKOLN@glNormal3xvOES@ 000000014004b9e0     raylib:rcore.obj
 0002:000069f0       ??_C@_0M@LHDJINCI@glOrthoxOES@ 000000014004b9f0     raylib:rcore.obj
 0002:00006a00       ??_C@_0BC@NNEINCMN@glPassThroughxOES@ 000000014004ba00     raylib:rcore.obj
 0002:00006a18       ??_C@_0M@ICBJLICJ@glPixelMapx@ 000000014004ba18     raylib:rcore.obj
 0002:00006a28       ??_C@_0O@MBPBEIPF@glPixelStorex@ 000000014004ba28     raylib:rcore.obj
 0002:00006a38       ??_C@_0BE@LKFMIKPM@glPixelTransferxOES@ 000000014004ba38     raylib:rcore.obj
 0002:00006a50       ??_C@_0BA@HMHFOEFE@glPixelZoomxOES@ 000000014004ba50     raylib:rcore.obj
 0002:00006a60       ??_C@_0BG@FOPFDKBL@glPointParameterxvOES@ 000000014004ba60     raylib:rcore.obj
 0002:00006a78       ??_C@_0BA@OPAMFCJK@glPointSizexOES@ 000000014004ba78     raylib:rcore.obj
 0002:00006a88       ??_C@_0BE@ELBLIPBD@glPolygonOffsetxOES@ 000000014004ba88     raylib:rcore.obj
 0002:00006aa0       ??_C@_0BJ@FNMFJENO@glPrioritizeTexturesxOES@ 000000014004baa0     raylib:rcore.obj
 0002:00006ac0       ??_C@_0BB@DNDNLIAC@glRasterPos2xOES@ 000000014004bac0     raylib:rcore.obj
 0002:00006ad8       ??_C@_0BC@KEICLHFC@glRasterPos2xvOES@ 000000014004bad8     raylib:rcore.obj
 0002:00006af0       ??_C@_0BB@PGGBGLKH@glRasterPos3xOES@ 000000014004baf0     raylib:rcore.obj
 0002:00006b08       ??_C@_0BC@CPFLMOG@glRasterPos3xvOES@ 000000014004bb08     raylib:rcore.obj
 0002:00006b20       ??_C@_0BB@OLGEFLBP@glRasterPos4xOES@ 000000014004bb20     raylib:rcore.obj
 0002:00006b38       ??_C@_0BC@MHFCICGI@glRasterPos4xvOES@ 000000014004bb38     raylib:rcore.obj
 0002:00006b50       ??_C@_0L@CFBMFFAP@glRectxOES@ 000000014004bb50     raylib:rcore.obj
 0002:00006b60       ??_C@_0M@NKCLOKAC@glRectxvOES@ 000000014004bb60     raylib:rcore.obj
 0002:00006b70       ??_C@_0N@LCGPIFBO@glRotatexOES@ 000000014004bb70     raylib:rcore.obj
 0002:00006b80       ??_C@_0M@FAJPICEG@glScalexOES@ 000000014004bb80     raylib:rcore.obj
 0002:00006b90       ??_C@_0BA@IACOBBDC@glTexCoord1xOES@ 000000014004bb90     raylib:rcore.obj
 0002:00006ba0       ??_C@_0BB@ICOGJEFH@glTexCoord1xvOES@ 000000014004bba0     raylib:rcore.obj
 0002:00006bb8       ??_C@_0BA@GLKGDJM@glTexCoord2xOES@ 000000014004bbb8     raylib:rcore.obj
 0002:00006bc8       ??_C@_0BB@LDAOIOMK@glTexCoord2xvOES@ 000000014004bbc8     raylib:rcore.obj
 0002:00006be0       ??_C@_0BA@MNOGLADJ@glTexCoord3xOES@ 000000014004bbe0     raylib:rcore.obj
 0002:00006bf0       ??_C@_0BB@BFHJIFHO@glTexCoord3xvOES@ 000000014004bbf0     raylib:rcore.obj
 0002:00006c08       ??_C@_0BA@NAODIAIB@glTexCoord4xOES@ 000000014004bc08     raylib:rcore.obj
 0002:00006c18       ??_C@_0BB@NANOLLPA@glTexCoord4xvOES@ 000000014004bc18     raylib:rcore.obj
 0002:00006c30       ??_C@_0N@JABMPDJJ@glTexEnvxOES@ 000000014004bc30     raylib:rcore.obj
 0002:00006c40       ??_C@_0O@MDPCNMNF@glTexEnvxvOES@ 000000014004bc40     raylib:rcore.obj
 0002:00006c50       ??_C@_0N@DPLLCAOI@glTexGenxOES@ 000000014004bc50     raylib:rcore.obj
 0002:00006c60       ??_C@_0O@OEFPDKKM@glTexGenxvOES@ 000000014004bc60     raylib:rcore.obj
 0002:00006c70       ??_C@_0BD@IJGBCMIE@glTexParameterxOES@ 000000014004bc70     raylib:rcore.obj
 0002:00006c88       ??_C@_0BE@KAONMNND@glTexParameterxvOES@ 000000014004bc88     raylib:rcore.obj
 0002:00006ca0       ??_C@_0BA@JDAJBJEJ@glTranslatexOES@ 000000014004bca0     raylib:rcore.obj
 0002:00006cb0       ??_C@_0O@BNAHPGHC@glVertex2xOES@ 000000014004bcb0     raylib:rcore.obj
 0002:00006cc0       ??_C@_0P@PEKHPMCA@glVertex2xvOES@ 000000014004bcc0     raylib:rcore.obj
 0002:00006cd0       ??_C@_0O@NGFLCFNH@glVertex3xOES@ 000000014004bcd0     raylib:rcore.obj
 0002:00006ce0       ??_C@_0P@FCNAPHJE@glVertex3xvOES@ 000000014004bce0     raylib:rcore.obj
 0002:00006cf0       ??_C@_0O@MLFOBFGP@glVertex4xOES@ 000000014004bcf0     raylib:rcore.obj
 0002:00006d00       ??_C@_0P@JHHHMJBK@glVertex4xvOES@ 000000014004bd00     raylib:rcore.obj
 0002:00006d10       ??_C@_0BJ@EKCAAKBG@GL_ARB_ES2_compatibility@ 000000014004bd10     raylib:rcore.obj
 0002:00006d30       ??_C@_0BL@EMMAHNAP@GL_ARB_ES3_1_compatibility@ 000000014004bd30     raylib:rcore.obj
 0002:00006d50       ??_C@_0BL@GFAIMJPN@GL_ARB_ES3_2_compatibility@ 000000014004bd50     raylib:rcore.obj
 0002:00006d70       ??_C@_0BJ@OEEIJLIH@GL_ARB_ES3_compatibility@ 000000014004bd70     raylib:rcore.obj
 0002:00006d90       ??_C@_0BL@HJCIPJMC@GL_ARB_blend_func_extended@ 000000014004bd90     raylib:rcore.obj
 0002:00006db0       ??_C@_0BG@FDMKKDFD@GL_ARB_buffer_storage@ 000000014004bdb0     raylib:rcore.obj
 0002:00006dc8       ??_C@_0BL@DOOAPCEA@GL_ARB_clear_buffer_object@ 000000014004bdc8     raylib:rcore.obj
 0002:00006de8       ??_C@_0BF@HDHNHFHJ@GL_ARB_clear_texture@ 000000014004bde8     raylib:rcore.obj
 0002:00006e00       ??_C@_0BK@NPDELCAH@GL_ARB_color_buffer_float@ 000000014004be00     raylib:rcore.obj
 0002:00006e20       ??_C@_0BF@CJMIIMBG@GL_ARB_compatibility@ 000000014004be20     raylib:rcore.obj
 0002:00006e38       ??_C@_0CI@CIAMCDD@GL_ARB_compressed_texture_pixel@ 000000014004be38     raylib:rcore.obj
 0002:00006e60       ??_C@_0BG@CCENKDIE@GL_ARB_compute_shader@ 000000014004be60     raylib:rcore.obj
 0002:00006e78       ??_C@_0CD@DFOMJNFO@GL_ARB_compute_variable_group_s@ 000000014004be78     raylib:rcore.obj
 0002:00006ea0       ??_C@_0BD@IGEHEAFM@GL_ARB_copy_buffer@ 000000014004bea0     raylib:rcore.obj
 0002:00006eb8       ??_C@_0BC@IMNLOGMO@GL_ARB_copy_image@ 000000014004beb8     raylib:rcore.obj
 0002:00006ed0       ??_C@_0BE@OHIPHHMJ@GL_ARB_debug_output@ 000000014004bed0     raylib:rcore.obj
 0002:00006ee8       ??_C@_0BK@JKFHPKJF@GL_ARB_depth_buffer_float@ 000000014004bee8     raylib:rcore.obj
 0002:00006f08       ??_C@_0BD@JJEOHKFC@GL_ARB_depth_clamp@ 000000014004bf08     raylib:rcore.obj
 0002:00006f20       ??_C@_0BF@OKLDDGBF@GL_ARB_depth_texture@ 000000014004bf20     raylib:rcore.obj
 0002:00006f38       ??_C@_0BL@PDNNCIDH@GL_ARB_direct_state_access@ 000000014004bf38     raylib:rcore.obj
 0002:00006f58       ??_C@_0BE@PIDMLBFI@GL_ARB_draw_buffers@ 000000014004bf58     raylib:rcore.obj
 0002:00006f70       ??_C@_0BK@EPBDCMLE@GL_ARB_draw_buffers_blend@ 000000014004bf70     raylib:rcore.obj
 0002:00006f90       ??_C@_0CB@BLEOOCCF@GL_ARB_draw_elements_base_verte@ 000000014004bf90     raylib:rcore.obj
 0002:00006fb8       ??_C@_0BF@OIHOMOBN@GL_ARB_draw_indirect@ 000000014004bfb8     raylib:rcore.obj
 0002:00006fd0       ??_C@_0BG@PNHOPBOL@GL_ARB_draw_instanced@ 000000014004bfd0     raylib:rcore.obj
 0002:00006fe8       ??_C@_0BI@LFEBAIDE@GL_ARB_enhanced_layouts@ 000000014004bfe8     raylib:rcore.obj
 0002:00007000       ??_C@_0CA@KNDMFIPG@GL_ARB_explicit_attrib_location@ 000000014004c000     raylib:rcore.obj
 0002:00007020       ??_C@_0CB@FHPCHNPI@GL_ARB_explicit_uniform_locatio@ 000000014004c020     raylib:rcore.obj
 0002:00007048       ??_C@_0CC@FMGHNLMA@GL_ARB_fragment_coord_conventio@ 000000014004c048     raylib:rcore.obj
 0002:00007070       ??_C@_0BP@JOPGEIBH@GL_ARB_fragment_layer_viewport@ 000000014004c070     raylib:rcore.obj
 0002:00007090       ??_C@_0BI@LELAEDDA@GL_ARB_fragment_program@ 000000014004c090     raylib:rcore.obj
 0002:000070a8       ??_C@_0BP@CFLKPHCH@GL_ARB_fragment_program_shadow@ 000000014004c0a8     raylib:rcore.obj
 0002:000070c8       ??_C@_0BH@MOFIMEJB@GL_ARB_fragment_shader@ 000000014004c0c8     raylib:rcore.obj
 0002:000070e0       ??_C@_0CB@MHNHALLG@GL_ARB_fragment_shader_interloc@ 000000014004c0e0     raylib:rcore.obj
 0002:00007108       ??_C@_0CC@CGMKCMOO@GL_ARB_framebuffer_no_attachmen@ 000000014004c108     raylib:rcore.obj
 0002:00007130       ??_C@_0BK@EJHLNENJ@GL_ARB_framebuffer_object@ 000000014004c130     raylib:rcore.obj
 0002:00007150       ??_C@_0BI@EPKNGDDL@GL_ARB_framebuffer_sRGB@ 000000014004c150     raylib:rcore.obj
 0002:00007168       ??_C@_0BI@DHMGIOF@GL_ARB_geometry_shader4@ 000000014004c168     raylib:rcore.obj
 0002:00007180       ??_C@_0BK@HNPMALLK@GL_ARB_get_program_binary@ 000000014004c180     raylib:rcore.obj
 0002:000071a0       ??_C@_0BN@IAACIKEI@GL_ARB_get_texture_sub_image@ 000000014004c1a0     raylib:rcore.obj
 0002:000071c0       ??_C@_0BA@DOLDGDCB@GL_ARB_gl_spirv@ 000000014004c1c0     raylib:rcore.obj
 0002:000071d0       ??_C@_0BD@PDEHIDCA@GL_ARB_gpu_shader5@ 000000014004c1d0     raylib:rcore.obj
 0002:000071e8       ??_C@_0BH@JHCDBEBL@GL_ARB_gpu_shader_fp64@ 000000014004c1e8     raylib:rcore.obj
 0002:00007200       ??_C@_0BI@CNMHMGOB@GL_ARB_gpu_shader_int64@ 000000014004c200     raylib:rcore.obj
 0002:00007218       ??_C@_0BI@DMCPNBMK@GL_ARB_half_float_pixel@ 000000014004c218     raylib:rcore.obj
 0002:00007230       ??_C@_0BJ@CFLNBBBE@GL_ARB_half_float_vertex@ 000000014004c230     raylib:rcore.obj
 0002:00007250       ??_C@_0BI@GEEEIEIJ@GL_ARB_instanced_arrays@ 000000014004c250     raylib:rcore.obj
 0002:00007268       ??_C@_0BM@CAEGIJIO@GL_ARB_internalformat_query@ 000000014004c268     raylib:rcore.obj
 0002:00007288       ??_C@_0BN@OHFALMNP@GL_ARB_internalformat_query2@ 000000014004c288     raylib:rcore.obj
 0002:000072a8       ??_C@_0BI@KIPAKECP@GL_ARB_map_buffer_range@ 000000014004c2a8     raylib:rcore.obj
 0002:000072c0       ??_C@_0BC@HHGOLJHF@GL_ARB_multi_bind@ 000000014004c2c0     raylib:rcore.obj
 0002:000072d8       ??_C@_0BL@PDDLDNGB@GL_ARB_multi_draw_indirect@ 000000014004c2d8     raylib:rcore.obj
 0002:000072f8       ??_C@_0BD@PNEOICHK@GL_ARB_multisample@ 000000014004c2f8     raylib:rcore.obj
 0002:00007310       ??_C@_0BE@MEMOPMEA@GL_ARB_multitexture@ 000000014004c310     raylib:rcore.obj
 0002:00007328       ??_C@_0BH@NKOBMOPI@GL_ARB_occlusion_query@ 000000014004c328     raylib:rcore.obj
 0002:00007340       ??_C@_0BI@FOMMMPJB@GL_ARB_occlusion_query2@ 000000014004c340     raylib:rcore.obj
 0002:00007358       ??_C@_0CB@HBLEHCJL@GL_ARB_pipeline_statistics_quer@ 000000014004c358     raylib:rcore.obj
 0002:00007380       ??_C@_0BL@MHPJGAHK@GL_ARB_query_buffer_object@ 000000014004c380     raylib:rcore.obj
 0002:000073a0       ??_C@_0BI@PPFNMEHA@GL_ARB_sample_locations@ 000000014004c3a0     raylib:rcore.obj
 0002:000073b8       ??_C@_0BG@OGBJIDCC@GL_ARB_sample_shading@ 000000014004c3b8     raylib:rcore.obj
 0002:000073d0       ??_C@_0BJ@HMEOFOCO@GL_ARB_seamless_cube_map@ 000000014004c3d0     raylib:rcore.obj
 0002:000073f0       ??_C@_0CE@JBFBOCKL@GL_ARB_seamless_cubemap_per_tex@ 000000014004c3f0     raylib:rcore.obj
 0002:00007418       ??_C@_0CB@CMBKMJLH@GL_ARB_shader_atomic_counter_op@ 000000014004c418     raylib:rcore.obj
 0002:00007440       ??_C@_0BO@IIINIEKI@GL_ARB_shader_atomic_counters@ 000000014004c440     raylib:rcore.obj
 0002:00007460       ??_C@_0BL@OPPDFHHK@GL_ARB_shader_bit_encoding@ 000000014004c460     raylib:rcore.obj
 0002:00007480       ??_C@_0BE@FNKIALHB@GL_ARB_shader_clock@ 000000014004c480     raylib:rcore.obj
 0002:00007498       ??_C@_0BP@JHNJKEFP@GL_ARB_shader_image_load_store@ 000000014004c498     raylib:rcore.obj
 0002:000074b8       ??_C@_0BJ@JOHPBGOA@GL_ARB_shader_image_size@ 000000014004c4b8     raylib:rcore.obj
 0002:000074d8       ??_C@_0BG@OLLFAEMA@GL_ARB_shader_objects@ 000000014004c4d8     raylib:rcore.obj
 0002:000074f0       ??_C@_0CE@HBCJMOIO@GL_ARB_shader_storage_buffer_ob@ 000000014004c4f0     raylib:rcore.obj
 0002:00007518       ??_C@_0BK@JGFNKCEO@GL_ARB_shader_texture_lod@ 000000014004c518     raylib:rcore.obj
 0002:00007538       ??_C@_0BM@IABMMANC@GL_ARB_shading_language_100@ 000000014004c538     raylib:rcore.obj
 0002:00007558       ??_C@_0CA@HPJCJBNO@GL_ARB_shading_language_420pack@ 000000014004c558     raylib:rcore.obj
 0002:00007578       ??_C@_0CA@DOHJAPBD@GL_ARB_shading_language_include@ 000000014004c578     raylib:rcore.obj
 0002:00007598       ??_C@_0CA@DMILIGJJ@GL_ARB_shading_language_packing@ 000000014004c598     raylib:rcore.obj
 0002:000075b8       ??_C@_0BI@ELHBHDFI@GL_ARB_spirv_extensions@ 000000014004c5b8     raylib:rcore.obj
 0002:000075d0       ??_C@_0BL@MJOBOBBG@GL_ARB_tessellation_shader@ 000000014004c5d0     raylib:rcore.obj
 0002:000075f0       ??_C@_0BM@CBHOGGCB@GL_ARB_texture_border_clamp@ 000000014004c5f0     raylib:rcore.obj
 0002:00007610       ??_C@_0CD@GKFGJBEP@GL_ARB_texture_buffer_object_rg@ 000000014004c610     raylib:rcore.obj
 0002:00007638       ??_C@_0BL@PEFPCGDJ@GL_ARB_texture_compression@ 000000014004c638     raylib:rcore.obj
 0002:00007658       ??_C@_0BI@GGDPEJMJ@GL_ARB_texture_cube_map@ 000000014004c658     raylib:rcore.obj
 0002:00007670       ??_C@_0BO@GEOPNHJA@GL_ARB_texture_cube_map_array@ 000000014004c670     raylib:rcore.obj
 0002:00007690       ??_C@_0BH@NLEFBDKH@GL_ARB_texture_env_add@ 000000014004c690     raylib:rcore.obj
 0002:000076a8       ??_C@_0CC@HOPEEMOD@GL_ARB_texture_filter_anisotrop@ 000000014004c6a8     raylib:rcore.obj
 0002:000076d0       ??_C@_0BN@MGHOIDFB@GL_ARB_texture_filter_minmax@ 000000014004c6d0     raylib:rcore.obj
 0002:000076f0       ??_C@_0BF@IMLAOOOI@GL_ARB_texture_float@ 000000014004c6f0     raylib:rcore.obj
 0002:00007708       ??_C@_0CE@HPKFBBOA@GL_ARB_texture_mirror_clamp_to_@ 000000014004c708     raylib:rcore.obj
 0002:00007730       ??_C@_0BP@ELHJKLAO@GL_ARB_texture_mirrored_repeat@ 000000014004c730     raylib:rcore.obj
 0002:00007750       ??_C@_0BL@JLKLCCCH@GL_ARB_texture_multisample@ 000000014004c750     raylib:rcore.obj
 0002:00007770       ??_C@_0CA@IICOLDCN@GL_ARB_texture_non_power_of_two@ 000000014004c770     raylib:rcore.obj
 0002:00007790       ??_C@_0BC@DGGKEDEG@GL_ARB_texture_rg@ 000000014004c790     raylib:rcore.obj
 0002:000077a8       ??_C@_0BH@KEOKNPHF@GL_ARB_texture_storage@ 000000014004c7a8     raylib:rcore.obj
 0002:000077c0       ??_C@_0BH@PIGGFCEL@GL_ARB_texture_swizzle@ 000000014004c7c0     raylib:rcore.obj
 0002:000077d8       ??_C@_0BE@HCMLPJMK@GL_ARB_texture_view@ 000000014004c7d8     raylib:rcore.obj
 0002:000077f0       ??_C@_0BD@HBOIOKNA@GL_ARB_timer_query@ 000000014004c7f0     raylib:rcore.obj
 0002:00007808       ??_C@_0BI@OLAKMOK@GL_ARB_transpose_matrix@ 000000014004c808     raylib:rcore.obj
 0002:00007820       ??_C@_0BN@GLDJDGLC@GL_ARB_uniform_buffer_object@ 000000014004c820     raylib:rcore.obj
 0002:00007840       ??_C@_0BJ@JBPDEAAE@GL_ARB_vertex_array_bgra@ 000000014004c840     raylib:rcore.obj
 0002:00007860       ??_C@_0BL@PNJKGHIL@GL_ARB_vertex_array_object@ 000000014004c860     raylib:rcore.obj
 0002:00007880       ??_C@_0BN@BGEDEMFB@GL_ARB_vertex_attrib_binding@ 000000014004c880     raylib:rcore.obj
 0002:000078a0       ??_C@_0BM@OOMEFFAE@GL_ARB_vertex_buffer_object@ 000000014004c8a0     raylib:rcore.obj
 0002:000078c0       ??_C@_0BG@LDHOGOBF@GL_ARB_vertex_program@ 000000014004c8c0     raylib:rcore.obj
 0002:000078d8       ??_C@_0BF@GNLBPIJF@GL_ARB_vertex_shader@ 000000014004c8d8     raylib:rcore.obj
 0002:000078f0       ??_C@_0BG@LGPGBHPD@GL_EXT_draw_instanced@ 000000014004c8f0     raylib:rcore.obj
 0002:00007908       ??_C@_0BB@KKBCECGP@GL_EXT_fog_coord@ 000000014004c908     raylib:rcore.obj
 0002:00007920       ??_C@_0BI@HCGEDMJI@GL_EXT_framebuffer_blit@ 000000014004c920     raylib:rcore.obj
 0002:00007938       ??_C@_0BP@MBELPLHD@GL_EXT_framebuffer_multisample@ 000000014004c938     raylib:rcore.obj
 0002:00007958       ??_C@_0BK@GDONINOA@GL_EXT_framebuffer_object@ 000000014004c958     raylib:rcore.obj
 0002:00007978       ??_C@_0BI@IENPPHKH@GL_EXT_framebuffer_sRGB@ 000000014004c978     raylib:rcore.obj
 0002:00007990       ??_C@_0CA@DJMDGOCK@GL_EXT_texture_compression_s3tc@ 000000014004c990     raylib:rcore.obj
 0002:000079b0       ??_C@_0CC@BCHFGKCK@GL_EXT_texture_filter_anisotrop@ 000000014004c9b0     raylib:rcore.obj
 0002:000079d8       ??_C@_0BM@EKJOCDLJ@GL_EXT_texture_mirror_clamp@ 000000014004c9d8     raylib:rcore.obj
 0002:000079f8       ??_C@_0CE@GOHKANGN@GL_KHR_texture_compression_astc@ 000000014004c9f8     raylib:rcore.obj
 0002:00007a20       ??_C@_0CE@OBBIJKDK@GL_KHR_texture_compression_astc@ 000000014004ca20     raylib:rcore.obj
 0002:00007a48       ??_C@_0CD@DGCCJINL@GL_OES_compressed_paletted_text@ 000000014004ca48     raylib:rcore.obj
 0002:00007a70       ??_C@_0BD@OFIMJHDA@GL_OES_fixed_point@ 000000014004ca70     raylib:rcore.obj
 0002:00007a88       ??_C@_0O@ENGHJHNB@OpenGL?5ES?9CM?5@ 000000014004ca88     raylib:rcore.obj
 0002:00007a98       ??_C@_0O@EMKFPNOG@OpenGL?5ES?9CL?5@ 000000014004ca98     raylib:rcore.obj
 0002:00007aa8       ??_C@_0L@JLFHOCGA@OpenGL?5ES?5@ 000000014004caa8     raylib:rcore.obj
 0002:00007ab8       ??_C@_0L@PCADEJFD@OpenGL?5SC?5@ 000000014004cab8     raylib:rcore.obj
 0002:00007ac4       ??_C@_05KBEOJPB@?$CFd?4?$CFd@ 000000014004cac4     raylib:rcore.obj
 0002:00007ad0       ??_C@_0DH@MBMLNOHJ@RLGL?3?5Matrix?5stack?5overflow?5?$CIRL@ 000000014004cad0     raylib:rcore.obj
 0002:00007b08       ??_C@_0DF@FGCKIGPG@TEXTURE?3?5?$FLID?5?$CFi?$FN?5Default?5textur@ 000000014004cb08     raylib:rcore.obj
 0002:00007b40       ??_C@_0CI@BMJCFFIE@TEXTURE?3?5Failed?5to?5load?5default@ 000000014004cb40     raylib:rcore.obj
 0002:00007b68       ??_C@_0DE@FHILPKPE@RLGL?3?5Default?5OpenGL?5state?5init@ 000000014004cb68     raylib:rcore.obj
 0002:00007ba0       ??_C@_0CE@MIHLKBCJ@GLAD?3?5Cannot?5load?5OpenGL?5extens@ 000000014004cba0     raylib:rcore.obj
 0002:00007bc8       ??_C@_0CM@JMACFONN@GLAD?3?5OpenGL?5extensions?5loaded?5@ 000000014004cbc8     raylib:rcore.obj
 0002:00007bf8       ??_C@_0CD@KPOLOBPO@GL?3?5Supported?5extensions?5count?3@ 000000014004cbf8     raylib:rcore.obj
 0002:00007c20       ??_C@_0BP@DMKCINOP@GL?3?5OpenGL?5device?5information?3@ 000000014004cc20     raylib:rcore.obj
 0002:00007c40       ??_C@_0BD@HFFOJDHJ@?5?5?5?5?$DO?5Vendor?3?5?5?5?$CFs@ 000000014004cc40     raylib:rcore.obj
 0002:00007c58       ??_C@_0BD@JOECMMPA@?5?5?5?5?$DO?5Renderer?3?5?$CFs@ 000000014004cc58     raylib:rcore.obj
 0002:00007c70       ??_C@_0BD@PFLDOOMN@?5?5?5?5?$DO?5Version?3?5?5?$CFs@ 000000014004cc70     raylib:rcore.obj
 0002:00007c88       ??_C@_0BD@MKELHLHC@?5?5?5?5?$DO?5GLSL?3?5?5?5?5?5?$CFs@ 000000014004cc88     raylib:rcore.obj
 0002:00007ca0       ??_C@_0DO@PKDNONCL@GL?3?5VAO?5extension?5detected?0?5VAO@ 000000014004cca0     raylib:rcore.obj
 0002:00007ce0       ??_C@_0CP@JGHHKHGE@GL?3?5VAO?5extension?5not?5found?0?5VA@ 000000014004cce0     raylib:rcore.obj
 0002:00007d10       ??_C@_0ED@KAPNGPCN@GL?3?5NPOT?5textures?5extension?5det@ 000000014004cd10     raylib:rcore.obj
 0002:00007d60       ??_C@_0FE@BJEAALAA@GL?3?5NPOT?5textures?5extension?5not@ 000000014004cd60     raylib:rcore.obj
 0002:00007db8       ??_C@_0CG@HKMHPAEI@GL?3?5DXT?5compressed?5textures?5sup@ 000000014004cdb8     raylib:rcore.obj
 0002:00007de0       ??_C@_0CH@HNEGPGHN@GL?3?5ETC1?5compressed?5textures?5su@ 000000014004cde0     raylib:rcore.obj
 0002:00007e08       ??_C@_0CL@EMAAHEGC@GL?3?5ETC2?1EAC?5compressed?5texture@ 000000014004ce08     raylib:rcore.obj
 0002:00007e38       ??_C@_0CH@BMACLOIH@GL?3?5PVRT?5compressed?5textures?5su@ 000000014004ce38     raylib:rcore.obj
 0002:00007e60       ??_C@_0CH@DJAOOGLM@GL?3?5ASTC?5compressed?5textures?5su@ 000000014004ce60     raylib:rcore.obj
 0002:00007e88       ??_C@_0BO@BJBHILDL@GL?3?5Compute?5shaders?5supported@ 000000014004ce88     raylib:rcore.obj
 0002:00007ea8       ??_C@_0CM@LDBKOGGK@GL?3?5Shader?5storage?5buffer?5objec@ 000000014004cea8     raylib:rcore.obj
 0002:00007ee0       ??_C@_0ED@CGJBLFFM@RLGL?3?5Render?5batch?5vertex?5buffe@ 000000014004cee0     raylib:rcore.obj
 0002:00007f30       ??_C@_0EE@BOAOIHPM@RLGL?3?5Render?5batch?5vertex?5buffe@ 000000014004cf30     raylib:rcore.obj
 0002:00007f78       ??_C@_0DA@OHGDNAHP@GL?3?5DXT?5compressed?5texture?5form@ 000000014004cf78     raylib:rcore.obj
 0002:00007fa8       ??_C@_0DB@EAJFFLED@GL?3?5ETC1?5compressed?5texture?5for@ 000000014004cfa8     raylib:rcore.obj
 0002:00007fe0       ??_C@_0DB@HIKONADA@GL?3?5ETC2?5compressed?5texture?5for@ 000000014004cfe0     raylib:rcore.obj
 0002:00008018       ??_C@_0DB@KCKHGNEK@GL?3?5PVRT?5compressed?5texture?5for@ 000000014004d018     raylib:rcore.obj
 0002:00008050       ??_C@_0DB@DBBEPEJP@GL?3?5ASTC?5compressed?5texture?5for@ 000000014004d050     raylib:rcore.obj
 0002:00008090       ??_C@_0EH@NPMDEFEH@TEXTURE?3?5?$FLID?5?$CFi?$FN?5Texture?5loaded@ 000000014004d090     raylib:rcore.obj
 0002:000080d8       ??_C@_0CA@BCDLNMIH@TEXTURE?3?5Failed?5to?5load?5texture@ 000000014004d0d8     raylib:rcore.obj
 0002:000080f8       ??_C@_0CL@EGHGJJCC@TEXTURE?3?5Current?5format?5not?5sup@ 000000014004d0f8     raylib:rcore.obj
 0002:00008128       ??_C@_0DF@KDELOOND@SHADER?3?5?$FLID?5?$CFi?$FN?5Failed?5to?5compi@ 000000014004d128     raylib:rcore.obj
 0002:00008160       ??_C@_0DH@JHFNDIDJ@SHADER?3?5?$FLID?5?$CFi?$FN?5Failed?5to?5compi@ 000000014004d160     raylib:rcore.obj
 0002:00008198       ??_C@_0CC@OGCNDPOO@SHADER?3?5?$FLID?5?$CFi?$FN?5Compile?5error?3?5@ 000000014004d198     raylib:rcore.obj
 0002:000081c0       ??_C@_0DE@DOFAJMAA@SHADER?3?5?$FLID?5?$CFi?$FN?5Vertex?5shader?5c@ 000000014004d1c0     raylib:rcore.obj
 0002:000081f8       ??_C@_0DG@FLPPDLKN@SHADER?3?5?$FLID?5?$CFi?$FN?5Fragment?5shader@ 000000014004d1f8     raylib:rcore.obj
 0002:00008230       ??_C@_0P@EGGGMMKH@vertexPosition@ 000000014004d230     raylib:rcore.obj
 0002:00008240       ??_C@_0P@PCDANCCP@vertexTexCoord@ 000000014004d240     raylib:rcore.obj
 0002:00008250       ??_C@_0N@ENFDCLEE@vertexNormal@ 000000014004d250     raylib:rcore.obj
 0002:00008260       ??_C@_0M@MLHNJHJN@vertexColor@ 000000014004d260     raylib:rcore.obj
 0002:00008270       ??_C@_0O@DFKJKFJG@vertexTangent@ 000000014004d270     raylib:rcore.obj
 0002:00008280       ??_C@_0BA@EGFDFJPK@vertexTexCoord2@ 000000014004d280     raylib:rcore.obj
 0002:00008290       ??_C@_0CO@FPIAMMHF@SHADER?3?5?$FLID?5?$CFi?$FN?5Failed?5to?5link?5@ 000000014004d290     raylib:rcore.obj
 0002:000082c0       ??_C@_0BP@CPELMPBG@SHADER?3?5?$FLID?5?$CFi?$FN?5Link?5error?3?5?$CFs@ 000000014004d2c0     raylib:rcore.obj
 0002:000082e0       ??_C@_0DD@NOBFHNKB@SHADER?3?5?$FLID?5?$CFi?$FN?5Program?5shader?5@ 000000014004d2e0     raylib:rcore.obj
 0002:00008318       ??_C@_0DO@KPMIACGJ@SHADER?3?5Failed?5to?5set?5uniform?5v@ 000000014004d318     raylib:rcore.obj
 0002:00008360       ??_C@_0EF@CEAOCPNE@SHADER?3?5Failed?5to?5set?5attrib?5de@ 000000014004d360     raylib:rcore.obj
 0002:000083a8       ??_C@_09CNKCCEML@GRAYSCALE@ 000000014004d3a8     raylib:rcore.obj
 0002:000083b8       ??_C@_0L@IFBGLDOC@GRAY_ALPHA@ 000000014004d3b8     raylib:rcore.obj
 0002:000083c4       ??_C@_06GMNCPGDN@R5G6B5@   000000014004d3c4     raylib:rcore.obj
 0002:000083cc       ??_C@_06IFDNOMJN@R8G8B8@   000000014004d3cc     raylib:rcore.obj
 0002:000083d8       ??_C@_08PKHOBKO@R5G5B5A1@  000000014004d3d8     raylib:rcore.obj
 0002:000083e8       ??_C@_08MNJKKBLF@R4G4B4A4@ 000000014004d3e8     raylib:rcore.obj
 0002:000083f8       ??_C@_08LJEIEDF@R8G8B8A8@  000000014004d3f8     raylib:rcore.obj
 0002:00008404       ??_C@_03HEOCOIHC@R32@      000000014004d404     raylib:rcore.obj
 0002:00008408       ??_C@_09FDCDCDPH@R32G32B32@ 000000014004d408     raylib:rcore.obj
 0002:00008418       ??_C@_0N@EELAFDPF@R32G32B32A32@ 000000014004d418     raylib:rcore.obj
 0002:00008428       ??_C@_03BDAKPJBI@R16@      000000014004d428     raylib:rcore.obj
 0002:00008430       ??_C@_09CGDPBDCK@R16G16B16@ 000000014004d430     raylib:rcore.obj
 0002:00008440       ??_C@_0N@GNEOIODF@R16G16B16A16@ 000000014004d440     raylib:rcore.obj
 0002:00008450       ??_C@_08GICKGBHE@DXT1_RGB@ 000000014004d450     raylib:rcore.obj
 0002:00008460       ??_C@_09LOGCOBAA@DXT1_RGBA@ 000000014004d460     raylib:rcore.obj
 0002:00008470       ??_C@_09CJPNPACJ@DXT3_RGBA@ 000000014004d470     raylib:rcore.obj
 0002:00008480       ??_C@_09EKCNMFBD@DXT5_RGBA@ 000000014004d480     raylib:rcore.obj
 0002:00008490       ??_C@_08IKIHMCDI@ETC1_RGB@ 000000014004d490     raylib:rcore.obj
 0002:000084a0       ??_C@_08MBDLAJG@ETC2_RGB@  000000014004d4a0     raylib:rcore.obj
 0002:000084b0       ??_C@_09PAACFLIF@ETC2_RGBA@ 000000014004d4b0     raylib:rcore.obj
 0002:000084c0       ??_C@_08LHGFMLOI@PVRT_RGB@ 000000014004d4c0     raylib:rcore.obj
 0002:000084d0       ??_C@_09EHAEHBMF@PVRT_RGBA@ 000000014004d4d0     raylib:rcore.obj
 0002:000084e0       ??_C@_0O@NIKPDAF@ASTC_4x4_RGBA@ 000000014004d4e0     raylib:rcore.obj
 0002:000084f0       ??_C@_0O@CMBOGKGF@ASTC_8x8_RGBA@ 000000014004d4f0     raylib:rcore.obj
 0002:00008500       ??_C@_07NFANNNEC@UNKNOWN@  000000014004d500     raylib:rcore.obj
 0002:00008510       ??_C@_0BOD@NDEPPKNF@?$CDversion?5330?5?5?5?5?5?5?5?5?5?5?5?5?5?5?5?5?5?5?5@ 000000014004d510     raylib:rcore.obj
 0002:00008700       ??_C@_0BKJ@NKEHKPCF@?$CDversion?5330?5?5?5?5?5?5?5?6in?5vec2?5fra@ 000000014004d700     raylib:rcore.obj
 0002:000088b0       ??_C@_0DD@EGCFLIOB@SHADER?3?5?$FLID?5?$CFi?$FN?5Default?5shader?5@ 000000014004d8b0     raylib:rcore.obj
 0002:000088e4       ??_C@_03GILEGCCJ@mvp@      000000014004d8e4     raylib:rcore.obj
 0002:000088e8       ??_C@_0L@KOAPCBKJ@colDiffuse@ 000000014004d8e8     raylib:rcore.obj
 0002:000088f8       ??_C@_08CNIDOFM@texture0@  000000014004d8f8     raylib:rcore.obj
 0002:00008908       ??_C@_0CO@BJPCDHBM@SHADER?3?5?$FLID?5?$CFi?$FN?5Failed?5to?5load?5@ 000000014004d908     raylib:rcore.obj
 0002:00008938       ??_C@_0BD@PFMFNFHK@?$CB?y?$AE?$AF?$AA?$AA?$AA?$AA?0?$AA?$AA?$AA?$AA?$AA?$AA?$AA?$AA?$IA@ 000000014004d938     raylib:rcore.obj
 0002:00008950       ??_C@_0CB@JCCMPHBN@GIF89a?$AA?$AA?$AA?$AAp?$AA?$AA?$CB?$PP?$ALNETSCAPE2?40?$AD?$AB?$AA?$AA@ 000000014004d950     raylib:rcore.obj
 0002:00008978       ??_C@_0DF@BGFIAMFD@GLFW?3?5Failed?5to?5find?5video?5mode@ 000000014004d978     raylib:rcore.obj
 0002:000089b0       ??_C@_0CG@NEFLGKON@GLFW?3?5Failed?5to?5find?5selected?5m@ 000000014004d9b0     raylib:rcore.obj
 0002:000089d8       ??_C@_0CA@CEAIPFAP@GLFW?3?5Failed?5to?5initialize?5GLFW@ 000000014004d9d8     raylib:rcore.obj
 0002:000089f8       ??_C@_0CC@BMCJIHDD@DISPLAY?3?5Trying?5to?5enable?5MSAA?5@ 000000014004d9f8     raylib:rcore.obj
 0002:00008a20       ??_C@_0CE@IHMCLCOO@GLFW?3?5Failed?5to?5get?5primary?5mon@ 000000014004da20     raylib:rcore.obj
 0002:00008a48       ??_C@_0CO@PCJHNFMB@SYSTEM?3?5Closest?5fullscreen?5vide@ 000000014004da48     raylib:rcore.obj
 0002:00008a78       ??_C@_01CLKCMJKC@?5@       000000014004da78     raylib:rcore.obj
 0002:00008a80       ??_C@_0CC@EKCKGGLJ@GLFW?3?5Failed?5to?5initialize?5Wind@ 000000014004da80     raylib:rcore.obj
 0002:00008aa8       ??_C@_0CA@NOODCPGG@DISPLAY?3?5Trying?5to?5enable?5VSYNC@ 000000014004daa8     raylib:rcore.obj
 0002:00008ac8       ??_C@_0CJ@OJALBPOF@DISPLAY?3?5Device?5initialized?5suc@ 000000014004dac8     raylib:rcore.obj
 0002:00008af8       ??_C@_0BM@LPCDJOLO@?5?5?5?5?$DO?5Display?5size?3?5?$CFi?5x?5?$CFi@ 000000014004daf8     raylib:rcore.obj
 0002:00008b18       ??_C@_0BM@FGNNGKCG@?5?5?5?5?$DO?5Screen?5size?3?5?5?$CFi?5x?5?$CFi@ 000000014004db18     raylib:rcore.obj
 0002:00008b38       ??_C@_0BM@NBJDOMJK@?5?5?5?5?$DO?5Render?5size?3?5?5?$CFi?5x?5?$CFi@ 000000014004db38     raylib:rcore.obj
 0002:00008b58       ??_C@_0BP@JAIKIGCD@?5?5?5?5?$DO?5Viewport?5offsets?3?5?$CFi?0?5?$CFi@ 000000014004db58     raylib:rcore.obj
 0002:00008b78       ??_C@_0CP@NEFMGCJH@PLATFORM?3?5Failed?5to?5initialize?5@ 000000014004db78     raylib:rcore.obj
 0002:00008ba8       ??_C@_0CO@OMMBOJF@PLATFORM?3?5Failed?5to?5initialize?5@ 000000014004dba8     raylib:rcore.obj
 0002:00008bd8       ??_C@_0DD@DPEEEPFD@PLATFORM?3?5DESKTOP?5?$CIGLFW?$CJ?3?5Initi@ 000000014004dbd8     raylib:rcore.obj
 0002:00008c10       ??_C@_0CA@KNPBNJNH@GLFW?3?5Error?3?5?$CFi?5Description?3?5?$CFs@ 000000014004dc10     raylib:rcore.obj
 0002:00008c30       ??_C@_0BH@BKCNLB@Initializing?5raylib?5?$CFs@ 000000014004dc30     raylib:rcore.obj
 0002:00008c48       ??_C@_0CB@NPNPKFDL@Platform?5backend?3?5DESKTOP?5?$CIGLFW@ 000000014004dc48     raylib:rcore.obj
 0002:00008c70       ??_C@_0BK@GMBOAHN@Supported?5raylib?5modules?3@ 000000014004dc70     raylib:rcore.obj
 0002:00008c90       ??_C@_0CF@EALMKPBH@?5?5?5?5?$DO?5rcore?3?4?4?4?4?4?5loaded?5?$CImanda@ 000000014004dc90     raylib:rcore.obj
 0002:00008cb8       ??_C@_0CF@BMDOLHBA@?5?5?5?5?$DO?5rlgl?3?4?4?4?4?4?4?5loaded?5?$CImanda@ 000000014004dcb8     raylib:rcore.obj
 0002:00008ce0       ??_C@_0CE@CFFOEMAM@?5?5?5?5?$DO?5rshapes?3?4?4?4?5loaded?5?$CIoptio@ 000000014004dce0     raylib:rcore.obj
 0002:00008d08       ??_C@_0CE@GGPPPMNM@?5?5?5?5?$DO?5rtextures?3?4?5loaded?5?$CIoptio@ 000000014004dd08     raylib:rcore.obj
 0002:00008d30       ??_C@_0CE@GGMNOCGJ@?5?5?5?5?$DO?5rtext?3?4?4?4?4?4?5loaded?5?$CIoptio@ 000000014004dd30     raylib:rcore.obj
 0002:00008d58       ??_C@_0CE@HJLEDPON@?5?5?5?5?$DO?5rmodels?3?4?4?4?5loaded?5?$CIoptio@ 000000014004dd58     raylib:rcore.obj
 0002:00008d80       ??_C@_0CE@KLBHNCFO@?5?5?5?5?$DO?5raudio?3?4?4?4?4?5loaded?5?$CIoptio@ 000000014004dd80     raylib:rcore.obj
 0002:00008da8       ??_C@_0O@JKEKDEOE@GIF?5RECORDING@ 000000014004dda8     raylib:rcore.obj
 0002:00008db8       ??_C@_0BF@PDLNPMEG@?$CFs?1screenrec?$CF03i?4gif@ 000000014004ddb8     raylib:rcore.obj
 0002:00008dd0       ??_C@_0CG@MNCIDGGG@SYSTEM?3?5Finish?5animated?5GIF?5rec@ 000000014004ddd0     raylib:rcore.obj
 0002:00008df8       ??_C@_0BC@MKDJKCFF@screenrec?$CF03i?4gif@ 000000014004ddf8     raylib:rcore.obj
 0002:00008e10       ??_C@_0CJ@HPCODHA@SYSTEM?3?5Start?5animated?5GIF?5reco@ 000000014004de10     raylib:rcore.obj
 0002:00008e40       ??_C@_0BD@KFEDDJAG@screenshot?$CF03i?4png@ 000000014004de40     raylib:rcore.obj
 0002:00008e58       ??_C@_0DD@LADPCHDD@TIMER?3?5Target?5time?5per?5frame?3?5?$CF@ 000000014004de58     raylib:rcore.obj
 0002:00008e90       ??_C@_0EO@BNAMMKO@SYSTEM?3?5Provided?5fileName?5could@ 000000014004de90     raylib:rcore.obj
 0002:00008ee0       ??_C@_05GFOLEBJA@?$CFs?1?$CFs@ 000000014004dee0     raylib:rcore.obj
 0002:00008ee8       ??_C@_0CL@DFFNPMCE@SYSTEM?3?5?$FL?$CFs?$FN?5Screenshot?5taken?5s@ 000000014004dee8     raylib:rcore.obj
 0002:00008f18       ??_C@_0CL@LLKDAGFA@SYSTEM?3?5?$FL?$CFs?$FN?5Screenshot?5could?5n@ 000000014004df18     raylib:rcore.obj
 0002:00008f44       ??_C@_02HHAEMJFE@?2?1@     000000014004df44     raylib:rcore.obj
 0002:00008f50       ??_C@_0FH@JOBGFLCF@DISPLAY?3?5Downscaling?5required?3?5@ 000000014004df50     raylib:rcore.obj
 0002:00008fb0       ??_C@_0EJ@JDCMOOJD@DISPLAY?3?5Downscale?5matrix?5gener@ 000000014004dfb0     raylib:rcore.obj
 0002:00009000       ??_C@_0FD@KNPAPAC@DISPLAY?3?5Upscaling?5required?3?5Sc@ 000000014004e000     raylib:rcore.obj
 0002:00009060       ??_C@_0FA@FKEOGDCH@AUTOMATION?3?5Frame?3?5?$CFi?5?$HM?5Event?5t@ 000000014004e060     raylib:rcore.obj
 0002:000090b0       ??_C@_0FC@BAHMFANP@AUTOMATION?3?5Frame?3?5?$CFi?5?$HM?5Event?5t@ 000000014004e0b0     raylib:rcore.obj
 0002:00009110       ??_C@_0FJ@CKFFPIGP@AUTOMATION?3?5Frame?3?5?$CFi?5?$HM?5Event?5t@ 000000014004e110     raylib:rcore.obj
 0002:00009170       ??_C@_0FL@EPABKPAF@AUTOMATION?3?5Frame?3?5?$CFi?5?$HM?5Event?5t@ 000000014004e170     raylib:rcore.obj
 0002:000091d0       ??_C@_0FI@CACKFBAK@AUTOMATION?3?5Frame?3?5?$CFi?5?$HM?5Event?5t@ 000000014004e1d0     raylib:rcore.obj
 0002:00009230       ??_C@_0FM@ELLEHCFM@AUTOMATION?3?5Frame?3?5?$CFi?5?$HM?5Event?5t@ 000000014004e230     raylib:rcore.obj
 0002:00009290       ??_C@_0FC@JBALCOCO@AUTOMATION?3?5Frame?3?5?$CFi?5?$HM?5Event?5t@ 000000014004e290     raylib:rcore.obj
 0002:000092f0       ??_C@_0FE@MJNDBNPO@AUTOMATION?3?5Frame?3?5?$CFi?5?$HM?5Event?5t@ 000000014004e2f0     raylib:rcore.obj
 0002:00009350       ??_C@_0FL@CKMLPFBH@AUTOMATION?3?5Frame?3?5?$CFi?5?$HM?5Event?5t@ 000000014004e350     raylib:rcore.obj
 0002:000093b0       ??_C@_0FN@NGFGCANI@AUTOMATION?3?5Frame?3?5?$CFi?5?$HM?5Event?5t@ 000000014004e3b0     raylib:rcore.obj
 0002:00009410       ??_C@_0FN@MGILGGKC@AUTOMATION?3?5Frame?3?5?$CFi?5?$HM?5Event?5t@ 000000014004e410     raylib:rcore.obj
 0002:00009470       ??_C@_0FB@EPKMMGG@AUTOMATION?3?5Frame?3?5?$CFi?5?$HM?5Event?5t@ 000000014004e470     raylib:rcore.obj
 0002:000094c4       __real@3851b717            000000014004e4c4     raylib:rcore.obj
 0002:000094c8       __real@3a83126f            000000014004e4c8     raylib:rcore.obj
 0002:000094cc       __real@3ba3d70a            000000014004e4cc     raylib:rcore.obj
 0002:000094d0       __real@3c8efa35            000000014004e4d0     raylib:rcore.obj
 0002:000094d4       __real@3ca3d70a            000000014004e4d4     raylib:rcore.obj
 0002:000094d8       __real@3f847ae147ae147b    000000014004e4d8     raylib:rcore.obj
 0002:000094e0       __real@3f91df46a0000000    000000014004e4e0     raylib:rcore.obj
 0002:000094e8       __real@3fa999999999999a    000000014004e4e8     raylib:rcore.obj
 0002:000094f0       __real@3fd3333340000000    000000014004e4f0     raylib:rcore.obj
 0002:000094f8       __real@3fe0000000000000    000000014004e4f8     raylib:rcore.obj
 0002:00009500       __real@3ff0000000000000    000000014004e500     raylib:rcore.obj
 0002:00009508       __real@40800000            000000014004e508     raylib:rcore.obj
 0002:00009510       __real@408f400000000000    000000014004e510     raylib:rcore.obj
 0002:00009518       __real@41f00000            000000014004e518     raylib:rcore.obj
 0002:0000951c       __real@42652ee0            000000014004e51c     raylib:rcore.obj
 0002:00009520       __real@43160000            000000014004e520     raylib:rcore.obj
 0002:00009524       __real@43520000            000000014004e524     raylib:rcore.obj
 0002:00009528       __real@43808000            000000014004e528     raylib:rcore.obj
 0002:0000952c       __real@43a50000            000000014004e52c     raylib:rcore.obj
 0002:00009530       __real@43b40000            000000014004e530     raylib:rcore.obj
 0002:00009534       __real@447a0000            000000014004e534     raylib:rcore.obj
 0002:00009538       __real@47000000            000000014004e538     raylib:rcore.obj
 0002:0000953c       __real@bf800000            000000014004e53c     raylib:rcore.obj
 0002:00009540       __xmm@0000000000000000000000003f800000 000000014004e540     raylib:rcore.obj
 0002:00009550       __xmm@00000000000000003f80000000000000 000000014004e550     raylib:rcore.obj
 0002:00009560       __xmm@000000003f8000000000000000000000 000000014004e560     raylib:rcore.obj
 0002:00009570       __xmm@00000000bf8000000000000000000000 000000014004e570     raylib:rcore.obj
 0002:00009580       __xmm@00000001000000010000000100000001 000000014004e580     raylib:rcore.obj
 0002:00009590       __xmm@00000001000019030000190300001903 000000014004e590     raylib:rcore.obj
 0002:000095a0       __xmm@000000ff000000ff000000ff000000ff 000000014004e5a0     raylib:rcore.obj
 0002:000095b0       __xmm@00001904000019030000190300001903 000000014004e5b0     raylib:rcore.obj
 0002:000095c0       __xmm@0000ffff0000ffff0000ffff0000ffff 000000014004e5c0     raylib:rcore.obj
 0002:000095d0       __xmm@00ff00ff00ff00ff00ff00ff00ff00ff 000000014004e5d0     raylib:rcore.obj
 0002:000095e0       __xmm@3f800000000000000000000000000000 000000014004e5e0     raylib:rcore.obj
 0002:000095f0       __xmm@3f8000003f8000000000000000000000 000000014004e5f0     raylib:rcore.obj
 0002:00009600       __xmm@3f8000003f8000003f8000003f800000 000000014004e600     raylib:rcore.obj
 0002:00009610       __xmm@408f4000000000003f847ae147ae147b 000000014004e610     raylib:rcore.obj
 0002:00009620       __xmm@7fffffff7fffffff7fffffff7fffffff 000000014004e620     raylib:rcore.obj
 0002:00009630       __xmm@80000000000000008000000000000000 000000014004e630     raylib:rcore.obj
 0002:00009640       __xmm@bca3d776bf8000a80000000000000000 000000014004e640     raylib:rcore.obj
 0002:00009650       __xmm@ffffffffffffffffffffffffffffffff 000000014004e650     raylib:rcore.obj
 0002:0000b190       ??_C@_02GMLFBBN@wb@        0000000140050190     raylib:rtextures.obj
 0002:0000b194       ??_C@_04EEOGCCFB@?4png@    0000000140050194     raylib:rtextures.obj
 0002:0000b19c       ??_C@_04GDBLACIN@?4qoi@    000000014005019c     raylib:rtextures.obj
 0002:0000b1a8       ??_C@_0DF@MCFGEHPC@IMAGE?3?5Image?5pixel?5format?5must?5@ 00000001400501a8     raylib:rtextures.obj
 0002:0000b1e0       ??_C@_04KPHBLPLG@?4raw@    00000001400501e0     raylib:rtextures.obj
 0002:0000b1e8       ??_C@_0CJ@PODMFKKI@FILEIO?3?5?$FL?$CFs?$FN?5Image?5exported?5suc@ 00000001400501e8     raylib:rtextures.obj
 0002:0000b218       ??_C@_0CE@FOGBHCGL@FILEIO?3?5?$FL?$CFs?$FN?5Failed?5to?5export?5i@ 0000000140050218     raylib:rtextures.obj
 0002:0000b240       ??_C@_0EH@JFKHCJNN@IMAGE?3?5Pixel?5data?5retrieval?5not@ 0000000140050240     raylib:rtextures.obj
 0002:0000b288       ??_C@_0DN@DBHCBDCL@IMAGE?3?5Pixel?5format?5converted?5f@ 0000000140050288     raylib:rtextures.obj
 0002:0000b2c8       ??_C@_0DN@NPIFBCLP@IMAGE?3?5Pixel?5format?5converted?5f@ 00000001400502c8     raylib:rtextures.obj
 0002:0000b308       ??_C@_0CJ@BINOGELE@IMAGE?3?5Data?5is?5not?5valid?5to?5loa@ 0000000140050308     raylib:rtextures.obj
 0002:0000b334       __real@03800000            0000000140050334     raylib:rtextures.obj
 0002:0000b338       __real@37800080            0000000140050338     raylib:rtextures.obj
 0002:0000b33c       __real@39000000            000000014005033c     raylib:rtextures.obj
 0002:0000b340       __real@3b808081            0000000140050340     raylib:rtextures.obj
 0002:0000b344       __real@3f7fffef            0000000140050344     raylib:rtextures.obj
 0002:0000b348       __real@3f7fffff            0000000140050348     raylib:rtextures.obj
 0002:0000b34c       __real@3f800008            000000014005034c     raylib:rtextures.obj
 0002:0000b350       __real@3fc00000            0000000140050350     raylib:rtextures.obj
 0002:0000b354       __real@40200000            0000000140050354     raylib:rtextures.obj
 0002:0000b358       __real@40400000            0000000140050358     raylib:rtextures.obj
 0002:0000b35c       __real@40c00000            000000014005035c     raylib:rtextures.obj
 0002:0000b360       __real@40e00000            0000000140050360     raylib:rtextures.obj
 0002:0000b364       __real@41400000            0000000140050364     raylib:rtextures.obj
 0002:0000b368       __real@41800000            0000000140050368     raylib:rtextures.obj
 0002:0000b36c       __real@41880000            000000014005036c     raylib:rtextures.obj
 0002:0000b370       __real@41900000            0000000140050370     raylib:rtextures.obj
 0002:0000b374       __real@41a80000            0000000140050374     raylib:rtextures.obj
 0002:0000b378       __real@42000000            0000000140050378     raylib:rtextures.obj
 0002:0000b37c       __real@42100000            000000014005037c     raylib:rtextures.obj
 0002:0000b380       __real@42700000            0000000140050380     raylib:rtextures.obj
 0002:0000b384       __real@477fff00            0000000140050384     raylib:rtextures.obj
 0002:0000b388       __real@47800000            0000000140050388     raylib:rtextures.obj
 0002:0000b38c       __real@77800000            000000014005038c     raylib:rtextures.obj
 0002:0000b390       __xmm@000000020000000400000000ffffffff 0000000140050390     raylib:rtextures.obj
 0002:0000b3a0       __xmm@37800080378000803780008037800080 00000001400503a0     raylib:rtextures.obj
 0002:0000b3b0       __xmm@3b8080813b8080813b8080813b808081 00000001400503b0     raylib:rtextures.obj
 0002:0000b3c0       fv                         00000001400503c0     raylib:rmodels.obj
 0002:0000b420       SolidVertex                0000000140050420     raylib:rmodels.obj
 0002:0000b490       ??_C@_0O@NALGGDJF@Out?5of?5memory@ 0000000140050490     raylib:rmodels.obj
 0002:0000b4a0       ??_C@_0DG@GGDBDKLI@VAO?3?5?$FLID?5?$CFi?$FN?5Trying?5to?5re?9load?5@ 00000001400504a0     raylib:rmodels.obj
 0002:0000b4d8       ??_C@_0DG@CHFEKGLO@VAO?3?5?$FLID?5?$CFi?$FN?5Mesh?5uploaded?5succ@ 00000001400504d8     raylib:rmodels.obj
 0002:0000b510       ??_C@_0CO@OHABKCNA@VBO?3?5Mesh?5uploaded?5successfully@ 0000000140050510     raylib:rmodels.obj
 0002:0000b540       ??_C@_01EEMJAFIK@?6@       0000000140050540     raylib:rmodels.obj
 0002:0000b544       __real@40c90fdb            0000000140050544     raylib:rmodels.obj
 0002:0000b548       ??_C@_06COOONKFB@INFO?3?5@ 0000000140050548     raylib:utils.obj
 0002:0000b550       ??_C@_09PIEMHOIP@WARNING?3?5@ 0000000140050550     raylib:utils.obj
 0002:0000b560       ??_C@_0CB@KNMLCOHG@FILEIO?3?5?$FL?$CFs?$FN?5Failed?5to?5open?5fil@ 0000000140050560     raylib:utils.obj
 0002:0000b588       ??_C@_0CI@DHDNJELP@FILEIO?3?5File?5name?5provided?5is?5n@ 0000000140050588     raylib:utils.obj
 0002:0000b5b0       ??_C@_0CC@MPKDEEEC@FILEIO?3?5?$FL?$CFs?$FN?5Failed?5to?5write?5fi@ 00000001400505b0     raylib:utils.obj
 0002:0000b5d8       ??_C@_0CE@PFOBPAKF@FILEIO?3?5?$FL?$CFs?$FN?5File?5partially?5wri@ 00000001400505d8     raylib:utils.obj
 0002:0000b600       ??_C@_0CF@FLMPCCIJ@FILEIO?3?5?$FL?$CFs?$FN?5File?5saved?5success@ 0000000140050600     raylib:utils.obj
 0002:0000b628       __real@42b40000            0000000140050628     raylib:rshapes.obj
 0002:0000b630       __xmm@00000007000000010000000100000001 0000000140050630     raylib:rshapes.obj
 0002:0000b640       ??_C@_0DD@JAJDKCJE@FONT?3?5Default?5font?5loaded?5succe@ 0000000140050640     raylib:rtext.obj
 0002:0000b674       ??_C@_03KHICJKCI@?4?4?4@   0000000140050674     raylib:rtext.obj
 0002:0000b680       __static@24667ed84b6328d9a11e1fb1b744448b36040e077ee976a63d751031120eed0d 0000000140050680     raylib:rtext.obj
 0002:0000be80       __static@4e91050465d6d8e91a74a30fb49829355dacb7dd92dcc8df6a5fc360bcd8e137 0000000140050e80     raylib:rtext.obj
 0002:0000c200       __xmm@00000002000000010000008000000080 0000000140051200     raylib:rtext.obj
 0002:0000c210       ??_C@_0BCA@ONDOMIFC@03000000300f00000a0100000000000@ 0000000140051210     raylib:rglfw.obj
 0002:0000c330       ??_C@_0HJ@JHOMOKB@03000000fa2d0000010000000000000@ 0000000140051330     raylib:rglfw.obj
 0002:0000c3b0       ??_C@_0BBE@CJKJIAEI@03000000d0160000040d00000000000@ 00000001400513b0     raylib:rglfw.obj
 0002:0000c4d0       ??_C@_0BBE@DNKHNAIG@03000000d0160000050d00000000000@ 00000001400514d0     raylib:rglfw.obj
 0002:0000c5f0       ??_C@_0BBE@BLFCBNE@03000000d0160000060d00000000000@ 00000001400515f0     raylib:rglfw.obj
 0002:0000c710       ??_C@_0BBE@BFLLHBBK@03000000d0160000070d00000000000@ 0000000140051710     raylib:rglfw.obj
 0002:0000c830       ??_C@_0BBE@JFMLAIAO@03000000d0160000600a00000000000@ 0000000140051830     raylib:rglfw.obj
 0002:0000c950       ??_C@_0BCE@MDJPAOGF@03000000c82d0000003100000000000@ 0000000140051950     raylib:rglfw.obj
 0002:0000ca80       ??_C@_0BCG@OLPAHAHO@03000000c82d0000053100000000000@ 0000000140051a80     raylib:rglfw.obj
 0002:0000cbb0       ??_C@_0LE@CACHEBGA@03000000c82d0000095100000000000@ 0000000140051bb0     raylib:rglfw.obj
 0002:0000cc70       ??_C@_0PK@DJMJJPAE@0300000000800000021000000000000@ 0000000140051c70     raylib:rglfw.obj
 0002:0000cd70       ??_C@_0BCF@KGCMLNGF@030000003512000011ab00000000000@ 0000000140051d70     raylib:rglfw.obj
 0002:0000cea0       ??_C@_0KI@IFGFLEPA@03000000c82d0000102800000000000@ 0000000140051ea0     raylib:rglfw.obj
 0002:0000cf50       ??_C@_0BDA@HEOKBJND@03000000c82d000011ab00000000000@ 0000000140051f50     raylib:rglfw.obj
 0002:0000d080       ??_C@_0BAH@JEGJOBCG@0300000080100000090000000000000@ 0000000140052080     raylib:rglfw.obj
 0002:0000d190       ??_C@_0BCE@CFNIKJCA@03000000c82d0000103800000000000@ 0000000140052190     raylib:rglfw.obj
 0002:0000d2c0       ??_C@_0BCF@MBPBHECE@03000000c82d0000009000000000000@ 00000001400522c0     raylib:rglfw.obj
 0002:0000d3f0       ??_C@_0BCE@GDELBOBM@03000000c82d0000125100000000000@ 00000001400523f0     raylib:rglfw.obj
 0002:0000d520       ??_C@_0BCF@HDNHLODJ@03000000c82d0000115100000000000@ 0000000140052520     raylib:rglfw.obj
 0002:0000d650       ??_C@_0NL@JFGCLDMC@03000000c82d0000015000000000000@ 0000000140052650     raylib:rglfw.obj
 0002:0000d730       ??_C@_0NL@OAJPCJDH@03000000c82d0000015100000000000@ 0000000140052730     raylib:rglfw.obj
 0002:0000d810       ??_C@_0OP@JIIIAIKK@03000000c82d0000065000000000000@ 0000000140052810     raylib:rglfw.obj
 0002:0000d900       ??_C@_0NJ@HEMPIJCJ@03000000c82d0000510600000000000@ 0000000140052900     raylib:rglfw.obj
 0002:0000d9e0       ??_C@_0MH@JBIEFOEI@03000000c82d0000031000000000000@ 00000001400529e0     raylib:rglfw.obj
 0002:0000dab0       ??_C@_0LA@BDKKHEJH@03000000c82d0000045100000000000@ 0000000140052ab0     raylib:rglfw.obj
 0002:0000db60       ??_C@_0BCA@OLMCGDIA@03000000c82d0000202800000000000@ 0000000140052b60     raylib:rglfw.obj
 0002:0000dc80       ??_C@_0MH@GNCKGMLL@03000000c82d0000801000000000000@ 0000000140052c80     raylib:rglfw.obj
 0002:0000dd50       ??_C@_0JK@KHPLHDON@03000000c82d0000e00200000000000@ 0000000140052d50     raylib:rglfw.obj
 0002:0000ddf0       ??_C@_0BCE@CONCKJMB@03000000c82d0000019000000000000@ 0000000140052df0     raylib:rglfw.obj
 0002:0000df20       ??_C@_0BCG@EICBBMKF@03000000c82d0000159000000000000@ 0000000140052f20     raylib:rglfw.obj
 0002:0000e050       ??_C@_0BCG@FGNJGHJF@03000000c82d0000652800000000000@ 0000000140053050     raylib:rglfw.obj
 0002:0000e180       ??_C@_0PA@MELFOJKN@03000000c82d0000029000000000000@ 0000000140053180     raylib:rglfw.obj
 0002:0000e270       ??_C@_0PA@JPAEHNPC@03000000c82d0000303800000000000@ 0000000140053270     raylib:rglfw.obj
 0002:0000e360       ??_C@_0LB@KKFGDPJP@030000003512000012ab00000000000@ 0000000140053360     raylib:rglfw.obj
 0002:0000e420       ??_C@_0JK@IFCMOPAM@03000000c82d000012ab00000000000@ 0000000140053420     raylib:rglfw.obj
 0002:0000e4c0       ??_C@_0BBN@MAKLHKLD@0300000002200000009000000000000@ 00000001400534c0     raylib:rglfw.obj
 0002:0000e5e0       ??_C@_0BBN@KPBOHEPP@0300000020380000090000000000000@ 00000001400535e0     raylib:rglfw.obj
 0002:0000e700       ??_C@_0BCG@EGGBFGJA@03000000c82d0000203800000000000@ 0000000140053700     raylib:rglfw.obj
 0002:0000e830       ??_C@_0PK@KFJDDHFB@03000000c82d0000075100000000000@ 0000000140053830     raylib:rglfw.obj
 0002:0000e930       ??_C@_0PK@IPFJFJGF@03000000c82d0000085100000000000@ 0000000140053930     raylib:rglfw.obj
 0002:0000ea30       ??_C@_0BCD@KBJOCLC@03000000c82d0000036000000000000@ 0000000140053a30     raylib:rglfw.obj
 0002:0000eb60       ??_C@_0BCD@KNFAAKCG@03000000c82d0000036100000000000@ 0000000140053b60     raylib:rglfw.obj
 0002:0000ec90       ??_C@_0BCD@DDIEGCBI@03000000c82d0000066000000000000@ 0000000140053c90     raylib:rglfw.obj
 0002:0000edc0       ??_C@_0BCF@JLLJHLKL@03000000c82d0000013100000000000@ 0000000140053dc0     raylib:rglfw.obj
 0002:0000eef0       ??_C@_0BCF@EFKGCDNO@03000000c82d0000023100000000000@ 0000000140053ef0     raylib:rglfw.obj
 0002:0000f020       ??_C@_0BCF@LJHMBGDC@03000000c82d0000033100000000000@ 0000000140054020     raylib:rglfw.obj
 0002:0000f150       ??_C@_0BCF@CCOJJFHF@03000000c82d0000043100000000000@ 0000000140054150     raylib:rglfw.obj
 0002:0000f280       ??_C@_0PB@ECOHODIP@03000000c82d0000286700000000000@ 0000000140054280     raylib:rglfw.obj
 0002:0000f380       ??_C@_0BCB@FAGFKFBC@03000000c82d0000013000000000000@ 0000000140054380     raylib:rglfw.obj
 0002:0000f4b0       ??_C@_0BBM@LGEBAFON@03000000c82d0000006000000000000@ 00000001400544b0     raylib:rglfw.obj
 0002:0000f5d0       ??_C@_0BCF@EEAPDCDA@03000000c82d0000006100000000000@ 00000001400545d0     raylib:rglfw.obj
 0002:0000f700       ??_C@_0LD@JMJODBCG@0300000010280000090000000000000@ 0000000140054700     raylib:rglfw.obj
 0002:0000f7c0       ??_C@_0LD@BMLDFJKM@03000000c82d000021ab00000000000@ 00000001400547c0     raylib:rglfw.obj
 0002:0000f880       ??_C@_0LD@IPIAJMEL@03000000c82d0000302800000000000@ 0000000140054880     raylib:rglfw.obj
 0002:0000f940       ??_C@_0NB@LGBKFBOD@030000003512000020ab00000000000@ 0000000140054940     raylib:rglfw.obj
 0002:0000fa20       ??_C@_0LC@EFBNMHEO@03000000c82d0000003000000000000@ 0000000140054a20     raylib:rglfw.obj
 0002:0000fae0       ??_C@_0NM@LCDEKLKJ@03000000c82d0000035100000000000@ 0000000140054ae0     raylib:rglfw.obj
 0002:0000fbc0       ??_C@_0LC@FKHGODJA@03000000c82d0000129000000000000@ 0000000140054bc0     raylib:rglfw.obj
 0002:0000fc80       ??_C@_0BCB@NICJKIFJ@03000000c82d000020ab00000000000@ 0000000140054c80     raylib:rglfw.obj
 0002:0000fdb0       ??_C@_0BCB@PGBBGDNC@03000000c82d0000402800000000000@ 0000000140054db0     raylib:rglfw.obj
 0002:0000fee0       ??_C@_0LC@FALCBLOD@03000000c82d0000622800000000000@ 0000000140054ee0     raylib:rglfw.obj
 0002:0000ffa0       ??_C@_0BBM@HOMGHPDI@03000000c82d0000002100000000000@ 0000000140054fa0     raylib:rglfw.obj
 0002:000100c0       ??_C@_0BCF@BMOGEGNJ@03000000c82d0000016000000000000@ 00000001400550c0     raylib:rglfw.obj
 0002:000101f0       ??_C@_0BCF@KHBKMEME@03000000c82d0000016100000000000@ 00000001400551f0     raylib:rglfw.obj
 0002:00010320       ??_C@_0BDC@PMNHHHHJ@03000000c82d0000012100000000000@ 0000000140055320     raylib:rglfw.obj
 0002:00010460       ??_C@_0BCG@DHLFHLM@03000000c82d0000026000000000000@ 0000000140055460     raylib:rglfw.obj
 0002:00010590       ??_C@_0BCG@GAMGMHOH@03000000c82d0000026100000000000@ 0000000140055590     raylib:rglfw.obj
 0002:000106c0       ??_C@_0BEH@HIAGEAEB@03000000c82d0000133000000000000@ 00000001400556c0     raylib:rglfw.obj
 0002:00010810       ??_C@_0LC@JLFOCFEO@03000000a0050000323200000000000@ 0000000140055810     raylib:rglfw.obj
 0002:000108d0       ??_C@_0LE@MLIBBEID@03000000c82d0000189000000000000@ 00000001400558d0     raylib:rglfw.obj
 0002:00010990       ??_C@_0NO@KCLNENJG@03000000c82d0000303200000000000@ 0000000140055990     raylib:rglfw.obj
 0002:00010a70       ??_C@_0BBE@KKCJGCL@030000008f0e0000120000000000000@ 0000000140055a70     raylib:rglfw.obj
 0002:00010b90       ??_C@_0BBA@LFHOJMDK@03000000c0110000035500000000000@ 0000000140055b90     raylib:rglfw.obj
 0002:00010ca0       ??_C@_0BBK@FFDPJAGJ@03000000fa190000f0ff00000000000@ 0000000140055ca0     raylib:rglfw.obj
 0002:00010dc0       ??_C@_0PO@MBFOCPBK@03000000d1180000402c00000000000@ 0000000140055dc0     raylib:rglfw.obj
 0002:00010ec0       ??_C@_0BCN@GIEEMMPB@03000000341a0000360800000000000@ 0000000140055ec0     raylib:rglfw.obj
 0002:00010ff0       ??_C@_0BCN@IMCBAJO@030000006f0e0000026300000000000@ 0000000140055ff0     raylib:rglfw.obj
 0002:00011120       ??_C@_0BCN@JADNPMFA@030000006f0e0000110100000000000@ 0000000140056120     raylib:rglfw.obj
 0002:00011250       ??_C@_0BCN@MBGMCHKG@030000006f0e0000140100000000000@ 0000000140056250     raylib:rglfw.obj
 0002:00011380       ??_C@_0BCN@BNINGACN@030000006f0e0000140200000000000@ 0000000140056380     raylib:rglfw.obj
 0002:000114b0       ??_C@_0BCN@BCBEDKCA@030000006f0e0000190100000000000@ 00000001400564b0     raylib:rglfw.obj
 0002:000115e0       ??_C@_0BCN@IFHHFAPH@030000006f0e00001a0100000000000@ 00000001400565e0     raylib:rglfw.obj
 0002:00011710       ??_C@_0BCC@OPGDGLOA@030000006f0e0000130100000000000@ 0000000140056710     raylib:rglfw.obj
 0002:00011840       ??_C@_0BCC@JMDAHFMM@030000006f0e0000130200000000000@ 0000000140056840     raylib:rglfw.obj
 0002:00011970       ??_C@_0BCC@HKJGEJJE@030000006f0e0000130400000000000@ 0000000140056970     raylib:rglfw.obj
 0002:00011aa0       ??_C@_0BCO@NJPLCKNO@030000006f0e0000141300000000000@ 0000000140056aa0     raylib:rglfw.obj
 0002:00011bd0       ??_C@_0BCC@KEPMLOBM@030000006f0e0000390100000000000@ 0000000140056bd0     raylib:rglfw.obj
 0002:00011d00       ??_C@_0BCC@CDAFKKKJ@03000000ab120000010300000000000@ 0000000140056d00     raylib:rglfw.obj
 0002:00011e30       ??_C@_0BCE@JJMFFLGB@03000000ad1b000000f900000000000@ 0000000140056e30     raylib:rglfw.obj
 0002:00011f60       ??_C@_0OH@NJEDDJEN@0300000010000000820000000000000@ 0000000140056f60     raylib:rglfw.obj
 0002:00012050       ??_C@_0BDL@MKKNGFA@030000007c180000000600000000000@ 0000000140057050     raylib:rglfw.obj
 0002:00012190       ??_C@_0BDD@MHIPFANA@0300000049190000190400000000000@ 0000000140057190     raylib:rglfw.obj
 0002:000122d0       ??_C@_0BBE@DMHFNEP@0300000071010000190400000000000@ 00000001400572d0     raylib:rglfw.obj
 0002:000123f0       ??_C@_0MP@MAMKBJEE@0300000083050000016000000000000@ 00000001400573f0     raylib:rglfw.obj
 0002:000124c0       ??_C@_0BBC@ELKBLKKG@03000000120c0000100e00000000000@ 00000001400574c0     raylib:rglfw.obj
 0002:000125e0       ??_C@_0PB@OKIFAMGJ@03000000490b0000440600000000000@ 00000001400575e0     raylib:rglfw.obj
 0002:000126e0       ??_C@_0BCG@DAJIIOML@0300000086980000250000000000000@ 00000001400576e0     raylib:rglfw.obj
 0002:00012810       ??_C@_0LE@NHOPGJOF@03000000a30c0000270000000000000@ 0000000140057810     raylib:rglfw.obj
 0002:000128d0       ??_C@_0JL@MEEFIFEH@03000000a30c0000280000000000000@ 00000001400578d0     raylib:rglfw.obj
 0002:00012970       ??_C@_0BCH@BOMJONDE@03000000050b0000057900000000000@ 0000000140057970     raylib:rglfw.obj
 0002:00012aa0       ??_C@_0BDB@OGKKOLMP@03000000050b0000067900000000000@ 0000000140057aa0     raylib:rglfw.obj
 0002:00012be0       ??_C@_0BBD@MMLJOEGA@03000000e4150000103f00000000000@ 0000000140057be0     raylib:rglfw.obj
 0002:00012d00       ??_C@_0BDE@DHPBKDLC@03000000d6200000e55700000000000@ 0000000140057d00     raylib:rglfw.obj
 0002:00012e40       ??_C@_0JO@HBLEAOAI@03000000c0110000135200000000000@ 0000000140057e40     raylib:rglfw.obj
 0002:00012ee0       ??_C@_0BDB@KNKJIBDH@030000006f0e0000320100000000000@ 0000000140057ee0     raylib:rglfw.obj
 0002:00013020       ??_C@_0BAP@NLLPLCIE@03000000ad1b000001f900000000000@ 0000000140058020     raylib:rglfw.obj
 0002:00013130       ??_C@_0BCF@NLOPKJKL@03000000d62000002a7900000000000@ 0000000140058130     raylib:rglfw.obj
 0002:00013260       ??_C@_0BBP@PPEAAEOH@03000000bc200000525000000000000@ 0000000140058260     raylib:rglfw.obj
 0002:00013380       ??_C@_0BAB@LNLEPAFL@030000000d050000020800000000000@ 0000000140058380     raylib:rglfw.obj
 0002:00013490       ??_C@_0BBG@NOFGFFJE@03000000bc200000601200000000000@ 0000000140058490     raylib:rglfw.obj
 0002:000135b0       ??_C@_0BCA@IMNBJDEB@03000000bc200000005500000000000@ 00000001400585b0     raylib:rglfw.obj
 0002:000136d0       ??_C@_0BBL@MNJAPGHD@03000000bc200000631200000000000@ 00000001400586d0     raylib:rglfw.obj
 0002:000137f0       ??_C@_0BBL@DOLLEGAK@03000000bc200000632100000000000@ 00000001400587f0     raylib:rglfw.obj
 0002:00013910       ??_C@_0BBL@HCLFABAI@03000000bc200000641200000000000@ 0000000140058910     raylib:rglfw.obj
 0002:00013a30       ??_C@_0BBL@BGGBHDMD@03000000c0110000055500000000000@ 0000000140058a30     raylib:rglfw.obj
 0002:00013b50       ??_C@_0BBL@NMDIMCBK@03000000c0110000065500000000000@ 0000000140058b50     raylib:rglfw.obj
 0002:00013c70       ??_C@_0BBI@BKECFDAD@0300000079000000070000000000000@ 0000000140058c70     raylib:rglfw.obj
 0002:00013d90       ??_C@_0BBI@EPDBKPKA@0300000080830000030000000000000@ 0000000140058d90     raylib:rglfw.obj
 0002:00013eb0       ??_C@_0PP@PEKHFKEF@030000006f0e0000640100000000000@ 0000000140058eb0     raylib:rglfw.obj
 0002:00013fb0       ??_C@_0BAP@BMJDACLF@03000000300f0000020200000000000@ 0000000140058fb0     raylib:rglfw.obj
 0002:000140c0       ??_C@_0BBB@CJGOPGFE@030000006b140000020900000000000@ 00000001400590c0     raylib:rglfw.obj
 0002:000141e0       ??_C@_0BCK@DCNKADHN@030000006b140000005500000000000@ 00000001400591e0     raylib:rglfw.obj
 0002:00014310       ??_C@_0BCK@MNABGIK@030000006b140000010300000000000@ 0000000140059310     raylib:rglfw.obj
 0002:00014440       ??_C@_0BCE@PCHNFMPG@03000000120c0000200e00000000000@ 0000000140059440     raylib:rglfw.obj
 0002:00014570       ??_C@_0BCO@DMBMOJNB@03000000120c0000210e00000000000@ 0000000140059570     raylib:rglfw.obj
 0002:000146a0       ??_C@_0BBN@BLCELGGF@03000000120c0000f10e00000000000@ 00000001400596a0     raylib:rglfw.obj
 0002:000147c0       ??_C@_0OP@EDFBCDBD@03000000120c0000310c00000000000@ 00000001400597c0     raylib:rglfw.obj
 0002:000148b0       ??_C@_0BCE@FDLHGIIK@03000000d81d00000b0000000000000@ 00000001400598b0     raylib:rglfw.obj
 0002:000149e0       ??_C@_0KJ@MLIJBGBK@030000005b1c0000240000000000000@ 00000001400599e0     raylib:rglfw.obj
 0002:00014a90       ??_C@_0KJ@FLKPMDKL@030000005b1c0000250000000000000@ 0000000140059a90     raylib:rglfw.obj
 0002:00014b40       ??_C@_0PF@FJBLDAKJ@030000006d04000042c200000000000@ 0000000140059b40     raylib:rglfw.obj
 0002:00014c40       ??_C@_0BBH@EKFHCAMB@03000000e8200000605800000000000@ 0000000140059c40     raylib:rglfw.obj
 0002:00014d60       ??_C@_0BBK@NKANFPJB@0300000045750000040100000000000@ 0000000140059d60     raylib:rglfw.obj
 0002:00014e80       ??_C@_0HA@OLAPBGEH@030000000b040000336500000000000@ 0000000140059e80     raylib:rglfw.obj
 0002:00014ef0       ??_C@_0BBM@GAGLENBL@030000004c050000c50500000000000@ 0000000140059ef0     raylib:rglfw.obj
 0002:00015010       ??_C@_0BBC@NNNNAPMH@03000000d814000007cd00000000000@ 000000014005a010     raylib:rglfw.obj
 0002:00015130       ??_C@_0BBC@LNPFKFOO@03000000d8140000cefa00000000000@ 000000014005a130     raylib:rglfw.obj
 0002:00015250       ??_C@_0PH@HDPKEOEB@0300000026090000888800000000000@ 000000014005a250     raylib:rglfw.obj
 0002:00015350       ??_C@_0BBB@FDGMMLIG@030000003807000002cb00000000000@ 000000014005a350     raylib:rglfw.obj
 0002:00015470       ??_C@_0BBO@LHMEICBP@03000000a306000022f600000000000@ 000000014005a470     raylib:rglfw.obj
 0002:00015590       ??_C@_0BBE@CAPBJDDM@03000000f806000000a300000000000@ 000000014005a590     raylib:rglfw.obj
 0002:000156b0       ??_C@_0BAD@HLMOIPHD@030000001a1c0000000100000000000@ 000000014005a6b0     raylib:rglfw.obj
 0002:000157c0       ??_C@_0BCB@HKBKHEFP@0300000045130000083000000000000@ 000000014005a7c0     raylib:rglfw.obj
 0002:000158f0       ??_C@_0BAE@DGBEHFGD@03000000791d0000010300000000000@ 000000014005a8f0     raylib:rglfw.obj
 0002:00015a00       ??_C@_0BBK@MEMGOEMM@03000000c0160000e10500000000000@ 000000014005aa00     raylib:rglfw.obj
 0002:00015b20       ??_C@_0PN@HCCLNHON@030000004f040000070f00000000000@ 000000014005ab20     raylib:rglfw.obj
 0002:00015c20       ??_C@_0BBH@FPKLCHFI@030000004f04000012b300000000000@ 000000014005ac20     raylib:rglfw.obj
 0002:00015d40       ??_C@_0BBH@JEKFNABM@030000004f04000020b300000000000@ 000000014005ad40     raylib:rglfw.obj
 0002:00015e60       ??_C@_0BCC@CNPPCPBF@03000000bd12000002e000000000000@ 000000014005ae60     raylib:rglfw.obj
 0002:00015f90       ??_C@_0BBE@HEPKBNM@03000000ff110000313300000000000@ 000000014005af90     raylib:rglfw.obj
 0002:000160b0       ??_C@_0BBG@DBBHKPMM@030000008f0e0000091000000000000@ 000000014005b0b0     raylib:rglfw.obj
 0002:000161d0       ??_C@_0BBI@ONINKJA@0300000031730000010000000000000@ 000000014005b1d0     raylib:rglfw.obj
 0002:000162f0       ??_C@_0BCN@ECLECENC@030000006f0e0000300100000000000@ 000000014005b2f0     raylib:rglfw.obj
 0002:00016420       ??_C@_0OD@NKMHHEHG@03000000fc040000025000000000000@ 000000014005b420     raylib:rglfw.obj
 0002:00016510       ??_C@_0BCA@CLJCCKI@030000006e0500000a2000000000000@ 000000014005b510     raylib:rglfw.obj
 0002:00016630       ??_C@_0BBJ@GCDIHNCJ@03000000b8050000041000000000000@ 000000014005b630     raylib:rglfw.obj
 0002:00016750       ??_C@_0BBJ@MLHIDNOG@03000000b8050000061000000000000@ 000000014005b750     raylib:rglfw.obj
 0002:00016870       ??_C@_0BDG@JJHDOGJO@030000006e050000052000000000000@ 000000014005b870     raylib:rglfw.obj
 0002:000169b0       ??_C@_0BBH@MJNAAPGD@0300000041120000445000000000000@ 000000014005b9b0     raylib:rglfw.obj
 0002:00016ad0       ??_C@_0BCC@JIHMCIMK@030000006e050000032000000000000@ 000000014005bad0     raylib:rglfw.obj
 0002:00016c00       ??_C@_0BBI@OKKEGNDL@030000006e0500000e2000000000000@ 000000014005bc00     raylib:rglfw.obj
 0002:00016d20       ??_C@_0BBI@KMJOLALJ@030000006e0500000f2000000000000@ 000000014005bd20     raylib:rglfw.obj
 0002:00016e40       ??_C@_0BCB@FDHLKHFO@030000006e050000132000000000000@ 000000014005be40     raylib:rglfw.obj
 0002:00016f70       ??_C@_0BBI@NKGMKAAL@030000006e050000102000000000000@ 000000014005bf70     raylib:rglfw.obj
 0002:00017090       ??_C@_0PJ@FPGFIICH@030000006e050000072000000000000@ 000000014005c090     raylib:rglfw.obj
 0002:00017190       ??_C@_0PP@OMLLDKFL@030000007d040000064000000000000@ 000000014005c190     raylib:rglfw.obj
 0002:00017290       ??_C@_0BBK@LLHMDGJD@03000000120c0000f61c00000000000@ 000000014005c290     raylib:rglfw.obj
 0002:000173b0       ??_C@_0BCB@DLBMOOAB@03000000430b0000030000000000000@ 000000014005c3b0     raylib:rglfw.obj
 0002:000174e0       ??_C@_0BBB@CKHPDALE@03000000242f000000b700000000000@ 000000014005c4e0     raylib:rglfw.obj
 0002:00017600       ??_C@_0BBE@NDBFJCEJ@03000000101c0000181c00000000000@ 000000014005c600     raylib:rglfw.obj
 0002:00017720       ??_C@_0BAP@BKIFCCAA@030000008f0e00000f3100000000000@ 000000014005c720     raylib:rglfw.obj
 0002:00017830       ??_C@_0PJ@ICBCBDAK@03000000341a0000010800000000000@ 000000014005c830     raylib:rglfw.obj
 0002:00017930       ??_C@_0BDO@BEAIOBAK@030000006f0e0000840100000000000@ 000000014005c930     raylib:rglfw.obj
 0002:00017a70       ??_C@_0BDL@OAFALMCM@030000006f0e0000800100000000000@ 000000014005ca70     raylib:rglfw.obj
 0002:00017bb0       ??_C@_0BBF@GEAHGEMD@0300000002100000009000000000000@ 000000014005cbb0     raylib:rglfw.obj
 0002:00017cd0       ??_C@_0JB@FDCCKLLN@0300000011040000c60000000000000@ 000000014005ccd0     raylib:rglfw.obj
 0002:00017d70       ??_C@_0BBB@NDCDKCDO@0300000085210000020100000000000@ 000000014005cd70     raylib:rglfw.obj
 0002:00017e90       ??_C@_0PI@INBIEDMD@03000000ad1b000028f000000000000@ 000000014005ce90     raylib:rglfw.obj
 0002:00017f90       ??_C@_0BBB@DFMLKOCL@03000000ad1b00002ef000000000000@ 000000014005cf90     raylib:rglfw.obj
 0002:000180b0       ??_C@_0ND@PMNKAFHH@03000000ad1b000038f000000000000@ 000000014005d0b0     raylib:rglfw.obj
 0002:00018190       ??_C@_0PJ@MOHKFKKH@03000000f806000001a300000000000@ 000000014005d190     raylib:rglfw.obj
 0002:00018290       ??_C@_0LI@OBJAJIBF@03000000b5070000039900000000000@ 000000014005d290     raylib:rglfw.obj
 0002:00018350       ??_C@_0KG@BBMLLKHC@03000000b5070000130200000000000@ 000000014005d350     raylib:rglfw.obj
 0002:00018400       ??_C@_0BBJ@HLKPFECA@03000000b4040000102400000000000@ 000000014005d400     raylib:rglfw.obj
 0002:00018520       ??_C@_0BBK@HICNLBGA@0300000015190000400000000000000@ 000000014005d520     raylib:rglfw.obj
 0002:00018640       ??_C@_0BDO@KBEKBAFK@03000000b4040000112400000000000@ 000000014005d640     raylib:rglfw.obj
 0002:00018780       ??_C@_0BFA@HCGBLKMC@03000000b4040000122400000000000@ 000000014005d780     raylib:rglfw.obj
 0002:000188d0       ??_C@_0KK@PFIOGPBH@030000008305000000a000000000000@ 000000014005d8d0     raylib:rglfw.obj
 0002:00018980       ??_C@_0BBM@IDFPDLMB@0300000066f70000010000000000000@ 000000014005d980     raylib:rglfw.obj
 0002:00018aa0       ??_C@_0OB@CEEIONKA@0300000026090000262500000000000@ 000000014005daa0     raylib:rglfw.obj
 0002:00018b90       ??_C@_0OF@FMONANAB@03000000341a000005f700000000000@ 000000014005db90     raylib:rglfw.obj
 0002:00018c80       ??_C@_0OD@IDHMMCJF@03000000430b0000050000000000000@ 000000014005dc80     raylib:rglfw.obj
 0002:00018d70       ??_C@_0OF@BLBBBOIP@0300000079000000471800000000000@ 000000014005dd70     raylib:rglfw.obj
 0002:00018e60       ??_C@_0PB@HMGGNKEB@0300000079000000461800000000000@ 000000014005de60     raylib:rglfw.obj
 0002:00018f60       ??_C@_0BCE@GKIAKKJG@030000008f0e00000d3100000000000@ 000000014005df60     raylib:rglfw.obj
 0002:00019090       ??_C@_0BBH@HPDIHNDO@03000000ac0500003d0300000000000@ 000000014005e090     raylib:rglfw.obj
 0002:000191b0       ??_C@_0BCA@PJECEFBC@03000000ac0500005b0500000000000@ 000000014005e1b0     raylib:rglfw.obj
 0002:000192d0       ??_C@_0BBH@BCMFMILE@03000000ac0500002d0200000000000@ 000000014005e2d0     raylib:rglfw.obj
 0002:000193f0       ??_C@_0BBH@DGDBKCGE@03000000ac0500004d0400000000000@ 000000014005e3f0     raylib:rglfw.obj
 0002:00019510       ??_C@_0BBD@KHNCPIIJ@030000004c0e0000103500000000000@ 000000014005e510     raylib:rglfw.obj
 0002:00019630       ??_C@_0PJ@MOIONLJL@030000000d0f0000111000000000000@ 000000014005e630     raylib:rglfw.obj
 0002:00019730       ??_C@_0BBD@HMCMLOEI@0300000047530000616d00000000000@ 000000014005e730     raylib:rglfw.obj
 0002:00019850       ??_C@_0BDA@LBDFNLMA@03000000c0110000014000000000000@ 000000014005e850     raylib:rglfw.obj
 0002:00019980       ??_C@_0KL@DPLBDFIF@03000000b6250000010000000000000@ 000000014005e980     raylib:rglfw.obj
 0002:00019a30       ??_C@_0BBJ@BEGPDDBD@030000008f0e0000141100000000000@ 000000014005ea30     raylib:rglfw.obj
 0002:00019b50       ??_C@_0BBF@KAMHHNDN@03000000120c0000a85700000000000@ 000000014005eb50     raylib:rglfw.obj
 0002:00019c70       ??_C@_0BBC@GNEMGEAI@03000000c9110000f05500000000000@ 000000014005ec70     raylib:rglfw.obj
 0002:00019d90       ??_C@_0BBB@MOEBBOIH@030000008305000009a000000000000@ 000000014005ed90     raylib:rglfw.obj
 0002:00019eb0       ??_C@_0BCB@CIAKNBHG@030000008305000031b000000000000@ 000000014005eeb0     raylib:rglfw.obj
 0002:00019fe0       ??_C@_0BCF@LMGAPCEG@0300000045130000001000000000000@ 000000014005efe0     raylib:rglfw.obj
 0002:0001a110       ??_C@_0BCG@HFMJCAPB@030000005c1a0000333000000000000@ 000000014005f110     raylib:rglfw.obj
 0002:0001a240       ??_C@_0BBI@HPAOGEIK@03000000300f00000b0100000000000@ 000000014005f240     raylib:rglfw.obj
 0002:0001a360       ??_C@_0BDD@EOELOJBH@03000000f0250000c28300000000000@ 000000014005f360     raylib:rglfw.obj
 0002:0001a4a0       ??_C@_0BCB@CDINELNI@03000000f025000021c100000000000@ 000000014005f4a0     raylib:rglfw.obj
 0002:0001a5d0       ??_C@_0BCB@NEEIFFGN@03000000f025000031c100000000000@ 000000014005f5d0     raylib:rglfw.obj
 0002:0001a700       ??_C@_0BCN@JHPNCIKK@03000000f0250000c38300000000000@ 000000014005f700     raylib:rglfw.obj
 0002:0001a830       ??_C@_0BCN@OGCGICMA@03000000f0250000c48300000000000@ 000000014005f830     raylib:rglfw.obj
 0002:0001a960       ??_C@_0BAP@BIFEEAGC@030000004f04000026b300000000000@ 000000014005f960     raylib:rglfw.obj
 0002:0001aa70       ??_C@_0BBA@BAMELKC@0300000079000000d41800000000000@ 000000014005fa70     raylib:rglfw.obj
 0002:0001ab80       ??_C@_0BAM@GOGDNMMH@03000000c6240000025b00000000000@ 000000014005fb80     raylib:rglfw.obj
 0002:0001ac90       ??_C@_0NJ@HGPHKOBB@030000007d040000084000000000000@ 000000014005fc90     raylib:rglfw.obj
 0002:0001ad70       ??_C@_0NJ@IBINODBL@030000007d040000054000000000000@ 000000014005fd70     raylib:rglfw.obj
 0002:0001ae50       ??_C@_0NG@FNAONPBN@0300000028040000014000000000000@ 000000014005fe50     raylib:rglfw.obj
 0002:0001af30       ??_C@_0BBE@OCGDCINN@030000008f0e0000061000000000000@ 000000014005ff30     raylib:rglfw.obj
 0002:0001b050       ??_C@_0BBB@OIOOKNMP@03000000ac0500006b0500000000000@ 0000000140060050     raylib:rglfw.obj
 0002:0001b170       ??_C@_0BCB@CDNPOFJG@03000000341a0000030200000000000@ 0000000140060170     raylib:rglfw.obj
 0002:0001b2a0       ??_C@_0BDE@NPNINGJD@030000000d0f0000490000000000000@ 00000001400602a0     raylib:rglfw.obj
 0002:0001b3e0       ??_C@_0NA@OPLIJPKE@030000001008000001e100000000000@ 00000001400603e0     raylib:rglfw.obj
 0002:0001b4b0       ??_C@_0BAP@CGLKBCHB@030000000d0f00000c0000000000000@ 00000001400604b0     raylib:rglfw.obj
 0002:0001b5c0       ??_C@_0OI@OKECLOCF@03000000d8140000086200000000000@ 00000001400605c0     raylib:rglfw.obj
 0002:0001b6b0       ??_C@_0BBM@IDEFDCK@0300000063250000260500000000000@ 00000001400606b0     raylib:rglfw.obj
 0002:0001b7d0       ??_C@_0PG@DANPHGGA@030000000d0f00000a0000000000000@ 00000001400607d0     raylib:rglfw.obj
 0002:0001b8d0       ??_C@_0BDF@NBIAHNFN@030000000d0f0000850000000000000@ 00000001400608d0     raylib:rglfw.obj
 0002:0001ba10       ??_C@_0OL@GLLAMPMN@030000000d0f0000250000000000000@ 0000000140060a10     raylib:rglfw.obj
 0002:0001bb00       ??_C@_0BBF@BFOGCKNH@030000000d0f00002d0000000000000@ 0000000140060b00     raylib:rglfw.obj
 0002:0001bc20       ??_C@_0BBF@ENNEAHDO@030000000d0f00005f0000000000000@ 0000000140060c20     raylib:rglfw.obj
 0002:0001bd40       ??_C@_0BBF@HILADFIB@030000000d0f00005e0000000000000@ 0000000140060d40     raylib:rglfw.obj
 0002:0001be60       ??_C@_0BCO@MCIGJANI@030000000d0f0000840000000000000@ 0000000140060e60     raylib:rglfw.obj
 0002:0001bf90       ??_C@_0BCG@BFODIBF@030000000d0f0000510000000000000@ 0000000140060f90     raylib:rglfw.obj
 0002:0001c0c0       ??_C@_0BCJ@LMINMNLD@030000000d0f0000860000000000000@ 00000001400610c0     raylib:rglfw.obj
 0002:0001c1f0       ??_C@_0BAK@CFBFBMMN@030000000d0f0000ba0000000000000@ 00000001400611f0     raylib:rglfw.obj
 0002:0001c300       ??_C@_0PC@GOEBFDDC@030000000d0f0000880000000000000@ 0000000140061300     raylib:rglfw.obj
 0002:0001c400       ??_C@_0PC@HHFIPDMD@030000000d0f0000870000000000000@ 0000000140061400     raylib:rglfw.obj
 0002:0001c500       ??_C@_0BBK@BKGIGNIB@030000000d0f0000100000000000000@ 0000000140061500     raylib:rglfw.obj
 0002:0001c620       ??_C@_0BBN@KEIMCEN@030000000d0f0000320000000000000@ 0000000140061620     raylib:rglfw.obj
 0002:0001c740       ??_C@_0BBK@OMHEPII@030000000d0f0000c00000000000000@ 0000000140061740     raylib:rglfw.obj
 0002:0001c860       ??_C@_0BBO@LCNAPNFH@030000000d0f00000d0000000000000@ 0000000140061860     raylib:rglfw.obj
 0002:0001c980       ??_C@_0PO@HCANIJNH@030000000d0f0000370100000000000@ 0000000140061980     raylib:rglfw.obj
 0002:0001ca80       ??_C@_0OI@BBJNOOKL@030000000d0f0000400000000000000@ 0000000140061a80     raylib:rglfw.obj
 0002:0001cb70       ??_C@_0BBN@HIGLFFPC@030000000d0f0000210000000000000@ 0000000140061b70     raylib:rglfw.obj
 0002:0001cc90       ??_C@_0OE@DKKNIDBF@030000000d0f0000270000000000000@ 0000000140061c90     raylib:rglfw.obj
 0002:0001cd80       ??_C@_0BBK@LODIJDAD@030000000d0f0000a00000000000000@ 0000000140061d80     raylib:rglfw.obj
 0002:0001cea0       ??_C@_0BDP@KNPJLHEB@030000000d0f0000a50000000000000@ 0000000140061ea0     raylib:rglfw.obj
 0002:0001cfe0       ??_C@_0BDP@EMHKPDMB@030000000d0f0000a60000000000000@ 0000000140061fe0     raylib:rglfw.obj
 0002:0001d120       ??_C@_0BCE@NIOBFDHH@030000000d0f0000010100000000000@ 0000000140062120     raylib:rglfw.obj
 0002:0001d250       ??_C@_0BBP@HFNLKKMF@030000000d0f0000540000000000000@ 0000000140062250     raylib:rglfw.obj
 0002:0001d370       ??_C@_0BCF@IAGAPBPO@030000000d0f0000090000000000000@ 0000000140062370     raylib:rglfw.obj
 0002:0001d4a0       ??_C@_0BBP@BICCDPK@030000000d0f00004d0000000000000@ 00000001400624a0     raylib:rglfw.obj
 0002:0001d5c0       ??_C@_0JM@CCBGOOKG@030000000d0f0000380100000000000@ 00000001400625c0     raylib:rglfw.obj
 0002:0001d660       ??_C@_0OF@BAEEEMNJ@030000000d0f0000920000000000000@ 0000000140062660     raylib:rglfw.obj
 0002:0001d750       ??_C@_0BCG@FFGEAGPF@030000000d0f0000230100000000000@ 0000000140062750     raylib:rglfw.obj
 0002:0001d880       ??_C@_0BAF@HGKPLKHF@030000000d0f0000110000000000000@ 0000000140062880     raylib:rglfw.obj
 0002:0001d990       ??_C@_0BCC@IAIKDBOO@030000000d0f0000260000000000000@ 0000000140062990     raylib:rglfw.obj
 0002:0001dac0       ??_C@_0BCC@CNCMGLCF@030000000d0f00004b0000000000000@ 0000000140062ac0     raylib:rglfw.obj
 0002:0001dbf0       ??_C@_0BCL@EOMJDDLB@030000000d0f00006a0000000000000@ 0000000140062bf0     raylib:rglfw.obj
 0002:0001dd20       ??_C@_0BCL@MPJLAMJF@030000000d0f00006b0000000000000@ 0000000140062d20     raylib:rglfw.obj
 0002:0001de50       ??_C@_0BCL@JKJGPFDJ@030000000d0f00008a0000000000000@ 0000000140062e50     raylib:rglfw.obj
 0002:0001df80       ??_C@_0BCL@BLMEMKBN@030000000d0f00008b0000000000000@ 0000000140062f80     raylib:rglfw.obj
 0002:0001e0b0       ??_C@_0BCF@JGMKCJLC@030000000d0f00006f0000000000000@ 00000001400630b0     raylib:rglfw.obj
 0002:0001e1e0       ??_C@_0BAJ@FGEDCFE@030000000d0f0000700000000000000@ 00000001400631e0     raylib:rglfw.obj
 0002:0001e2f0       ??_C@_0BCC@DFGLOAFL@030000000d0f00003d0000000000000@ 00000001400632f0     raylib:rglfw.obj
 0002:0001e420       ??_C@_0BAB@NHLFNCKA@030000000d0f0000ae0000000000000@ 0000000140063420     raylib:rglfw.obj
 0002:0001e530       ??_C@_0BCA@ECBGJCGK@030000000d0f00008c0000000000000@ 0000000140063530     raylib:rglfw.obj
 0002:0001e650       ??_C@_0BCB@PMCIJDBA@030000000d0f0000aa0000000000000@ 0000000140063650     raylib:rglfw.obj
 0002:0001e780       ??_C@_0BBM@HHIBLGNJ@030000000d0f0000d80000000000000@ 0000000140063780     raylib:rglfw.obj
 0002:0001e8a0       ??_C@_0BAP@IEMKNPPE@030000000d0f0000220000000000000@ 00000001400638a0     raylib:rglfw.obj
 0002:0001e9b0       ??_C@_0BCM@MBFKPEPJ@030000000d0f00005b0000000000000@ 00000001400639b0     raylib:rglfw.obj
 0002:0001eae0       ??_C@_0BCM@CCFPFPNE@030000000d0f00005c0000000000000@ 0000000140063ae0     raylib:rglfw.obj
 0002:0001ec10       ??_C@_0BCD@MNFIJLHJ@030000000d0f0000af0000000000000@ 0000000140063c10     raylib:rglfw.obj
 0002:0001ed40       ??_C@_0BAF@ILEGPLJO@030000000d0f00001b0000000000000@ 0000000140063d40     raylib:rglfw.obj
 0002:0001ee50       ??_C@_0BAH@IOOCHGKN@03000000ad1b000002f500000000000@ 0000000140063e50     raylib:rglfw.obj
 0002:0001ef60       ??_C@_0BCB@MKBJECLN@030000000d0f00009c0000000000000@ 0000000140063f60     raylib:rglfw.obj
 0002:0001f090       ??_C@_0BCA@CPAAMBNK@030000000d0f0000c90000000000000@ 0000000140064090     raylib:rglfw.obj
 0002:0001f1b0       ??_C@_0BBM@FNOHJIMD@030000000d0f0000c10000000000000@ 00000001400641b0     raylib:rglfw.obj
 0002:0001f2d0       ??_C@_0BBG@PHFLJBEM@030000000d0f0000640000000000000@ 00000001400642d0     raylib:rglfw.obj
 0002:0001f3f0       ??_C@_0BBF@LCEMDADC@030000000d0f0000130000000000000@ 00000001400643f0     raylib:rglfw.obj
 0002:0001f510       ??_C@_0BCC@HHLPIDID@030000000d0f0000550000000000000@ 0000000140064510     raylib:rglfw.obj
 0002:0001f640       ??_C@_0BCC@ECFGPMMC@030000000d0f00006e0000000000000@ 0000000140064640     raylib:rglfw.obj
 0002:0001f770       ??_C@_0BCC@EFFKECIG@030000000d0f0000660000000000000@ 0000000140064770     raylib:rglfw.obj
 0002:0001f8a0       ??_C@_0BBE@KMIKNIGM@030000000d0f0000420000000000000@ 00000001400648a0     raylib:rglfw.obj
 0002:0001f9c0       ??_C@_0BBH@DLGMIGOD@03000000ad1b000001f500000000000@ 00000001400649c0     raylib:rglfw.obj
 0002:0001fae0       ??_C@_0BCD@NJOJEFHG@030000000d0f0000ee0000000000000@ 0000000140064ae0     raylib:rglfw.obj
 0002:0001fc10       ??_C@_0BBF@PHGHPCB@030000000d0f0000670000000000000@ 0000000140064c10     raylib:rglfw.obj
 0002:0001fd30       ??_C@_0BBH@OBMFANIH@030000000d0f0000dc0000000000000@ 0000000140064d30     raylib:rglfw.obj
 0002:0001fe50       ??_C@_0LL@KLNOPNHB@030000008f0e0000133000000000000@ 0000000140064e50     raylib:rglfw.obj
 0002:0001ff10       ??_C@_0OL@IBGGKDAO@03000000790000004e9500000000000@ 0000000140064f10     raylib:rglfw.obj
 0002:00020000       ??_C@_0BCI@NGNEMOE@03000000d81d00000e0000000000000@ 0000000140065000     raylib:rglfw.obj
 0002:00020130       ??_C@_0BCD@FCACJJNJ@03000000d81d00000f0000000000000@ 0000000140065130     raylib:rglfw.obj
 0002:00020260       ??_C@_0BCE@FMKIADB@03000000d81d0000100000000000000@ 0000000140065260     raylib:rglfw.obj
 0002:00020390       ??_C@_0PJ@FDGPEGNN@030000005c0a0000028500000000000@ 0000000140065390     raylib:rglfw.obj
 0002:00020490       ??_C@_0BBP@JBONCFHC@0300000069640000696400000000000@ 0000000140065490     raylib:rglfw.obj
 0002:000205b0       ??_C@_0OI@FJCLICAJ@03000000b5070000140300000000000@ 00000001400655b0     raylib:rglfw.obj
 0002:000206a0       ??_C@_0PF@MDGIENGP@030000006f0e0000240100000000000@ 00000001400656a0     raylib:rglfw.obj
 0002:000207a0       ??_C@_0NG@JBOGONIB@0300000083050000513000000000000@ 00000001400657a0     raylib:rglfw.obj
 0002:00020880       ??_C@_0BBL@OLKAOFMJ@03000000ef050000030000000000000@ 0000000140065880     raylib:rglfw.obj
 0002:000209a0       ??_C@_0BBL@IOHGHMIA@03000000fd050000023000000000000@ 00000001400659a0     raylib:rglfw.obj
 0002:00020ac0       ??_C@_0KI@BINCDJMD@03000000fd050000003000000000000@ 0000000140065ac0     raylib:rglfw.obj
 0002:00020b70       ??_C@_0OP@JPLALOAI@03000000fd050000390200000000000@ 0000000140065b70     raylib:rglfw.obj
 0002:00020c60       ??_C@_0BAG@CGJNHKBB@03000000fd0500002a2600000000000@ 0000000140065c60     raylib:rglfw.obj
 0002:00020d70       ??_C@_0BAG@BNGGNEBO@03000000fd0500002f2600000000000@ 0000000140065d70     raylib:rglfw.obj
 0002:00020e80       ??_C@_0NI@DMOBPFHA@03000000fd050000530200000000000@ 0000000140065e80     raylib:rglfw.obj
 0002:00020f60       ??_C@_0BBN@NEOKNJAL@03000000ac0500002c0200000000000@ 0000000140065f60     raylib:rglfw.obj
 0002:00021080       ??_C@_0BBJ@GNDHJINO@0300000049190000020400000000000@ 0000000140066080     raylib:rglfw.obj
 0002:000211a0       ??_C@_0BCH@LNCBGONI@0300000049190000030400000000000@ 00000001400661a0     raylib:rglfw.obj
 0002:000212d0       ??_C@_0ME@PNFMJONN@030000007e050000062000000000000@ 00000001400662d0     raylib:rglfw.obj
 0002:000213a0       ??_C@_0ME@JKMAKHPN@030000007e050000072000000000000@ 00000001400663a0     raylib:rglfw.obj
 0002:00021470       ??_C@_0LJ@KMLCNBCD@0300000025090000001700000000000@ 0000000140066470     raylib:rglfw.obj
 0002:00021530       ??_C@_0BBN@HIOFPGNH@03000000bd12000003c000000000000@ 0000000140066530     raylib:rglfw.obj
 0002:00021650       ??_C@_0BBD@GLBDIEHB@03000000ff110000403300000000000@ 0000000140066650     raylib:rglfw.obj
 0002:00021770       ??_C@_0BCA@PJKHBNIG@03000000242f00002d0000000000000@ 0000000140066770     raylib:rglfw.obj
 0002:00021890       ??_C@_0BBA@LGPGFOMN@03000000242f00008a0000000000000@ 0000000140066890     raylib:rglfw.obj
 0002:000219a0       ??_C@_0BAP@GBBEGIP@03000000c4100000c08200000000000@ 00000001400669a0     raylib:rglfw.obj
 0002:00021ab0       ??_C@_0KP@JABEHEIH@0300000082820000018000000000000@ 0000000140066ab0     raylib:rglfw.obj
 0002:00021b60       ??_C@_0BBO@PNIOEBFD@0300000079000000020000000000000@ 0000000140066b60     raylib:rglfw.obj
 0002:00021c80       ??_C@_0BBF@NEDPPIGJ@03000000bd12000001e000000000000@ 0000000140066c80     raylib:rglfw.obj
 0002:00021da0       ??_C@_0BAP@OFPDOPLJ@030000006f0e0000010300000000000@ 0000000140066da0     raylib:rglfw.obj
 0002:00021eb0       ??_C@_0BAP@OOBOAGJA@030000006f0e0000010400000000000@ 0000000140066eb0     raylib:rglfw.obj
 0002:00021fc0       ??_C@_0PE@MFGDGIEG@030000008f0e0000130000000000000@ 0000000140066fc0     raylib:rglfw.obj
 0002:000220c0       ??_C@_0BBP@CEOMIJKI@030000006d040000d1ca00000000000@ 00000001400670c0     raylib:rglfw.obj
 0002:000221e0       ??_C@_0BDA@PPKEBMHL@030000006d040000d2ca00000000000@ 00000001400671e0     raylib:rglfw.obj
 0002:00022310       ??_C@_0BBF@GOLEDGAH@030000006d04000011c200000000000@ 0000000140067310     raylib:rglfw.obj
 0002:00022430       ??_C@_0BBP@NCCKJBD@030000006d04000016c200000000000@ 0000000140067430     raylib:rglfw.obj
 0002:00022550       ??_C@_0PH@BHJGLLMO@030000006d0400001dc200000000000@ 0000000140067550     raylib:rglfw.obj
 0002:00022650       ??_C@_0BBI@IHPKHADA@030000006d04000018c200000000000@ 0000000140067650     raylib:rglfw.obj
 0002:00022770       ??_C@_0PH@FJHIDELH@030000006d0400001ec200000000000@ 0000000140067770     raylib:rglfw.obj
 0002:00022870       ??_C@_0BBI@EGAPIHGO@030000006d04000019c200000000000@ 0000000140067870     raylib:rglfw.obj
 0002:00022990       ??_C@_0PH@HGDCOJNP@030000006d0400001fc200000000000@ 0000000140067990     raylib:rglfw.obj
 0002:00022a90       ??_C@_0NG@GCAJMCAE@030000006d0400001ac200000000000@ 0000000140067a90     raylib:rglfw.obj
 0002:00022b70       ??_C@_0OL@FMOHMCHO@030000006d04000009c200000000000@ 0000000140067b70     raylib:rglfw.obj
 0002:00022c60       ??_C@_0BBC@NHJBKGIK@030000006d0400000bc200000000000@ 0000000140067c60     raylib:rglfw.obj
 0002:00022d80       ??_C@_0PP@COADMKLJ@030000006d0400000ac200000000000@ 0000000140067d80     raylib:rglfw.obj
 0002:00022e80       ??_C@_0BAN@OBNCGPMK@0300000038070000564500000000000@ 0000000140067e80     raylib:rglfw.obj
 0002:00022f90       ??_C@_0BBD@FJLOCILC@0300000022220000600000000000000@ 0000000140067f90     raylib:rglfw.obj
 0002:000230b0       ??_C@_0BCA@JIDKMEAF@0300000038070000388800000000000@ 00000001400680b0     raylib:rglfw.obj
 0002:000231d0       ??_C@_0BBL@CLOBHKJ@0300000038070000853200000000000@ 00000001400681d0     raylib:rglfw.obj
 0002:000232f0       ??_C@_0BBJ@JKOFILN@0300000038070000635200000000000@ 00000001400682f0     raylib:rglfw.obj
 0002:00023410       ??_C@_0BCD@IELEIEJG@0300000038070000665200000000000@ 0000000140068410     raylib:rglfw.obj
 0002:00023540       ??_C@_0BCO@DAKMPCNC@0300000038070000503200000000000@ 0000000140068540     raylib:rglfw.obj
 0002:00023670       ??_C@_0BCO@BDACEDBG@0300000038070000508200000000000@ 0000000140068670     raylib:rglfw.obj
 0002:000237a0       ??_C@_0BCJ@BNLGEFMH@0300000038070000803100000000000@ 00000001400687a0     raylib:rglfw.obj
 0002:000238d0       ??_C@_0NO@IHMJKKCC@030000003807000038b700000000000@ 00000001400688d0     raylib:rglfw.obj
 0002:000239b0       ??_C@_0BDB@HFHOLAFN@0300000038070000843300000000000@ 00000001400689b0     raylib:rglfw.obj
 0002:00023af0       ??_C@_0BDB@CKINNPEO@0300000038070000848300000000000@ 0000000140068af0     raylib:rglfw.obj
 0002:00023c30       ??_C@_0BDA@NNJPMPGB@0300000038070000813400000000000@ 0000000140068c30     raylib:rglfw.obj
 0002:00023d60       ??_C@_0BDA@NBDKEBEC@0300000038070000818400000000000@ 0000000140068d60     raylib:rglfw.obj
 0002:00023e90       ??_C@_0BCJ@NMEIKKJG@0300000038070000625200000000000@ 0000000140068e90     raylib:rglfw.obj
 0002:00023fc0       ??_C@_0BAL@DGLMJFNF@0300000038070000823200000000000@ 0000000140068fc0     raylib:rglfw.obj
 0002:000240d0       ??_C@_0BAN@FNLHPIFO@0300000038070000873100000000000@ 00000001400690d0     raylib:rglfw.obj
 0002:000241e0       ??_C@_0BCM@GJCKEDBE@030000003807000056a800000000000@ 00000001400691e0     raylib:rglfw.obj
 0002:00024310       ??_C@_0BBE@BLELIFOL@0300000038070000188800000000000@ 0000000140069310     raylib:rglfw.obj
 0002:00024430       ??_C@_0BCA@BCCHBDFG@0300000038070000808100000000000@ 0000000140069430     raylib:rglfw.obj
 0002:00024550       ??_C@_0PF@MLKIDFGN@0300000038070000184700000000000@ 0000000140069550     raylib:rglfw.obj
 0002:00024650       ??_C@_0BBD@FGLPEKLC@0300000038070000803400000000000@ 0000000140069650     raylib:rglfw.obj
 0002:00024770       ??_C@_0BBD@GHNGPLFD@0300000038070000808400000000000@ 0000000140069770     raylib:rglfw.obj
 0002:00024890       ??_C@_0BBN@MLCKKOPD@030000002a060000102400000000000@ 0000000140069890     raylib:rglfw.obj
 0002:000249b0       ??_C@_0BAK@EANFDDAF@030000009f000000adbb00000000000@ 00000001400699b0     raylib:rglfw.obj
 0002:00024ac0       ??_C@_0MA@LPHGGGL@0300000025090000012800000000000@ 0000000140069ac0     raylib:rglfw.obj
 0002:00024b80       ??_C@_0ND@BCLPACHM@03000000242f0000370000000000000@ 0000000140069b80     raylib:rglfw.obj
 0002:00024c60       ??_C@_0PH@NHGKJGKF@0300000079000000301800000000000@ 0000000140069c60     raylib:rglfw.obj
 0002:00024d60       ??_C@_0BCO@EHPLGPCE@03000000242f0000390000000000000@ 0000000140069d60     raylib:rglfw.obj
 0002:00024e90       ??_C@_0PC@EBDFKGFN@0300000079000000441800000000000@ 0000000140069e90     raylib:rglfw.obj
 0002:00024f90       ??_C@_0BAK@FNMBKHPB@0300000079000000431800000000000@ 0000000140069f90     raylib:rglfw.obj
 0002:000250a0       ??_C@_0BBG@BDLNPAJM@03000000242f0000730000000000000@ 000000014006a0a0     raylib:rglfw.obj
 0002:000251c0       ??_C@_0BCG@NFDJDGAI@0300000079000000d21800000000000@ 000000014006a1c0     raylib:rglfw.obj
 0002:000252f0       ??_C@_0BCG@GLPHDIGN@03000000d620000010a700000000000@ 000000014006a2f0     raylib:rglfw.obj
 0002:00025420       ??_C@_0NM@MIPKMOIP@030000008f0e0000103000000000000@ 000000014006a420     raylib:rglfw.obj
 0002:00025500       ??_C@_0BBA@PDFDEGLC@0300000025090000e80300000000000@ 000000014006a500     raylib:rglfw.obj
 0002:00025610       ??_C@_0BAP@ILLCFPHP@0300000079000000031800000000000@ 000000014006a610     raylib:rglfw.obj
 0002:00025720       ??_C@_0BCF@ONOJJKDL@0300000079000000001800000000000@ 000000014006a720     raylib:rglfw.obj
 0002:00025850       ??_C@_0LG@KOICGCFA@0300000079000000241800000000000@ 000000014006a850     raylib:rglfw.obj
 0002:00025910       ??_C@_0LJ@BGPPGAOP@0300000079000000ae1800000000000@ 000000014006a910     raylib:rglfw.obj
 0002:000259d0       ??_C@_0JH@DMDMPLHJ@03000000c0160000990a00000000000@ 000000014006a9d0     raylib:rglfw.obj
 0002:00025a70       ??_C@_0OC@HJKKKKGN@030000005e040000280000000000000@ 000000014006aa70     raylib:rglfw.obj
 0002:00025b60       ??_C@_0OO@IEECCHCL@030000005e040000030000000000000@ 000000014006ab60     raylib:rglfw.obj
 0002:00025c50       ??_C@_0OO@JEHBBFCI@030000005e040000070000000000000@ 000000014006ac50     raylib:rglfw.obj
 0002:00025d40       ??_C@_0PM@HMGJLGLJ@030000005e0400000e0000000000000@ 000000014006ad40     raylib:rglfw.obj
 0002:00025e40       ??_C@_0LE@CKDIMHJI@030000005e040000270000000000000@ 000000014006ae40     raylib:rglfw.obj
 0002:00025f00       ??_C@_0LA@GMFNBOIN@03000000280d0000020200000000000@ 000000014006af00     raylib:rglfw.obj
 0002:00025fb0       ??_C@_0BAM@OJJLC@03000000ad1b000023f000000000000@ 000000014006afb0     raylib:rglfw.obj
 0002:000260c0       ??_C@_0NJ@GPKKNHEI@03000000ad1b00003ef000000000000@ 000000014006b0c0     raylib:rglfw.obj
 0002:000261a0       ??_C@_0BCH@EEBOLOJJ@0300000038070000638200000000000@ 000000014006b1a0     raylib:rglfw.obj
 0002:000262d0       ??_C@_0BBG@EPNPENIL@03000000ffff0000000000000000000@ 000000014006b2d0     raylib:rglfw.obj
 0002:000263f0       ??_C@_0PA@JCFEAMHI@03000000d6200000e58900000000000@ 000000014006b3f0     raylib:rglfw.obj
 0002:000264e0       ??_C@_0PC@LEJJIMHB@03000000d6200000716200000000000@ 000000014006b4e0     raylib:rglfw.obj
 0002:000265e0       ??_C@_0PC@CMGECGIF@03000000d6200000ad0d00000000000@ 000000014006b5e0     raylib:rglfw.obj
 0002:000266e0       ??_C@_0BCF@IEHKGED@03000000c62400002a8900000000000@ 000000014006b6e0     raylib:rglfw.obj
 0002:00026810       ??_C@_0BCF@IJONGJEE@03000000c62400002b8900000000000@ 000000014006b810     raylib:rglfw.obj
 0002:00026940       ??_C@_0BCF@FEOKBGJB@03000000c62400001a8900000000000@ 000000014006b940     raylib:rglfw.obj
 0002:00026a70       ??_C@_0BCF@IKPFEOOE@03000000c62400001b8900000000000@ 000000014006ba70     raylib:rglfw.obj
 0002:00026ba0       ??_C@_0BCO@DODDAFEB@03000000efbe0000edfe00000000000@ 000000014006bba0     raylib:rglfw.obj
 0002:00026cd0       ??_C@_0BCB@GILNGNCB@0300000025090000668800000000000@ 000000014006bcd0     raylib:rglfw.obj
 0002:00026e00       ??_C@_0BCM@MCGPIELC@0300000009120000448800000000000@ 000000014006be00     raylib:rglfw.obj
 0002:00026f30       ??_C@_0OM@BNFLHKGD@03000000f7060000010000000000000@ 000000014006bf30     raylib:rglfw.obj
 0002:00027020       ??_C@_0BCD@PMGEEEME@030000006b140000010c00000000000@ 000000014006c020     raylib:rglfw.obj
 0002:00027150       ??_C@_0BCM@EJPGAHKE@030000006b140000110600000000000@ 000000014006c150     raylib:rglfw.obj
 0002:00027280       ??_C@_0BDD@GKPIBMJJ@030000006b140000100d00000000000@ 000000014006c280     raylib:rglfw.obj
 0002:000273c0       ??_C@_0BDE@ONNAEGKC@030000006b140000080d00000000000@ 000000014006c3c0     raylib:rglfw.obj
 0002:00027500       ??_C@_0BBC@GIBJCFBO@03000000bd12000001c000000000000@ 000000014006c500     raylib:rglfw.obj
 0002:00027620       ??_C@_0LB@CDELBLNO@03000000eb030000000000000000000@ 000000014006c620     raylib:rglfw.obj
 0002:000276e0       ??_C@_0BAP@EKJKNFMB@0300000038070000efbe00000000000@ 000000014006c6e0     raylib:rglfw.obj
 0002:000277f0       ??_C@_0JN@LDIKBMGP@0300000092120000474e00000000000@ 000000014006c7f0     raylib:rglfw.obj
 0002:00027890       ??_C@_0JC@DLMIFDKP@03000000921200004b4600000000000@ 000000014006c890     raylib:rglfw.obj
 0002:00027930       ??_C@_0II@IADGACJD@03000000000f0000010000000000000@ 000000014006c930     raylib:rglfw.obj
 0002:000279c0       ??_C@_0II@JMEJCFDH@0300000092120000434600000000000@ 000000014006c9c0     raylib:rglfw.obj
 0002:00027a50       ??_C@_0PJ@NCNHNDBB@0300000079000000451800000000000@ 000000014006ca50     raylib:rglfw.obj
 0002:00027b50       ??_C@_0MJ@DMAMFLIE@030000001008000001e500000000000@ 000000014006cb50     raylib:rglfw.obj
 0002:00027c20       ??_C@_0BAP@GAJKEBJM@03000000050b0000004500000000000@ 000000014006cc20     raylib:rglfw.obj
 0002:00027d30       ??_C@_0BAP@FBAIDBI@0300000015200000018200000000000@ 000000014006cd30     raylib:rglfw.obj
 0002:00027e40       ??_C@_0BDN@BCBBCGHK@030000007e050000092000000000000@ 000000014006ce40     raylib:rglfw.obj
 0002:00027f80       ??_C@_0BCB@EPBJCJPK@030000000d050000030800000000000@ 000000014006cf80     raylib:rglfw.obj
 0002:000280b0       ??_C@_0BBL@FPDIIACJ@030000007e050000192000000000000@ 000000014006d0b0     raylib:rglfw.obj
 0002:000281d0       ??_C@_0NM@KOHIHPAP@030000007e050000172000000000000@ 000000014006d1d0     raylib:rglfw.obj
 0002:000282b0       ??_C@_0BCH@EOGEPPIO@0300000055090000147200000000000@ 000000014006d2b0     raylib:rglfw.obj
 0002:000283e0       ??_C@_0BBH@PBINHJFF@0300000055090000107200000000000@ 000000014006d3e0     raylib:rglfw.obj
 0002:00028500       ??_C@_0BBJ@BILBKLAF@030000005509000000b400000000000@ 000000014006d500     raylib:rglfw.obj
 0002:00028620       ??_C@_0BCH@PNDCHDKG@03000000120c0000028800000000000@ 000000014006d620     raylib:rglfw.obj
 0002:00028750       ??_C@_0PI@MOCMDEPK@030000004b120000014d00000000000@ 000000014006d750     raylib:rglfw.obj
 0002:00028850       ??_C@_0BCP@DMEHFGGP@03000000d62000001d5700000000000@ 000000014006d850     raylib:rglfw.obj
 0002:00028980       ??_C@_0PB@IOMBLEOP@03000000791d0000090000000000000@ 000000014006d980     raylib:rglfw.obj
 0002:00028a80       ??_C@_0BCJ@NAIJIFPE@03000000782300000a1000000000000@ 000000014006da80     raylib:rglfw.obj
 0002:00028bb0       ??_C@_0OO@GMPNEDNB@030000000d0f0000040100000000000@ 000000014006dbb0     raylib:rglfw.obj
 0002:00028ca0       ??_C@_0BBA@OFDKHKCC@030000008916000001fd00000000000@ 000000014006dca0     raylib:rglfw.obj
 0002:00028db0       ??_C@_0BBA@GMHCMENB@030000008916000000fd00000000000@ 000000014006ddb0     raylib:rglfw.obj
 0002:00028ec0       ??_C@_0BCH@LIIGHPB@03000000d62000006d5700000000000@ 000000014006dec0     raylib:rglfw.obj
 0002:00028ff0       ??_C@_0BCE@MPKCEKIF@030000006b14000001a100000000000@ 000000014006dff0     raylib:rglfw.obj
 0002:00029120       ??_C@_0BAM@GJHJHCLC@0300000036280000010000000000000@ 000000014006e120     raylib:rglfw.obj
 0002:00029230       ??_C@_0NM@DIHPIOHI@03000000120c0000f60e00000000000@ 000000014006e230     raylib:rglfw.obj
 0002:00029310       ??_C@_0BBI@DJKPMFEG@0300000079000000220100000000000@ 000000014006e310     raylib:rglfw.obj
 0002:00029430       ??_C@_0BBL@JJJCCPIO@030000006f0e0000850100000000000@ 000000014006e430     raylib:rglfw.obj
 0002:00029550       ??_C@_0OF@BHMGIDMP@030000006f0e0000090100000000000@ 000000014006e550     raylib:rglfw.obj
 0002:00029640       ??_C@_0ME@NBGPMGJA@030000008f0e0000410000000000000@ 000000014006e640     raylib:rglfw.obj
 0002:00029710       ??_C@_0BBO@IIHBNBOD@03000000e3050000960500000000000@ 000000014006e710     raylib:rglfw.obj
 0002:00029830       ??_C@_0OC@CPLNMNJF@030000004c050000da0c00000000000@ 000000014006e830     raylib:rglfw.obj
 0002:00029920       ??_C@_0BCD@DDPGKIJO@0300000063250000230600000000000@ 000000014006e920     raylib:rglfw.obj
 0002:00029a50       ??_C@_0BCL@HPCBIDLN@03000000f0250000c18300000000000@ 000000014006ea50     raylib:rglfw.obj
 0002:00029b80       ??_C@_0BCJ@KKCLFNIG@03000000d9040000160f00000000000@ 000000014006eb80     raylib:rglfw.obj
 0002:00029cb0       ??_C@_0NL@JGIMNLNL@030000004c050000371300000000000@ 000000014006ecb0     raylib:rglfw.obj
 0002:00029d90       ??_C@_0BCC@FJIJNHMA@03000000d62000006dca00000000000@ 000000014006ed90     raylib:rglfw.obj
 0002:00029ec0       ??_C@_0BCK@GJHBJFNJ@0300000062060000d57000000000000@ 000000014006eec0     raylib:rglfw.obj
 0002:00029ff0       ??_C@_0BCN@GAJGAPPD@03000000d620000013a700000000000@ 000000014006eff0     raylib:rglfw.obj
 0002:0002a120       ??_C@_0BBE@NAJAGLNK@030000006d04000084ca00000000000@ 000000014006f120     raylib:rglfw.obj
 0002:0002a240       ??_C@_0BCN@POFKMMNB@03000000d6200000955700000000000@ 000000014006f240     raylib:rglfw.obj
 0002:0002a370       ??_C@_0BBG@CHEDEDAL@03000000c62400001a5300000000000@ 000000014006f370     raylib:rglfw.obj
 0002:0002a490       ??_C@_0BCP@EHCNAHCG@03000000d62000009f3100000000000@ 000000014006f490     raylib:rglfw.obj
 0002:0002a5c0       ??_C@_0BCP@LIBLBNIN@03000000d6200000c75700000000000@ 000000014006f5c0     raylib:rglfw.obj
 0002:0002a6f0       ??_C@_0BAP@EHGALEKD@03000000120c0000110e00000000000@ 000000014006f6f0     raylib:rglfw.obj
 0002:0002a800       ??_C@_0BBJ@MEIBJIGF@0300000010080000010000000000000@ 000000014006f800     raylib:rglfw.obj
 0002:0002a920       ??_C@_0BBO@LNNKKDPA@030000008f0e0000753000000000000@ 000000014006f920     raylib:rglfw.obj
 0002:0002aa40       ??_C@_0BBJ@HBGMHFLL@0300000010080000030000000000000@ 000000014006fa40     raylib:rglfw.obj
 0002:0002ab60       ??_C@_0BBJ@BPIBOHML@0300000025090000008800000000000@ 000000014006fb60     raylib:rglfw.obj
 0002:0002ac80       ??_C@_0BBJ@GMPJDLAI@0300000025090000688800000000000@ 000000014006fc80     raylib:rglfw.obj
 0002:0002ada0       ??_C@_0BBJ@PKNJJDLA@0300000025090000888800000000000@ 000000014006fda0     raylib:rglfw.obj
 0002:0002aec0       ??_C@_0BBF@DJBNPOOL@0300000066660000670600000000000@ 000000014006fec0     raylib:rglfw.obj
 0002:0002afe0       ??_C@_0BCD@JLFNAMGI@030000006b140000030300000000000@ 000000014006ffe0     raylib:rglfw.obj
 0002:0002b110       ??_C@_0BBJ@OPMOLAIB@030000009d0d0000133000000000000@ 0000000140070110     raylib:rglfw.obj
 0002:0002b230       ??_C@_0BBM@GKNAAEMK@03000000151a0000622200000000000@ 0000000140070230     raylib:rglfw.obj
 0002:0002b350       ??_C@_0BBL@KJIKFDOE@03000000120a0000010000000000000@ 0000000140070350     raylib:rglfw.obj
 0002:0002b470       ??_C@_0BBJ@NMJEKOPG@03000000120c0000130700000000000@ 0000000140070470     raylib:rglfw.obj
 0002:0002b590       ??_C@_0BBJ@IOHLPFFL@03000000120c00001cf100000000000@ 0000000140070590     raylib:rglfw.obj
 0002:0002b6b0       ??_C@_0BBJ@MGHJKPDC@03000000120c0000f90e00000000000@ 00000001400706b0     raylib:rglfw.obj
 0002:0002b7d0       ??_C@_0BBJ@JPPEKOGO@0300000025090000011800000000000@ 00000001400707d0     raylib:rglfw.obj
 0002:0002b8f0       ??_C@_0BBJ@IPKMENOG@0300000025090000021800000000000@ 00000001400708f0     raylib:rglfw.obj
 0002:0002ba10       ??_C@_0BBJ@FKANGOML@0300000025090000050000000000000@ 0000000140070a10     raylib:rglfw.obj
 0002:0002bb30       ??_C@_0BCF@OCBMGCLB@030000004c050000680200000000000@ 0000000140070b30     raylib:rglfw.obj
 0002:0002bc60       ??_C@_0OI@KFLCNBHJ@030000004f1f0000080000000000000@ 0000000140070c60     raylib:rglfw.obj
 0002:0002bd50       ??_C@_0BCD@GAEBDFLF@0300000063250000750500000000000@ 0000000140070d50     raylib:rglfw.obj
 0002:0002be80       ??_C@_0BCD@DJDMNCGP@0300000088880000080300000000000@ 0000000140070e80     raylib:rglfw.obj
 0002:0002bfb0       ??_C@_0PG@PIGKNHKO@0300000088880000080400000000000@ 0000000140070fb0     raylib:rglfw.obj
 0002:0002c0b0       ??_C@_0BBJ@LOLELGGN@030000008f0e0000030000000000000@ 00000001400710b0     raylib:rglfw.obj
 0002:0002c1d0       ??_C@_0BCD@PNMMMGBA@030000008f0e0000143100000000000@ 00000001400711d0     raylib:rglfw.obj
 0002:0002c300       ??_C@_0BBJ@CEHNDLPC@03000000ba220000201000000000000@ 0000000140071300     raylib:rglfw.obj
 0002:0002c420       ??_C@_0BBJ@ODJDIKGD@03000000120c0000080700000000000@ 0000000140071420     raylib:rglfw.obj
 0002:0002c540       ??_C@_0BBJ@GEHAJGJD@03000000120c0000111e00000000000@ 0000000140071540     raylib:rglfw.obj
 0002:0002c660       ??_C@_0BBJ@HECIHFBL@03000000120c0000121e00000000000@ 0000000140071660     raylib:rglfw.obj
 0002:0002c780       ??_C@_0BBJ@LDEHJICK@03000000120c0000130e00000000000@ 0000000140071780     raylib:rglfw.obj
 0002:0002c8a0       ??_C@_0BBJ@JDPGFPDK@03000000120c0000150e00000000000@ 00000001400718a0     raylib:rglfw.obj
 0002:0002c9c0       ??_C@_0BBJ@GLINHCFN@03000000120c0000180e00000000000@ 00000001400719c0     raylib:rglfw.obj
 0002:0002cae0       ??_C@_0BBJ@BFPKDMCL@03000000120c0000181e00000000000@ 0000000140071ae0     raylib:rglfw.obj
 0002:0002cc00       ??_C@_0BBJ@KMOCJPGM@03000000120c0000191e00000000000@ 0000000140071c00     raylib:rglfw.obj
 0002:0002cd20       ??_C@_0BBJ@CLIGBKDI@03000000120c00001e0e00000000000@ 0000000140071d20     raylib:rglfw.obj
 0002:0002ce40       ??_C@_0BBJ@OHIFDC@03000000120c0000a95700000000000@ 0000000140071e40     raylib:rglfw.obj
 0002:0002cf60       ??_C@_0BBJ@HAAFMJMP@03000000120c0000aa5700000000000@ 0000000140071f60     raylib:rglfw.obj
 0002:0002d080       ??_C@_0BBJ@JGDFLJKM@03000000120c0000f21c00000000000@ 0000000140072080     raylib:rglfw.obj
 0002:0002d1a0       ??_C@_0BBJ@CPCNBKOL@03000000120c0000f31c00000000000@ 00000001400721a0     raylib:rglfw.obj
 0002:0002d2c0       ??_C@_0BBJ@LGIEHOLM@03000000120c0000f41c00000000000@ 00000001400722c0     raylib:rglfw.obj
 0002:0002d3e0       ??_C@_0BBJ@PJMNNPL@03000000120c0000f51c00000000000@ 00000001400723e0     raylib:rglfw.obj
 0002:0002d500       ??_C@_0BBJ@CBJGGDKP@03000000120c0000f70e00000000000@ 0000000140072500     raylib:rglfw.obj
 0002:0002d620       ??_C@_0BBJ@DGACNCMP@03000000120e0000120c00000000000@ 0000000140072620     raylib:rglfw.obj
 0002:0002d740       ??_C@_0BBJ@MGLGHKFM@03000000160e0000120c00000000000@ 0000000140072740     raylib:rglfw.obj
 0002:0002d860       ??_C@_0BBJ@FFOEALGB@030000001a1e0000120c00000000000@ 0000000140072860     raylib:rglfw.obj
 0002:0002d980       ??_C@_0BCD@JIBGPOCI@030000004c050000a00b00000000000@ 0000000140072980     raylib:rglfw.obj
 0002:0002dab0       ??_C@_0BDA@BJFBPPGJ@030000004c050000c40500000000000@ 0000000140072ab0     raylib:rglfw.obj
 0002:0002dbe0       ??_C@_0BCD@BABDCDPH@030000004c050000cc0900000000000@ 0000000140072be0     raylib:rglfw.obj
 0002:0002dd10       ??_C@_0BDK@DGKONBJI@030000004c050000e60c00000000000@ 0000000140072d10     raylib:rglfw.obj
 0002:0002de50       ??_C@_0BAO@JIOIDPNA@0300000083050000502000000000000@ 0000000140072e50     raylib:rglfw.obj
 0002:0002df60       ??_C@_0BBC@OCLIBEL@03000000300f0000011100000000000@ 0000000140072f60     raylib:rglfw.obj
 0002:0002e080       ??_C@_0BBD@CHHGFKJJ@03000000300f0000021100000000000@ 0000000140073080     raylib:rglfw.obj
 0002:0002e1a0       ??_C@_0PC@KNHKIMPD@03000000300f0000001100000000000@ 00000001400731a0     raylib:rglfw.obj
 0002:0002e2a0       ??_C@_0OJ@EFEKJLPN@03000000300f0000161100000000000@ 00000001400732a0     raylib:rglfw.obj
 0002:0002e390       ??_C@_0BDB@JFMCAGFG@03000000222c0000002500000000000@ 0000000140073390     raylib:rglfw.obj
 0002:0002e4d0       ??_C@_0OK@KMHKINOA@03000000222c0000002000000000000@ 00000001400734d0     raylib:rglfw.obj
 0002:0002e5c0       ??_C@_0BBJ@PDAOMCOO@03000000300f0000121100000000000@ 00000001400735c0     raylib:rglfw.obj
 0002:0002e6e0       ??_C@_0LE@DBBJOLDN@03000000300f0000121000000000000@ 00000001400736e0     raylib:rglfw.obj
 0002:0002e7a0       ??_C@_0PI@FGBBHGKB@03000000341a0000010400000000000@ 00000001400737a0     raylib:rglfw.obj
 0002:0002e8a0       ??_C@_0BDE@GNKDCOPJ@03000000222c0000022300000000000@ 00000001400738a0     raylib:rglfw.obj
 0002:0002e9e0       ??_C@_0BDF@PJNIMKOK@03000000222c0000002300000000000@ 00000001400739e0     raylib:rglfw.obj
 0002:0002eb20       ??_C@_0HP@JHCCOBOH@030000008a240000668200000000000@ 0000000140073b20     raylib:rglfw.obj
 0002:0002eba0       ??_C@_0BBF@ENCOPNAP@0300000008670000662600000000000@ 0000000140073ba0     raylib:rglfw.obj
 0002:0002ecc0       ??_C@_0PM@JKPNNDHH@03000000ff110000473300000000000@ 0000000140073cc0     raylib:rglfw.obj
 0002:0002edc0       ??_C@_0ND@NDCNCLKB@030000009b280000230000000000000@ 0000000140073dc0     raylib:rglfw.obj
 0002:0002eea0       ??_C@_0ND@EMNLLEGF@030000009b280000690000000000000@ 0000000140073ea0     raylib:rglfw.obj
 0002:0002ef80       ??_C@_0ME@JKBJMOBP@030000009b280000080000000000000@ 0000000140073f80     raylib:rglfw.obj
 0002:0002f050       ??_C@_0OO@LPIEFBII@030000009b280000320000000000000@ 0000000140074050     raylib:rglfw.obj
 0002:0002f140       ??_C@_0OO@IJDCPBBL@030000009b280000600000000000000@ 0000000140074140     raylib:rglfw.obj
 0002:0002f230       ??_C@_0PE@LHDLFKC@030000009b280000180000000000000@ 0000000140074230     raylib:rglfw.obj
 0002:0002f330       ??_C@_0KD@EJGKKKKO@030000009b280000020000000000000@ 0000000140074330     raylib:rglfw.obj
 0002:0002f3e0       ??_C@_0BCC@FCHHIHKE@030000009b280000440000000000000@ 00000001400743e0     raylib:rglfw.obj
 0002:0002f510       ??_C@_0NM@JJCPHIPJ@030000009b280000430000000000000@ 0000000140074510     raylib:rglfw.obj
 0002:0002f5f0       ??_C@_0NG@OFCEMDDC@030000009b280000050000000000000@ 00000001400745f0     raylib:rglfw.obj
 0002:0002f6d0       ??_C@_0MP@KDFGLGDF@030000009b280000030000000000000@ 00000001400746d0     raylib:rglfw.obj
 0002:0002f7a0       ??_C@_0LJ@DCCHLFMO@030000009b280000560000000000000@ 00000001400747a0     raylib:rglfw.obj
 0002:0002f860       ??_C@_0LJ@ODPIJGOJ@030000009b280000570000000000000@ 0000000140074860     raylib:rglfw.obj
 0002:0002f920       ??_C@_0KA@JIJCMGMO@030000009b2800001e0000000000000@ 0000000140074920     raylib:rglfw.obj
 0002:0002f9c0       ??_C@_0BAF@DDNNAENH@030000009b2800002b0000000000000@ 00000001400749c0     raylib:rglfw.obj
 0002:0002fad0       ??_C@_0BAF@BEANEAOL@030000009b2800002c0000000000000@ 0000000140074ad0     raylib:rglfw.obj
 0002:0002fbe0       ??_C@_0BAF@EBPNLKIJ@0300000032150000000300000000000@ 0000000140074be0     raylib:rglfw.obj
 0002:0002fcf0       ??_C@_0BDC@OANPCPAO@0300000032150000020400000000000@ 0000000140074cf0     raylib:rglfw.obj
 0002:0002fe30       ??_C@_0BCH@BAMAOBFH@0300000032150000010400000000000@ 0000000140074e30     raylib:rglfw.obj
 0002:0002ff60       ??_C@_0BBG@KKBOOPHI@0300000032150000001000000000000@ 0000000140074f60     raylib:rglfw.obj
 0002:00030080       ??_C@_0BBP@CNEONNDL@0300000032150000050700000000000@ 0000000140075080     raylib:rglfw.obj
 0002:000301a0       ??_C@_0BBP@NILOBHMB@0300000032150000070700000000000@ 00000001400751a0     raylib:rglfw.obj
 0002:000302c0       ??_C@_0BBJ@CCGNOEBE@0300000032150000071000000000000@ 00000001400752c0     raylib:rglfw.obj
 0002:000303e0       ??_C@_0BBJ@OHBPBOKJ@03000000321500000a1000000000000@ 00000001400753e0     raylib:rglfw.obj
 0002:00030500       ??_C@_0BBJ@PGOBJLKF@0300000032150000041000000000000@ 0000000140075500     raylib:rglfw.obj
 0002:00030620       ??_C@_0BBJ@OJKLGMC@0300000032150000091000000000000@ 0000000140075620     raylib:rglfw.obj
 0002:00030740       ??_C@_0BCN@GNBFBGJH@0300000032150000001100000000000@ 0000000140075740     raylib:rglfw.obj
 0002:00030870       ??_C@_0BAO@BBCMHMGF@0300000032150000000900000000000@ 0000000140075870     raylib:rglfw.obj
 0002:00030980       ??_C@_0NF@DMIEBOED@0300000092120000454700000000000@ 0000000140075980     raylib:rglfw.obj
 0002:00030a60       ??_C@_0NE@IPBEMIGD@0300000079000000110000000000000@ 0000000140075a60     raylib:rglfw.obj
 0002:00030b40       ??_C@_0NE@ONNDGEPN@0300000083050000602000000000000@ 0000000140075b40     raylib:rglfw.obj
 0002:00030c20       ??_C@_0OE@GJDEDKLF@03000000bd12000013d000000000000@ 0000000140075c20     raylib:rglfw.obj
 0002:00030d10       ??_C@_0LO@OMJCJFJH@03000000bd12000015d000000000000@ 0000000140075d10     raylib:rglfw.obj
 0002:00030dd0       ??_C@_0LG@DLMLAPPJ@0300000000f00000030000000000000@ 0000000140075dd0     raylib:rglfw.obj
 0002:00030e90       ??_C@_0LN@DLGILIOA@0300000000f00000f10000000000000@ 0000000140075e90     raylib:rglfw.obj
 0002:00030f50       ??_C@_0KC@FAPCENLG@0300000083050000096000000000000@ 0000000140075f50     raylib:rglfw.obj
 0002:00031000       ??_C@_0BCO@NGLDHPOC@030000006b140000010d00000000000@ 0000000140076000     raylib:rglfw.obj
 0002:00031130       ??_C@_0BDA@MELLLLEB@030000006b140000020d00000000000@ 0000000140076130     raylib:rglfw.obj
 0002:00031260       ??_C@_0BDA@ENLICDAF@030000006b140000130d00000000000@ 0000000140076260     raylib:rglfw.obj
 0002:00031390       ??_C@_0BBD@HNOHIKMC@030000006f0e00001f0100000000000@ 0000000140076390     raylib:rglfw.obj
 0002:000314b0       ??_C@_0BBD@HJEPNMOA@030000006f0e0000460100000000000@ 00000001400764b0     raylib:rglfw.obj
 0002:000315d0       ??_C@_0BCI@KKFDEPLA@03000000c6240000fefa00000000000@ 00000001400765d0     raylib:rglfw.obj
 0002:00031700       ??_C@_0BCO@NNBOKIIL@030000006f0e00001e0100000000000@ 0000000140076700     raylib:rglfw.obj
 0002:00031830       ??_C@_0BCO@BGDMHMEJ@030000006f0e0000280100000000000@ 0000000140076830     raylib:rglfw.obj
 0002:00031960       ??_C@_0BCO@NPMGKBDH@030000006f0e00002f0100000000000@ 0000000140076960     raylib:rglfw.obj
 0002:00031a90       ??_C@_0BCH@FFGHCGKN@030000006f0e0000870100000000000@ 0000000140076a90     raylib:rglfw.obj
 0002:00031bc0       ??_C@_0GF@JEDHNNKF@03000000050b0000e31800000000000@ 0000000140076bc0     raylib:rglfw.obj
 0002:00031c30       ??_C@_0GF@JDEPBJEG@03000000050b0000e51800000000000@ 0000000140076c30     raylib:rglfw.obj
 0002:00031ca0       ??_C@_0GK@JHPEENBN@03000000050b0000581900000000000@ 0000000140076ca0     raylib:rglfw.obj
 0002:00031d10       ??_C@_0GH@DONPDME@03000000050b0000181a00000000000@ 0000000140076d10     raylib:rglfw.obj
 0002:00031d80       ??_C@_0GH@POONHMGE@03000000050b00001a1a00000000000@ 0000000140076d80     raylib:rglfw.obj
 0002:00031df0       ??_C@_0GH@BAPEBOPB@03000000050b00001c1a00000000000@ 0000000140076df0     raylib:rglfw.obj
 0002:00031e60       ??_C@_0BBH@MLLDJHDG@030000004f04000001d000000000000@ 0000000140076e60     raylib:rglfw.obj
 0002:00031f80       ??_C@_0BBD@BLJNGHBJ@030000008916000000fe00000000000@ 0000000140076f80     raylib:rglfw.obj
 0002:000320a0       ??_C@_0BBD@NNIBMJEF@03000000c6240000045d00000000000@ 00000001400770a0     raylib:rglfw.obj
 0002:000321c0       ??_C@_0BBI@BAKFEMPI@03000000a30600001af500000000000@ 00000001400771c0     raylib:rglfw.obj
 0002:000322e0       ??_C@_0BCL@BLBGIFFB@03000000a306000023f600000000000@ 00000001400772e0     raylib:rglfw.obj
 0002:00032410       ??_C@_0BBN@CECGNLIH@03000000300f0000120100000000000@ 0000000140077410     raylib:rglfw.obj
 0002:00032530       ??_C@_0LO@FCDDJGBI@03000000a3060000070100000000000@ 0000000140077530     raylib:rglfw.obj
 0002:000325f0       ??_C@_0BCE@MEOLIHLF@03000000a30600000cff00000000000@ 00000001400775f0     raylib:rglfw.obj
 0002:00032720       ??_C@_0PK@JIJIKDCI@03000000a30600000d5f00000000000@ 0000000140077720     raylib:rglfw.obj
 0002:00032820       ??_C@_0BBH@MDCLDJEC@03000000a30600000dff00000000000@ 0000000140077820     raylib:rglfw.obj
 0002:00032940       ??_C@_0BCB@GBOFCHI@03000000a30600000c0400000000000@ 0000000140077940     raylib:rglfw.obj
 0002:00032a70       ??_C@_0BBH@FMIHBJBJ@03000000a306000018f500000000000@ 0000000140077a70     raylib:rglfw.obj
 0002:00032b90       ??_C@_0BBN@COAMKJDN@03000000300f0000100100000000000@ 0000000140077b90     raylib:rglfw.obj
 0002:00032cb0       ??_C@_0BAD@DNJBNGED@03000000a3060000090100000000000@ 0000000140077cb0     raylib:rglfw.obj
 0002:00032dc0       ??_C@_0BCA@LOJNHICN@03000000a30600000b0400000000000@ 0000000140077dc0     raylib:rglfw.obj
 0002:00032ee0       ??_C@_0BDJ@BDDOANGH@03000000a3060000210600000000000@ 0000000140077ee0     raylib:rglfw.obj
 0002:00033020       ??_C@_0BDJ@KOLDFLGO@03000000a306000020f600000000000@ 0000000140078020     raylib:rglfw.obj
 0002:00033160       ??_C@_0BBJ@IJGOIIJG@03000000300f0000110100000000000@ 0000000140078160     raylib:rglfw.obj
 0002:00033280       ??_C@_0NP@JAGIAJMJ@03000000e804000000a000000000000@ 0000000140078280     raylib:rglfw.obj
 0002:00033360       ??_C@_0OJ@KFHPACB@03000000c0110000025200000000000@ 0000000140078360     raylib:rglfw.obj
 0002:00033450       ??_C@_0BBF@HHJBKDPJ@03000000c0110000435000000000000@ 0000000140078450     raylib:rglfw.obj
 0002:00033570       ??_C@_0BBP@BCIFEABB@0300000041120000455000000000000@ 0000000140078570     raylib:rglfw.obj
 0002:00033690       ??_C@_0BBP@BMPGDPBL@03000000c0110000415000000000000@ 0000000140078690     raylib:rglfw.obj
 0002:000337b0       ??_C@_0BBO@BMEOCEKK@03000000c0110000445000000000000@ 00000001400787b0     raylib:rglfw.obj
 0002:000338d0       ??_C@_0JB@BNANHOBC@0300000073070000040100000000000@ 00000001400788d0     raylib:rglfw.obj
 0002:00033970       ??_C@_0NM@BFKDLPHD@0300000083050000612000000000000@ 0000000140078970     raylib:rglfw.obj
 0002:00033a50       ??_C@_0BBP@OCBFGFHG@03000000c0110000005100000000000@ 0000000140078a50     raylib:rglfw.obj
 0002:00033b70       ??_C@_0BBC@KKFCBPLJ@030000004f04000028b300000000000@ 0000000140078b70     raylib:rglfw.obj
 0002:00033c90       ??_C@_0BBO@PLICFBHH@03000000952e0000257700000000000@ 0000000140078c90     raylib:rglfw.obj
 0002:00033db0       ??_C@_0KB@FJBKKJLJ@03000000a30c0000250000000000000@ 0000000140078db0     raylib:rglfw.obj
 0002:00033e60       ??_C@_0LP@KJGJAICP@03000000a30c0000240000000000000@ 0000000140078e60     raylib:rglfw.obj
 0002:00033f20       ??_C@_0MP@KOFFFPFK@0300000000050000289b00000000000@ 0000000140078f20     raylib:rglfw.obj
 0002:00033ff0       ??_C@_0LD@COAMLBOL@0300000000f00000080000000000000@ 0000000140078ff0     raylib:rglfw.obj
 0002:000340b0       ??_C@_0OI@JKPMMAIM@0300000073070000060100000000000@ 00000001400790b0     raylib:rglfw.obj
 0002:000341a0       ??_C@_0NC@JECGBGLP@03000000b40400000a0100000000000@ 00000001400791a0     raylib:rglfw.obj
 0002:00034280       ??_C@_0KO@PCMCKOFN@030000003b07000004a100000000000@ 0000000140079280     raylib:rglfw.obj
 0002:00034330       ??_C@_0BAG@OGBBCNNO@03000000f8210000190000000000000@ 0000000140079330     raylib:rglfw.obj
 0002:00034440       ??_C@_0BCG@CEKGHCEM@03000000120c00001c1e00000000000@ 0000000140079440     raylib:rglfw.obj
 0002:00034570       ??_C@_0LE@HKBICKDB@0300000003040000c19700000000000@ 0000000140079570     raylib:rglfw.obj
 0002:00034630       ??_C@_0LE@LDMCMIMJ@0300000081170000960a00000000000@ 0000000140079630     raylib:rglfw.obj
 0002:000346f0       ??_C@_0MK@KMNKCPKM@03000000811700009d0a00000000000@ 00000001400796f0     raylib:rglfw.obj
 0002:000347c0       ??_C@_0MK@GPPBMDDL@030000008b280000030000000000000@ 00000001400797c0     raylib:rglfw.obj
 0002:00034890       ??_C@_0LE@EJLBPKBO@0300000092120000465300000000000@ 0000000140079890     raylib:rglfw.obj
 0002:00034950       ??_C@_0NE@LGMKLDBJ@03000000ff000000cb0100000000000@ 0000000140079950     raylib:rglfw.obj
 0002:00034a30       ??_C@_0BBI@DOABGKGM@03000000341a0000020800000000000@ 0000000140079a30     raylib:rglfw.obj
 0002:00034b50       ??_C@_0BBJ@IJNHMBLM@03000000341a0000090800000000000@ 0000000140079b50     raylib:rglfw.obj
 0002:00034c70       ??_C@_0IM@KONCLKIJ@0300000038070000172200000000000@ 0000000140079c70     raylib:rglfw.obj
 0002:00034d00       ??_C@_0BBO@BNOOOPGH@030000008f0e0000080000000000000@ 0000000140079d00     raylib:rglfw.obj
 0002:00034e20       ??_C@_0BBK@JNJGFNNI@03000000c0110000059100000000000@ 0000000140079e20     raylib:rglfw.obj
 0002:00034f40       ??_C@_0BCG@JIGLIOKN@03000000d1180000009400000000000@ 0000000140079f40     raylib:rglfw.obj
 0002:00035070       ??_C@_0BBP@JLPFCHDO@03000000de280000fc1100000000000@ 000000014007a070     raylib:rglfw.obj
 0002:00035190       ??_C@_0BCA@GKKEHPCK@03000000de280000ff1100000000000@ 000000014007a190     raylib:rglfw.obj
 0002:000352b0       ??_C@_0BCO@LLNJCJKE@03000000120c0000160e00000000000@ 000000014007a2b0     raylib:rglfw.obj
 0002:000353e0       ??_C@_0OO@GFAPAFAG@0300000011010000191400000000000@ 000000014007a3e0     raylib:rglfw.obj
 0002:000354d0       ??_C@_0OB@DNKPJMLF@0300000038100000121400000000000@ 000000014007a4d0     raylib:rglfw.obj
 0002:000355c0       ??_C@_0BCE@DAIILIHH@0300000011010000311400000000000@ 000000014007a5c0     raylib:rglfw.obj
 0002:000356f0       ??_C@_0BCK@OBFFPLDA@0300000038100000301400000000000@ 000000014007a6f0     raylib:rglfw.obj
 0002:00035820       ??_C@_0BCK@PDJDMHCK@0300000038100000311400000000000@ 000000014007a820     raylib:rglfw.obj
 0002:00035950       ??_C@_0BCI@MBOCFMGI@0300000038100000181400000000000@ 000000014007a950     raylib:rglfw.obj
 0002:00035a80       ??_C@_0BBG@OCFNHFCJ@03000000790000001c1800000000000@ 000000014007aa80     raylib:rglfw.obj
 0002:00035ba0       ??_C@_0PI@GDGEDJAO@0300000038070000384700000000000@ 000000014007aba0     raylib:rglfw.obj
 0002:00035ca0       ??_C@_0LN@LGDICJHG@030000001f08000001e400000000000@ 000000014007aca0     raylib:rglfw.obj
 0002:00035d60       ??_C@_0MC@HPFCPOON@0300000079000000041800000000000@ 000000014007ad60     raylib:rglfw.obj
 0002:00035e30       ??_C@_0KN@LLPLNNBF@0300000034120000130000000000000@ 000000014007ae30     raylib:rglfw.obj
 0002:00035ee0       ??_C@_0BCG@CJGBMECC@03000000d620000011a700000000000@ 000000014007aee0     raylib:rglfw.obj
 0002:00036010       ??_C@_0BBK@MNADJMEC@030000000d0f0000f60000000000000@ 000000014007b010     raylib:rglfw.obj
 0002:00036130       ??_C@_0BCK@OENIKMPP@0300000045750000221100000000000@ 000000014007b130     raylib:rglfw.obj
 0002:00036260       ??_C@_0ON@JIKCPOBA@030000004f0400000ab100000000000@ 000000014007b260     raylib:rglfw.obj
 0002:00036350       ??_C@_0BBD@IBNNJHFG@030000000d0f00007b0000000000000@ 000000014007b350     raylib:rglfw.obj
 0002:00036470       ??_C@_0MM@BFFDOONN@03000000e40a0000020700000000000@ 000000014007b470     raylib:rglfw.obj
 0002:00036540       ??_C@_0BBD@DIHJADPO@03000000d814000001a000000000000@ 000000014007b540     raylib:rglfw.obj
 0002:00036660       ??_C@_0BBB@HMBGBDKD@03000000fa190000070600000000000@ 000000014007b660     raylib:rglfw.obj
 0002:00036780       ??_C@_0BBO@FCIHICKG@03000000b5070000120300000000000@ 000000014007b780     raylib:rglfw.obj
 0002:000368a0       ??_C@_0BCM@NDPJEPPD@03000000ba220000070100000000000@ 000000014007b8a0     raylib:rglfw.obj
 0002:000369d0       ??_C@_0BBB@NFAGIKNF@03000000c6110000100000000000000@ 000000014007b9d0     raylib:rglfw.obj
 0002:00036af0       ??_C@_0BAO@OPPGDGHB@0300000079000000260100000000000@ 000000014007baf0     raylib:rglfw.obj
 0002:00036c00       ??_C@_0BCF@HEDDGGCD@030000004f04000015b300000000000@ 000000014007bc00     raylib:rglfw.obj
 0002:00036d30       ??_C@_0BDL@JCGCGOPN@030000004f04000023b300000000000@ 000000014007bd30     raylib:rglfw.obj
 0002:00036e70       ??_C@_0BDG@ILIOHIKJ@030000004f0400000ed000000000000@ 000000014007be70     raylib:rglfw.obj
 0002:00036fb0       ??_C@_0BBL@PPBMAKGB@030000004f04000008d000000000000@ 000000014007bfb0     raylib:rglfw.obj
 0002:000370d0       ??_C@_0BDG@FAKOKHMO@030000004f04000000b300000000000@ 000000014007c0d0     raylib:rglfw.obj
 0002:00037210       ??_C@_0BCM@CPLLEECI@030000004f04000004b300000000000@ 000000014007c210     raylib:rglfw.obj
 0002:00037340       ??_C@_0BED@OBFGEPOF@030000004f04000003d000000000000@ 000000014007c340     raylib:rglfw.obj
 0002:00037490       ??_C@_0BDK@CAOAMPA@030000004f04000009d000000000000@ 000000014007c490     raylib:rglfw.obj
 0002:000375d0       ??_C@_0BBF@KNHMBAAA@030000006d04000088ca00000000000@ 000000014007c5d0     raylib:rglfw.obj
 0002:000376f0       ??_C@_0BCE@HMCKOKFE@0300000066660000028800000000000@ 000000014007c6f0     raylib:rglfw.obj
 0002:00037820       ??_C@_0BCE@OONGINMP@0300000066660000048800000000000@ 000000014007c820     raylib:rglfw.obj
 0002:00037950       ??_C@_0BBK@PJKEFHEG@030000004f04000007d000000000000@ 000000014007c950     raylib:rglfw.obj
 0002:00037a70       ??_C@_0JG@BNEFJCLG@03000000571d0000210000000000000@ 000000014007ca70     raylib:rglfw.obj
 0002:00037b10       ??_C@_0MC@CLGNKIOF@03000000571d0000200000000000000@ 000000014007cb10     raylib:rglfw.obj
 0002:00037be0       ??_C@_0BCO@ICLHBGLC@03000000d6200000600000000000000@ 000000014007cbe0     raylib:rglfw.obj
 0002:00037d10       ??_C@_0BBE@GEHCBFDA@03000000c0110000005500000000000@ 000000014007cd10     raylib:rglfw.obj
 0002:00037e30       ??_C@_0BCC@BGKKLNHG@030000005f140000c50100000000000@ 000000014007ce30     raylib:rglfw.obj
 0002:00037f60       ??_C@_0BCC@NMJPCJOC@03000000b8050000021000000000000@ 000000014007cf60     raylib:rglfw.obj
 0002:00038090       ??_C@_0KI@EKGGNLIH@030000004f04000087b600000000000@ 000000014007d090     raylib:rglfw.obj
 0002:00038140       ??_C@_0BBF@LPDONIBF@0300000041120000045000000000000@ 000000014007d140     raylib:rglfw.obj
 0002:00038260       ??_C@_0BCD@OHFLMBAC@03000000d9040000020000000000000@ 000000014007d260     raylib:rglfw.obj
 0002:00038390       ??_C@_0BAE@KFIFMKFB@0300000015190000567800000000000@ 000000014007d390     raylib:rglfw.obj
 0002:000384a0       ??_C@_0BBI@BNPIODHF@03000000101c0000171c00000000000@ 000000014007d4a0     raylib:rglfw.obj
 0002:000385c0       ??_C@_0BBJ@NLIDLNCP@030000000b040000306500000000000@ 000000014007d5c0     raylib:rglfw.obj
 0002:000386e0       ??_C@_0MP@FAENAOGJ@03000000242f00006e0000000000000@ 000000014007d6e0     raylib:rglfw.obj
 0002:000387b0       ??_C@_0BBJ@MNKCEAPL@03000000300f0000070100000000000@ 000000014007d7b0     raylib:rglfw.obj
 0002:000388d0       ??_C@_0BCD@MANHJOJI@03000000341a0000230800000000000@ 000000014007d8d0     raylib:rglfw.obj
 0002:00038a00       ??_C@_0BBJ@MDNFFKDA@0300000066660000018800000000000@ 000000014007da00     raylib:rglfw.obj
 0002:00038b20       ??_C@_0BCD@GDCKPADJ@030000006b140000020300000000000@ 000000014007db20     raylib:rglfw.obj
 0002:00038c50       ??_C@_0BBJ@CMCAPAKM@03000000790000000a0000000000000@ 000000014007dc50     raylib:rglfw.obj
 0002:00038d70       ??_C@_0BBJ@NHGLOFMJ@03000000b404000081c600000000000@ 000000014007dd70     raylib:rglfw.obj
 0002:00038e90       ??_C@_0BBJ@ENCJFFEK@03000000b5070000150300000000000@ 000000014007de90     raylib:rglfw.obj
 0002:00038fb0       ??_C@_0JK@HFOFIPCJ@03000000bd12000012d000000000000@ 000000014007dfb0     raylib:rglfw.obj
 0002:00039050       ??_C@_0BBJ@LAINPCH@03000000ff110000413300000000000@ 000000014007e050     raylib:rglfw.obj
 0002:00039170       ??_C@_0BCB@FMIBFKC@0300000063250000230500000000000@ 000000014007e170     raylib:rglfw.obj
 0002:000392a0       ??_C@_0BBK@ECLGAJHG@03000000790000001a1800000000000@ 000000014007e2a0     raylib:rglfw.obj
 0002:000393c0       ??_C@_0OH@IPHKKKC@03000000790000001b1800000000000@ 000000014007e3c0     raylib:rglfw.obj
 0002:000394b0       ??_C@_0OM@GAHKNKIA@030000006f0e0000030200000000000@ 000000014007e4b0     raylib:rglfw.obj
 0002:000395a0       ??_C@_0PK@HAIMEHEC@030000006f0e0000070200000000000@ 000000014007e5a0     raylib:rglfw.obj
 0002:000396a0       ??_C@_0BBM@OJGJOKHO@0300000034120000adbe00000000000@ 000000014007e6a0     raylib:rglfw.obj
 0002:000397c0       ??_C@_0BBP@CHBPGMDC@03000000120c0000ab5700000000000@ 000000014007e7c0     raylib:rglfw.obj
 0002:000398e0       ??_C@_0BBA@DIMLCJDK@030000007e050000300300000000000@ 000000014007e8e0     raylib:rglfw.obj
 0002:000399f0       ??_C@_0BBA@MKFMGJBP@0300000032150000030a00000000000@ 000000014007e9f0     raylib:rglfw.obj
 0002:00039b00       ??_C@_0BBC@PMGJJBGE@0300000032150000140a00000000000@ 000000014007eb00     raylib:rglfw.obj
 0002:00039c20       ??_C@_0NN@JLJANOJJ@030000002e160000efbe00000000000@ 000000014007ec20     raylib:rglfw.obj
 0002:00039d00       ??_C@_0BBM@HBPFADFM@0300000038070000164700000000000@ 000000014007ed00     raylib:rglfw.obj
 0002:00039e20       ??_C@_0BBO@IEDIEKCL@0300000038070000204500000000000@ 000000014007ee20     raylib:rglfw.obj
 0002:00039f40       ??_C@_0BBO@CDJPJADM@0300000038070000264400000000000@ 000000014007ef40     raylib:rglfw.obj
 0002:0003a060       ??_C@_0BBO@JHLAKPFF@0300000038070000264700000000000@ 000000014007f060     raylib:rglfw.obj
 0002:0003a180       ??_C@_0BBM@OGCLDOFH@030000003807000026b700000000000@ 000000014007f180     raylib:rglfw.obj
 0002:0003a2a0       ??_C@_0BBO@PDDCHHAO@0300000038070000364700000000000@ 000000014007f2a0     raylib:rglfw.obj
 0002:0003a3c0       ??_C@_0BBM@FOLAAEEC@030000005e040000190700000000000@ 000000014007f3c0     raylib:rglfw.obj
 0002:0003a4e0       ??_C@_0BBO@KFHOBJHO@030000005e0400008e0200000000000@ 000000014007f4e0     raylib:rglfw.obj
 0002:0003a600       ??_C@_0BBM@NGBDBEHA@030000005e040000910200000000000@ 000000014007f600     raylib:rglfw.obj
 0002:0003a720       ??_C@_0BBO@ILMKLDFI@03000000ad1b000000fd00000000000@ 000000014007f720     raylib:rglfw.obj
 0002:0003a840       ??_C@_0BBM@DNKODACK@03000000ad1b000001fd00000000000@ 000000014007f840     raylib:rglfw.obj
 0002:0003a960       ??_C@_0BBM@LNDKHODC@03000000ad1b000016f000000000000@ 000000014007f960     raylib:rglfw.obj
 0002:0003aa80       ??_C@_0BBM@MDJCFGBI@03000000ad1b00008e0200000000000@ 000000014007fa80     raylib:rglfw.obj
 0002:0003aba0       ??_C@_0BBO@GACOJKCL@03000000c6240000005300000000000@ 000000014007fba0     raylib:rglfw.obj
 0002:0003acc0       ??_C@_0PN@DPCPHLBG@03000000c6240000fdfa00000000000@ 000000014007fcc0     raylib:rglfw.obj
 0002:0003adc0       ??_C@_0BAB@JHPFFGPJ@0300000038070000284700000000000@ 000000014007fdc0     raylib:rglfw.obj
 0002:0003aed0       ??_C@_0BCF@EJLPDKJC@030000005e040000a10200000000000@ 000000014007fed0     raylib:rglfw.obj
 0002:0003b000       ??_C@_0BCD@KNBJHBAH@030000005e0400000a0b00000000000@ 0000000140080000     raylib:rglfw.obj
 0002:0003b130       ??_C@_0BBK@GLFNJKMB@03000000120c00000a8800000000000@ 0000000140080130     raylib:rglfw.obj
 0002:0003b250       ??_C@_0BBK@BLHNGMNC@03000000120c0000108800000000000@ 0000000140080250     raylib:rglfw.obj
 0002:0003b370       ??_C@_0BBG@PDHHGAJN@030000002a060000200000000000000@ 0000000140080370     raylib:rglfw.obj
 0002:0003b490       ??_C@_0BBG@GOKMNGNF@03000000300f0000888800000000000@ 0000000140080490     raylib:rglfw.obj
 0002:0003b5b0       ??_C@_0BBK@KGPIMLCG@0300000038070000164500000000000@ 00000001400805b0     raylib:rglfw.obj
 0002:0003b6d0       ??_C@_0BBK@NIPMIEG@0300000038070000264500000000000@ 00000001400806d0     raylib:rglfw.obj
 0002:0003b7f0       ??_C@_0BBK@JMEGOIHH@0300000038070000364500000000000@ 00000001400807f0     raylib:rglfw.obj
 0002:0003b910       ??_C@_0BBI@ENHJDHOM@0300000038070000864500000000000@ 0000000140080910     raylib:rglfw.obj
 0002:0003ba30       ??_C@_0BBK@CMCBDCCD@030000005e040000020200000000000@ 0000000140080a30     raylib:rglfw.obj
 0002:0003bb50       ??_C@_0PJ@HCPCJAMA@030000005e040000850200000000000@ 0000000140080b50     raylib:rglfw.obj
 0002:0003bc50       ??_C@_0BBJ@FHNKIBHP@030000005e040000870200000000000@ 0000000140080c50     raylib:rglfw.obj
 0002:0003bd70       ??_C@_0BBK@JMDHPOKD@030000005e040000890200000000000@ 0000000140080d70     raylib:rglfw.obj
 0002:0003be90       ??_C@_0BBM@NFGGGKC@030000000d0f0000630000000000000@ 0000000140080e90     raylib:rglfw.obj
 0002:0003bfb0       ??_C@_0BBM@CMGEFBLE@030000005e0400000c0b00000000000@ 0000000140080fb0     raylib:rglfw.obj
 0002:0003c0d0       ??_C@_0BBM@DFFIALGM@030000005e040000d10200000000000@ 00000001400810d0     raylib:rglfw.obj
 0002:0003c1f0       ??_C@_0BBM@DAOJEHME@030000005e040000dd0200000000000@ 00000001400811f0     raylib:rglfw.obj
 0002:0003c310       ??_C@_0BBM@DLJAPHCA@030000005e040000e00200000000000@ 0000000140081310     raylib:rglfw.obj
 0002:0003c430       ??_C@_0BBM@MEFFMEOB@030000005e040000e30200000000000@ 0000000140081430     raylib:rglfw.obj
 0002:0003c550       ??_C@_0BBO@OLGNPGHC@030000005e040000ea0200000000000@ 0000000140081550     raylib:rglfw.obj
 0002:0003c670       ??_C@_0BBM@DBCOGABN@030000005e040000fd0200000000000@ 0000000140081670     raylib:rglfw.obj
 0002:0003c790       ??_C@_0BBO@CMDIHNMG@030000005e040000ff0200000000000@ 0000000140081790     raylib:rglfw.obj
 0002:0003c8b0       ??_C@_0BBM@JBCDJGIH@030000006f0e0000a80200000000000@ 00000001400818b0     raylib:rglfw.obj
 0002:0003c9d0       ??_C@_0BBN@MKJCLJHL@030000006f0e0000c80200000000000@ 00000001400819d0     raylib:rglfw.obj
 0002:0003caf0       ??_C@_0BBM@FOILGOPA@03000000c62400003a5400000000000@ 0000000140081af0     raylib:rglfw.obj
 0002:0003cc10       ??_C@_0BCJ@BECCDJOO@030000005e040000130b00000000000@ 0000000140081c10     raylib:rglfw.obj
 0002:0003cd40       ??_C@_0BBJ@FKKMPNGK@03000000341a0000060800000000000@ 0000000140081d40     raylib:rglfw.obj
 0002:0003ce60       ??_C@_0BBI@CMNHMBON@03000000450c0000204300000000000@ 0000000140081e60     raylib:rglfw.obj
 0002:0003cf80       ??_C@_0BBA@PKABIEFN@030000006f0e0000030000000000000@ 0000000140081f80     raylib:rglfw.obj
 0002:0003d090       ??_C@_0BCI@IIOOGEBO@0300000017270000443100000000000@ 0000000140082090     raylib:rglfw.obj
 0002:0003d1c0       ??_C@_0BAH@BLMPCLCL@0300000017270000335000000000000@ 00000001400821c0     raylib:rglfw.obj
 0002:0003d2d0       ??_C@_0BEB@PMIBMCIN@03000000bc200000506000000000000@ 00000001400822d0     raylib:rglfw.obj
 0002:0003d420       ??_C@_0BCE@MNGEPDHI@03000000786901006e7000000000000@ 0000000140082420     raylib:rglfw.obj
 0002:0003d550       ??_C@_0BDA@PKOLDKMB@030000007d040000034000000000000@ 0000000140082550     raylib:rglfw.obj
 0002:0003d680       ??_C@_0BCN@BEAGGKCC@03000000790000004f1800000000000@ 0000000140082680     raylib:rglfw.obj
 0002:0003d7b0       ??_C@_0BBK@FHABPIMM@03000000120c0000050000000000000@ 00000001400827b0     raylib:rglfw.obj
 0002:0003d8d0       ??_C@_0BCI@NNPDKKGG@03000000120c0000101e00000000000@ 00000001400828d0     raylib:rglfw.obj
 0002:0003da00       ??_C@_0BBO@HLNJIBPP@78696e7075740100000000000000000@ 0000000140082a00     raylib:rglfw.obj
 0002:0003db20       ??_C@_0BBM@MJENJJEJ@78696e7075740200000000000000000@ 0000000140082b20     raylib:rglfw.obj
 0002:0003dc40       ??_C@_0BCD@BBICEOLK@78696e7075740300000000000000000@ 0000000140082c40     raylib:rglfw.obj
 0002:0003dd70       ??_C@_0BCD@CGKCHHKM@78696e7075740400000000000000000@ 0000000140082d70     raylib:rglfw.obj
 0002:0003dea0       ??_C@_0BCA@KPDCPHP@78696e7075740500000000000000000@ 0000000140082ea0     raylib:rglfw.obj
 0002:0003dfc0       ??_C@_0BBN@HKPLBABN@78696e7075740600000000000000000@ 0000000140082fc0     raylib:rglfw.obj
 0002:0003e0e0       ??_C@_0BBP@NMPDIJKG@78696e7075740800000000000000000@ 00000001400830e0     raylib:rglfw.obj
 0002:0003e2d0       ??_C@_0BJ@IHHANIOG@Allocation?5size?5overflow@ 00000001400832d0     raylib:rglfw.obj
 0002:0003e2f0       ??_C@_0CE@BEELAIPG@The?5GLFW?5library?5is?5not?5initial@ 00000001400832f0     raylib:rglfw.obj
 0002:0003e318       ??_C@_0BM@PKHPFLOM@There?5is?5no?5current?5context@ 0000000140083318     raylib:rglfw.obj
 0002:0003e338       ??_C@_0CE@KDBKFLEE@Invalid?5argument?5for?5enum?5param@ 0000000140083338     raylib:rglfw.obj
 0002:0003e360       ??_C@_0BM@BADCNPOM@Invalid?5value?5for?5parameter@ 0000000140083360     raylib:rglfw.obj
 0002:0003e380       ??_C@_0CB@HAFFDHLH@The?5requested?5API?5is?5unavailabl@ 0000000140083380     raylib:rglfw.obj
 0002:0003e3a8       ??_C@_0CJ@KOFEFGNB@The?5requested?5API?5version?5is?5un@ 00000001400833a8     raylib:rglfw.obj
 0002:0003e3d8       ??_C@_0CD@HJEBEGLD@A?5platform?9specific?5error?5occur@ 00000001400833d8     raylib:rglfw.obj
 0002:0003e400       ??_C@_0CE@PCLEMLLO@The?5requested?5format?5is?5unavail@ 0000000140083400     raylib:rglfw.obj
 0002:0003e428       ??_C@_0CE@OJFJMLEI@The?5specified?5window?5has?5no?5con@ 0000000140083428     raylib:rglfw.obj
 0002:0003e450       ??_C@_0CK@NHHHNGID@The?5specified?5cursor?5shape?5is?5u@ 0000000140083450     raylib:rglfw.obj
 0002:0003e480       ??_C@_0DO@OLPMIGEJ@The?5requested?5feature?5cannot?5be@ 0000000140083480     raylib:rglfw.obj
 0002:0003e4c0       ??_C@_0EF@PCMNMHKP@The?5requested?5feature?5has?5not?5y@ 00000001400834c0     raylib:rglfw.obj
 0002:0003e508       ??_C@_0CG@DAAALEIC@The?5requested?5platform?5is?5unava@ 0000000140083508     raylib:rglfw.obj
 0002:0003e530       ??_C@_0BK@PMMAHJAK@ERROR?3?5UNKNOWN?5GLFW?5ERROR@ 0000000140083530     raylib:rglfw.obj
 0002:0003e550       ??_C@_0BL@PBGFNEKP@Invalid?5platform?5ID?50x?$CF08X@ 0000000140083550     raylib:rglfw.obj
 0002:0003e570       ??_C@_0CI@HCGBBANC@The?5requested?5platform?5is?5not?5s@ 0000000140083570     raylib:rglfw.obj
 0002:0003e598       ??_C@_0CE@JBLPENML@Invalid?5context?5creation?5API?50x@ 0000000140083598     raylib:rglfw.obj
 0002:0003e5c0       ??_C@_0BK@EIOPBJJH@Invalid?5client?5API?50x?$CF08X@ 00000001400835c0     raylib:rglfw.obj
 0002:0003e5e0       ??_C@_0DE@OKHDGAJN@Context?5creation?5APIs?5do?5not?5ma@ 00000001400835e0     raylib:rglfw.obj
 0002:0003e618       ??_C@_0BN@DHKEBMCG@Invalid?5OpenGL?5version?5?$CFi?4?$CFi@ 0000000140083618     raylib:rglfw.obj
 0002:0003e638       ??_C@_0BO@PCKHNBJ@Invalid?5OpenGL?5profile?50x?$CF08X@ 0000000140083638     raylib:rglfw.obj
 0002:0003e660       ??_C@_0ED@FEABOOIM@Context?5profiles?5are?5only?5defin@ 0000000140083660     raylib:rglfw.obj
 0002:0003e6b0       ??_C@_0EH@CMDCLIEA@Forward?9compatibility?5is?5only?5d@ 00000001400836b0     raylib:rglfw.obj
 0002:0003e6f8       ??_C@_0CA@LFIDGAHJ@Invalid?5OpenGL?5ES?5version?5?$CFi?4?$CFi@ 00000001400836f8     raylib:rglfw.obj
 0002:0003e718       ??_C@_0CH@PNNMGINB@Invalid?5context?5robustness?5mode@ 0000000140083718     raylib:rglfw.obj
 0002:0003e740       ??_C@_0CI@JDDJIGNN@Invalid?5context?5release?5behavio@ 0000000140083740     raylib:rglfw.obj
 0002:0003e768       ??_C@_0CA@LDAANPIM@Entry?5point?5retrieval?5is?5broken@ 0000000140083768     raylib:rglfw.obj
 0002:0003e788       ??_C@_0CK@DKAFEDIC@OpenGL?5version?5string?5retrieval@ 0000000140083788     raylib:rglfw.obj
 0002:0003e7b8       ??_C@_0CN@GOPDCGGI@OpenGL?5ES?5version?5string?5retrie@ 00000001400837b8     raylib:rglfw.obj
 0002:0003e7e8       ??_C@_08FOJKHHJA@?$CFd?4?$CFd?4?$CFd@ 00000001400837e8     raylib:rglfw.obj
 0002:0003e7f8       ??_C@_0CK@DDNMEIKD@No?5version?5found?5in?5OpenGL?5vers@ 00000001400837f8     raylib:rglfw.obj
 0002:0003e828       ??_C@_0CN@FALFGDO@No?5version?5found?5in?5OpenGL?5ES?5v@ 0000000140083828     raylib:rglfw.obj
 0002:0003e858       ??_C@_0DC@KIAJNHJN@Requested?5OpenGL?5version?5?$CFi?4?$CFi?0@ 0000000140083858     raylib:rglfw.obj
 0002:0003e890       ??_C@_0DF@EFFMOKHE@Requested?5OpenGL?5ES?5version?5?$CFi?4@ 0000000140083890     raylib:rglfw.obj
 0002:0003e8c8       ??_C@_0BC@EOBKJDCM@GL_ARB_robustness@ 00000001400838c8     raylib:rglfw.obj
 0002:0003e8e0       ??_C@_0BC@CLDFFND@GL_EXT_robustness@ 00000001400838e0     raylib:rglfw.obj
 0002:0003e8f8       ??_C@_0BN@FNDGKECA@GL_KHR_context_flush_control@ 00000001400838f8     raylib:rglfw.obj
 0002:0003e920       ??_C@_0EK@HBJBDMAL@Cannot?5make?5current?5with?5a?5wind@ 0000000140083920     raylib:rglfw.obj
 0002:0003e970       ??_C@_0EI@PJFDHBJK@Cannot?5swap?5buffers?5of?5a?5window@ 0000000140083970     raylib:rglfw.obj
 0002:0003e9c0       ??_C@_0EH@BEBOCAGI@Cannot?5set?5swap?5interval?5withou@ 00000001400839c0     raylib:rglfw.obj
 0002:0003ea10       ??_C@_0EF@NMJGLODJ@Cannot?5query?5extension?5without?5@ 0000000140083a10     raylib:rglfw.obj
 0002:0003ea58       ??_C@_0CJ@JDBBFPLM@Extension?5name?5cannot?5be?5an?5emp@ 0000000140083a58     raylib:rglfw.obj
 0002:0003ea88       ??_C@_0CF@KMMHNOMI@Extension?5string?5retrieval?5is?5b@ 0000000140083a88     raylib:rglfw.obj
 0002:0003eab0       ??_C@_0EH@LGPPFAO@Cannot?5query?5entry?5point?5withou@ 0000000140083ab0     raylib:rglfw.obj
 0002:0003eaf8       ??_C@_0BK@KJGCMOHN@Invalid?5window?5size?5?$CFix?$CFi@ 0000000140083af8     raylib:rglfw.obj
 0002:0003eb18       ??_C@_0BL@IDFNAMEG@Invalid?5window?5hint?50x?$CF08X@ 0000000140083b18     raylib:rglfw.obj
 0002:0003eb38       ??_C@_08CBHCFJJK@platform@ 0000000140083b38     raylib:rglfw.obj
 0002:0003eb44       ??_C@_01MCMALHOG@a@        0000000140083b44     raylib:rglfw.obj
 0002:0003eb48       ??_C@_01OJONOECF@b@        0000000140083b48     raylib:rglfw.obj
 0002:0003eb4c       ??_C@_01FJMABOPO@x@        0000000140083b4c     raylib:rglfw.obj
 0002:0003eb50       ??_C@_01EANLCPLP@y@        0000000140083b50     raylib:rglfw.obj
 0002:0003eb54       ??_C@_04JFCNHLLM@back@     0000000140083b54     raylib:rglfw.obj
 0002:0003eb5c       ??_C@_05FAGFPHJG@start@    0000000140083b5c     raylib:rglfw.obj
 0002:0003eb64       ??_C@_05HLIEEKJG@guide@    0000000140083b64     raylib:rglfw.obj
 0002:0003eb70       ??_C@_0N@MEFCLEJO@leftshoulder@ 0000000140083b70     raylib:rglfw.obj
 0002:0003eb80       ??_C@_0O@LCPOPKLJ@rightshoulder@ 0000000140083b80     raylib:rglfw.obj
 0002:0003eb90       ??_C@_09MEKLKMGE@leftstick@ 0000000140083b90     raylib:rglfw.obj
 0002:0003eba0       ??_C@_0L@DHLNGPDM@rightstick@ 0000000140083ba0     raylib:rglfw.obj
 0002:0003ebac       ??_C@_04EDFFKKLO@dpup@     0000000140083bac     raylib:rglfw.obj
 0002:0003ebb8       ??_C@_07FLLKAONK@dpright@  0000000140083bb8     raylib:rglfw.obj
 0002:0003ebc0       ??_C@_06LDHPELJC@dpdown@   0000000140083bc0     raylib:rglfw.obj
 0002:0003ebc8       ??_C@_06EBHLNDKL@dpleft@   0000000140083bc8     raylib:rglfw.obj
 0002:0003ebd0       ??_C@_0M@FLKHLCCP@lefttrigger@ 0000000140083bd0     raylib:rglfw.obj
 0002:0003ebe0       ??_C@_0N@CLKIAFGP@righttrigger@ 0000000140083be0     raylib:rglfw.obj
 0002:0003ebf0       ??_C@_05MKIKPCON@leftx@    0000000140083bf0     raylib:rglfw.obj
 0002:0003ebf8       ??_C@_05NDJBMDKM@lefty@    0000000140083bf8     raylib:rglfw.obj
 0002:0003ec00       ??_C@_06FHABPINC@rightx@   0000000140083c00     raylib:rglfw.obj
 0002:0003ec08       ??_C@_06EOBKMJJD@righty@   0000000140083c08     raylib:rglfw.obj
 0002:0003ec10       ??_C@_01IHBHIGKO@?0@       0000000140083c10     raylib:rglfw.obj
 0002:0003ec18       ??_C@_0BK@PDCFBJPK@Invalid?5input?5mode?50x?$CF08X@ 0000000140083c18     raylib:rglfw.obj
 0002:0003ec38       ??_C@_0BL@IKJGDNLO@Invalid?5cursor?5mode?50x?$CF08X@ 0000000140083c38     raylib:rglfw.obj
 0002:0003ec58       ??_C@_0DB@JJADGKIE@Raw?5mouse?5motion?5is?5not?5support@ 0000000140083c58     raylib:rglfw.obj
 0002:0003ec90       ??_C@_0BO@JCPCDDEA@Invalid?5cursor?5position?5?$CFf?5?$CFf@ 0000000140083c90     raylib:rglfw.obj
 0002:0003ecb0       ??_C@_0BH@PHEJANJA@Invalid?5joystick?5ID?5?$CFi@ 0000000140083cb0     raylib:rglfw.obj
 0002:0003ecc8       ??_C@_0P@IENCOMCD@VK_KHR_surface@ 0000000140083cc8     raylib:rglfw.obj
 0002:0003ecd8       ??_C@_0BF@COCMEDFO@VK_KHR_win32_surface@ 0000000140083cd8     raylib:rglfw.obj
 0002:0003ecf0       ??_C@_07PBILKAFL@Success@  0000000140083cf0     raylib:rglfw.obj
 0002:0003ecf8       ??_C@_0CH@GBHCOIGC@A?5fence?5or?5query?5has?5not?5yet?5co@ 0000000140083cf8     raylib:rglfw.obj
 0002:0003ed20       ??_C@_0DJ@KAONABFK@A?5wait?5operation?5has?5not?5comple@ 0000000140083d20     raylib:rglfw.obj
 0002:0003ed60       ??_C@_0BF@NEMNBLEB@An?5event?5is?5signaled@ 0000000140083d60     raylib:rglfw.obj
 0002:0003ed78       ??_C@_0BH@MDCGBFEN@An?5event?5is?5unsignaled@ 0000000140083d78     raylib:rglfw.obj
 0002:0003ed90       ??_C@_0CM@GKIHKJDL@A?5return?5array?5was?5too?5small?5fo@ 0000000140083d90     raylib:rglfw.obj
 0002:0003edc0       ??_C@_0CE@HKNBGEPI@A?5host?5memory?5allocation?5has?5fa@ 0000000140083dc0     raylib:rglfw.obj
 0002:0003ede8       ??_C@_0CG@CHEOMKGJ@A?5device?5memory?5allocation?5has?5@ 0000000140083de8     raylib:rglfw.obj
 0002:0003ee10       ??_C@_0FH@MCDKNJAI@Initialization?5of?5an?5object?5cou@ 0000000140083e10     raylib:rglfw.obj
 0002:0003ee68       ??_C@_0CN@IHJGMBHI@The?5logical?5or?5physical?5device?5@ 0000000140083e68     raylib:rglfw.obj
 0002:0003ee98       ??_C@_0CG@CHGOPGBD@Mapping?5of?5a?5memory?5object?5has?5@ 0000000140083e98     raylib:rglfw.obj
 0002:0003eec0       ??_C@_0DI@GNLCAHHB@A?5requested?5layer?5is?5not?5presen@ 0000000140083ec0     raylib:rglfw.obj
 0002:0003eef8       ??_C@_0CH@NEGEBDM@A?5requested?5extension?5is?5not?5su@ 0000000140083ef8     raylib:rglfw.obj
 0002:0003ef20       ??_C@_0CF@OFADCJLJ@A?5requested?5feature?5is?5not?5supp@ 0000000140083f20     raylib:rglfw.obj
 0002:0003ef50       ??_C@_0FM@BBONGFMN@The?5requested?5version?5of?5Vulkan@ 0000000140083f50     raylib:rglfw.obj
 0002:0003efb0       ??_C@_0DH@EKEHMEFD@Too?5many?5objects?5of?5the?5type?5ha@ 0000000140083fb0     raylib:rglfw.obj
 0002:0003efe8       ??_C@_0DD@OOKDLCED@A?5requested?5format?5is?5not?5suppo@ 0000000140083fe8     raylib:rglfw.obj
 0002:0003f020       ??_C@_0CB@EJFBPGFM@A?5surface?5is?5no?5longer?5availabl@ 0000000140084020     raylib:rglfw.obj
 0002:0003f050       ??_C@_0FE@ILJLDKCD@A?5swapchain?5no?5longer?5matches?5t@ 0000000140084050     raylib:rglfw.obj
 0002:0003f0b0       ??_C@_0FH@FIPMKLID@A?5surface?5has?5changed?5in?5such?5a@ 00000001400840b0     raylib:rglfw.obj
 0002:0003f110       ??_C@_0EP@OJIEDFOO@The?5display?5used?5by?5a?5swapchain@ 0000000140084110     raylib:rglfw.obj
 0002:0003f160       ??_C@_0FN@PJBCJBIL@The?5requested?5window?5is?5already@ 0000000140084160     raylib:rglfw.obj
 0002:0003f1c0       ??_C@_0CC@HDNEDJNI@A?5validation?5layer?5found?5an?5err@ 00000001400841c0     raylib:rglfw.obj
 0002:0003f1e8       ??_C@_0BM@OMEGJAIK@ERROR?3?5UNKNOWN?5VULKAN?5ERROR@ 00000001400841e8     raylib:rglfw.obj
 0002:0003f208       ??_C@_0CM@IALNOPFK@Win32?3?5Failed?5to?5retrieve?5own?5m@ 0000000140084208     raylib:rglfw.obj
 0002:0003f238       ??_C@_0L@GMPLCCII@user32?4dll@ 0000000140084238     raylib:rglfw.obj
 0002:0003f248       ??_C@_0CB@HHJIGJHK@Win32?3?5Failed?5to?5load?5user32?4dl@ 0000000140084248     raylib:rglfw.obj
 0002:0003f270       ??_C@_0BD@ENICNPLM@SetProcessDPIAware@ 0000000140084270     raylib:rglfw.obj
 0002:0003f288       ??_C@_0BM@OCGPLDNC@ChangeWindowMessageFilterEx@ 0000000140084288     raylib:rglfw.obj
 0002:0003f2a8       ??_C@_0BK@NKEDGNNN@EnableNonClientDpiScaling@ 00000001400842a8     raylib:rglfw.obj
 0002:0003f2c8       ??_C@_0BO@LHMLBOLK@SetProcessDpiAwarenessContext@ 00000001400842c8     raylib:rglfw.obj
 0002:0003f2e8       ??_C@_0BA@LGGPEDOH@GetDpiForWindow@ 00000001400842e8     raylib:rglfw.obj
 0002:0003f2f8       ??_C@_0BJ@MBAAGFCG@AdjustWindowRectExForDpi@ 00000001400842f8     raylib:rglfw.obj
 0002:0003f318       ??_C@_0BH@HPKNFNCE@GetSystemMetricsForDpi@ 0000000140084318     raylib:rglfw.obj
 0002:0003f330       ??_C@_0M@ONOEDIJO@dinput8?4dll@ 0000000140084330     raylib:rglfw.obj
 0002:0003f340       ??_C@_0BD@IJCCAMHG@DirectInput8Create@ 0000000140084340     raylib:rglfw.obj
 0002:0003f358       ??_C@_0O@LNFLKCMF@xinput1_4?4dll@ 0000000140084358     raylib:rglfw.obj
 0002:0003f368       ??_C@_0O@KAFOJCHN@xinput1_3?4dll@ 0000000140084368     raylib:rglfw.obj
 0002:0003f378       ??_C@_0BA@GHGALGFD@xinput9_1_0?4dll@ 0000000140084378     raylib:rglfw.obj
 0002:0003f388       ??_C@_0O@GLACEBNI@xinput1_2?4dll@ 0000000140084388     raylib:rglfw.obj
 0002:0003f398       ??_C@_0O@ONJGDDHG@xinput1_1?4dll@ 0000000140084398     raylib:rglfw.obj
 0002:0003f3a8       ??_C@_0BG@ELBNFOBA@XInputGetCapabilities@ 00000001400843a8     raylib:rglfw.obj
 0002:0003f3c0       ??_C@_0P@FCCEJHCC@XInputGetState@ 00000001400843c0     raylib:rglfw.obj
 0002:0003f3d0       ??_C@_0L@FACOJKPJ@dwmapi?4dll@ 00000001400843d0     raylib:rglfw.obj
 0002:0003f3e0       ??_C@_0BI@KJPLJBHH@DwmIsCompositionEnabled@ 00000001400843e0     raylib:rglfw.obj
 0002:0003f3f8       ??_C@_08PEMNBIMD@DwmFlush@ 00000001400843f8     raylib:rglfw.obj
 0002:0003f408       ??_C@_0BK@HMMKMEOH@DwmEnableBlurBehindWindow@ 0000000140084408     raylib:rglfw.obj
 0002:0003f428       ??_C@_0BI@LDADLCB@DwmGetColorizationColor@ 0000000140084428     raylib:rglfw.obj
 0002:0003f440       ??_C@_0L@DMFDIJCG@shcore?4dll@ 0000000140084440     raylib:rglfw.obj
 0002:0003f450       ??_C@_0BH@DGFLCCMF@SetProcessDpiAwareness@ 0000000140084450     raylib:rglfw.obj
 0002:0003f468       ??_C@_0BB@MAMHPNNC@GetDpiForMonitor@ 0000000140084468     raylib:rglfw.obj
 0002:0003f480       ??_C@_09FLKFJBLM@ntdll?4dll@ 0000000140084480     raylib:rglfw.obj
 0002:0003f490       ??_C@_0BF@LOGLPPDD@RtlVerifyVersionInfo@ 0000000140084490     raylib:rglfw.obj
 0002:0003f4a8       ??_C@_1BK@OPNBOCAD@?$AAG?$AAL?$AAF?$AAW?$AA3?$AA?5?$AAH?$AAe?$AAl?$AAp?$AAe?$AAr@ 00000001400844a8     raylib:rglfw.obj
 0002:0003f4c8       ??_C@_0CO@FOOODGIB@WIn32?3?5Failed?5to?5register?5helpe@ 00000001400844c8     raylib:rglfw.obj
 0002:0003f4f8       ??_C@_1CI@MPNNJFCJ@?$AAG?$AAL?$AAF?$AAW?$AA?5?$AAm?$AAe?$AAs?$AAs?$AAa?$AAg?$AAe?$AA?5?$AAw?$AAi@ 00000001400844f8     raylib:rglfw.obj
 0002:0003f520       ??_C@_0CG@LDJIJKNI@Win32?3?5Failed?5to?5create?5helper?5@ 0000000140084520     raylib:rglfw.obj
 0002:0003f548       ??_C@_0CL@JEJIBJNG@Win32?3?5Failed?5to?5convert?5string@ 0000000140084548     raylib:rglfw.obj
 0002:0003f578       ??_C@_0CJ@EFIFNOJC@Win32?3?5Failed?5to?5convert?5string@ 0000000140084578     raylib:rglfw.obj
 0002:0003f5a4       ??_C@_06DJHOIPC@?$CFs?3?5?$CFs@ 00000001400845a4     raylib:rglfw.obj
 0002:0003f5b0       ??_C@_1BA@PICGEGJB@?$AAD?$AAI?$AAS?$AAP?$AAL?$AAA?$AAY@ 00000001400845b0     raylib:rglfw.obj
 0002:0003f5c0       ??_C@_0O@NIPGCINC@Unknown?5error@ 00000001400845c0     raylib:rglfw.obj
 0002:0003f5d0       ??_C@_0BJ@EJOHFDHH@The?5system?5uses?5DualView@ 00000001400845d0     raylib:rglfw.obj
 0002:0003f5f0       ??_C@_0O@IHOLGAKK@Invalid?5flags@ 00000001400845f0     raylib:rglfw.obj
 0002:0003f600       ??_C@_0BM@KPJJBADD@Graphics?5mode?5not?5supported@ 0000000140084600     raylib:rglfw.obj
 0002:0003f620       ??_C@_0BC@DBAKKFEN@Invalid?5parameter@ 0000000140084620     raylib:rglfw.obj
 0002:0003f638       ??_C@_0BF@JHMFGJBN@Graphics?5mode?5failed@ 0000000140084638     raylib:rglfw.obj
 0002:0003f650       ??_C@_0BM@IGBABBBF@Failed?5to?5write?5to?5registry@ 0000000140084650     raylib:rglfw.obj
 0002:0003f670       ??_C@_0BK@OEGBAIFC@Computer?5restart?5required@ 0000000140084670     raylib:rglfw.obj
 0002:0003f690       ??_C@_0CE@IKOICJPN@Win32?3?5Failed?5to?5set?5video?5mode@ 0000000140084690     raylib:rglfw.obj
 0002:0003f6b8       ??_C@_0CD@IGHBCNOG@Win32?3?5Failed?5to?5query?5monitor?5@ 00000001400846b8     raylib:rglfw.obj
 0002:0003f6e0       ??_C@_0CD@EGEEPFHF@Win32?3?5Gamma?5ramp?5size?5must?5be?5@ 00000001400846e0     raylib:rglfw.obj
 0002:0003f708       ??_C@_0CE@GCBEILKL@Win32?3?5Failed?5to?5create?5RGBA?5bi@ 0000000140084708     raylib:rglfw.obj
 0002:0003f730       ??_C@_0CE@PKGOIGHB@Win32?3?5Failed?5to?5create?5mask?5bi@ 0000000140084730     raylib:rglfw.obj
 0002:0003f758       ??_C@_0BN@HJHDCKKP@Win32?3?5Failed?5to?5create?5icon@ 0000000140084758     raylib:rglfw.obj
 0002:0003f778       ??_C@_0BP@OHFKOFFD@Win32?3?5Failed?5to?5create?5cursor@ 0000000140084778     raylib:rglfw.obj
 0002:0003f798       ??_C@_0CL@GPJNIICL@Win32?3?5Failed?5to?5register?5raw?5i@ 0000000140084798     raylib:rglfw.obj
 0002:0003f7c8       ??_C@_0CJ@JFEDIEDE@Win32?3?5Failed?5to?5remove?5raw?5inp@ 00000001400847c8     raylib:rglfw.obj
 0002:0003f7f8       ??_C@_19JBPKICJI@?$AAG?$AAL?$AAF?$AAW@ 00000001400847f8     raylib:rglfw.obj
 0002:0003f808       ??_C@_0CJ@GILDAIDE@Win32?3?5Failed?5to?5retrieve?5raw?5i@ 0000000140084808     raylib:rglfw.obj
 0002:0003f838       ??_C@_1O@IBNLCBOC@?$AAG?$AAL?$AAF?$AAW?$AA3?$AA0@ 0000000140084838     raylib:rglfw.obj
 0002:0003f848       ??_C@_1BE@LDFMCOHA@?$AAG?$AAL?$AAF?$AAW?$AA_?$AAI?$AAC?$AAO?$AAN@ 0000000140084848     raylib:rglfw.obj
 0002:0003f860       ??_C@_0CH@GAPNPCHF@Win32?3?5Failed?5to?5register?5windo@ 0000000140084860     raylib:rglfw.obj
 0002:0003f888       ??_C@_0BP@BFHGHOIO@Win32?3?5Failed?5to?5create?5window@ 0000000140084888     raylib:rglfw.obj
 0002:0003f8a8       ??_C@_0BE@IGCIBFAF@Invalid?5scancode?5?$CFi@ 00000001400848a8     raylib:rglfw.obj
 0002:0003f8c0       ??_C@_0BP@KPGBLOB@Win32?3?5Unknown?5standard?5cursor@ 00000001400848c0     raylib:rglfw.obj
 0002:0003f8e0       ??_C@_0CI@LDEHPBDB@Win32?3?5Failed?5to?5create?5standar@ 00000001400848e0     raylib:rglfw.obj
 0002:0003f908       ??_C@_0DG@CGDLBFFB@Win32?3?5Failed?5to?5allocate?5globa@ 0000000140084908     raylib:rglfw.obj
 0002:0003f940       ??_C@_0CE@OHDHEPIL@Win32?3?5Failed?5to?5lock?5global?5ha@ 0000000140084940     raylib:rglfw.obj
 0002:0003f968       ??_C@_0CA@FNCFBEIG@Win32?3?5Failed?5to?5open?5clipboard@ 0000000140084968     raylib:rglfw.obj
 0002:0003f988       ??_C@_0CN@FGAGPCCP@Win32?3?5Failed?5to?5convert?5clipbo@ 0000000140084988     raylib:rglfw.obj
 0002:0003f9b8       ??_C@_0CP@FOBJNCLA@vkGetPhysicalDeviceWin32Present@ 00000001400849b8     raylib:rglfw.obj
 0002:0003f9e8       ??_C@_0DO@PGEACBCJ@Win32?3?5Vulkan?5instance?5missing?5@ 00000001400849e8     raylib:rglfw.obj
 0002:0003fa28       ??_C@_0BI@INMBJMIJ@vkCreateWin32SurfaceKHR@ 0000000140084a28     raylib:rglfw.obj
 0002:0003fa40       ??_C@_0CL@LJNEEKEI@Win32?3?5Failed?5to?5create?5Vulkan?5@ 0000000140084a40     raylib:rglfw.obj
 0002:0003fa70       ??_C@_0N@JENFOGFI@XInput?5Wheel@ 0000000140084a70     raylib:rglfw.obj
 0002:0003fa80       ??_C@_0BE@FABDLJKH@XInput?5Arcade?5Stick@ 0000000140084a80     raylib:rglfw.obj
 0002:0003fa98       ??_C@_0BE@HBNNGLHP@XInput?5Flight?5Stick@ 0000000140084a98     raylib:rglfw.obj
 0002:0003fab0       ??_C@_0BB@JDDMDGFO@XInput?5Dance?5Pad@ 0000000140084ab0     raylib:rglfw.obj
 0002:0003fac8       ??_C@_0O@IFDGNEHH@XInput?5Guitar@ 0000000140084ac8     raylib:rglfw.obj
 0002:0003fad8       ??_C@_0BA@LCMKGGHA@XInput?5Drum?5Kit@ 0000000140084ad8     raylib:rglfw.obj
 0002:0003fae8       ??_C@_0BJ@IIGAEGGE@Wireless?5Xbox?5Controller@ 0000000140084ae8     raylib:rglfw.obj
 0002:0003fb08       ??_C@_0BA@EPLGABLH@Xbox?5Controller@ 0000000140084b08     raylib:rglfw.obj
 0002:0003fb18       ??_C@_0BG@DGJLFNBN@Unknown?5XInput?5Device@ 0000000140084b18     raylib:rglfw.obj
 0002:0003fb30       ??_C@_03HAFBONIK@IG_@      0000000140084b30     raylib:rglfw.obj
 0002:0003fb38       ??_C@_0BP@OHJGLFIP@Win32?3?5Failed?5to?5create?5device@ 0000000140084b38     raylib:rglfw.obj
 0002:0003fb58       ??_C@_0CI@MMBFOOEA@Win32?3?5Failed?5to?5set?5device?5dat@ 0000000140084b58     raylib:rglfw.obj
 0002:0003fb80       ??_C@_0CL@JHIPHFAC@Win32?3?5Failed?5to?5query?5device?5c@ 0000000140084b80     raylib:rglfw.obj
 0002:0003fbb0       ??_C@_0CG@JJEBGGIE@Win32?3?5Failed?5to?5set?5device?5axi@ 0000000140084bb0     raylib:rglfw.obj
 0002:0003fbd8       ??_C@_0CK@FKJPIIOF@Win32?3?5Failed?5to?5enumerate?5devi@ 0000000140084bd8     raylib:rglfw.obj
 0002:0003fc08       ??_C@_0DA@IIGLKABA@Win32?3?5Failed?5to?5convert?5joysti@ 0000000140084c08     raylib:rglfw.obj
 0002:0003fc38       ??_C@_0CJ@NMCAPCBP@03000000?$CF02x?$CF02x0000?$CF02x?$CF02x000@ 0000000140084c38     raylib:rglfw.obj
 0002:0003fc68       ??_C@_0DH@LCNJGHOP@05000000?$CF02x?$CF02x?$CF02x?$CF02x?$CF02x?$CF02@ 0000000140084c68     raylib:rglfw.obj
 0002:0003fca0       ??_C@_0CD@CBFNHKPK@78696e707574?$CF02x000000000000000@ 0000000140084ca0     raylib:rglfw.obj
 0002:0003fcc8       ??_C@_0CJ@HDJDHLNO@Failed?5to?5enumerate?5DirectInput@ 0000000140084cc8     raylib:rglfw.obj
 0002:0003fcf8       ??_C@_0CC@MGDCJJKB@Win32?3?5Failed?5to?5create?5interfa@ 0000000140084cf8     raylib:rglfw.obj
 0002:0003fd20       ??_C@_07LDLFNPGN@Windows@  0000000140084d20     raylib:rglfw.obj
 0002:0003fd28       ??_C@_0N@OJEJPFOD@504944564944@ 0000000140084d28     raylib:rglfw.obj
 0002:0003fd38       ??_C@_0CB@BIHPPBFK@03000000?$CF?44s0000?$CF?44s00000000000@ 0000000140084d38     raylib:rglfw.obj
 0002:0003fd60       ??_C@_0CE@MEIEKJIC@Win32?3?5Failed?5to?5allocate?5TLS?5i@ 0000000140084d60     raylib:rglfw.obj
 0002:0003fd88       ??_C@_0CO@KALOHMEN@WGL?3?5Unknown?5pixel?5format?5attri@ 0000000140084d88     raylib:rglfw.obj
 0002:0003fdb8       ??_C@_0DA@LMPKCOPB@WGL?3?5Failed?5to?5retrieve?5pixel?5f@ 0000000140084db8     raylib:rglfw.obj
 0002:0003fde8       ??_C@_0CF@OGLFKBHA@WGL?3?5Failed?5to?5describe?5pixel?5f@ 0000000140084de8     raylib:rglfw.obj
 0002:0003fe10       ??_C@_0DC@HFHALHIB@WGL?3?5The?5driver?5does?5not?5appear@ 0000000140084e10     raylib:rglfw.obj
 0002:0003fe48       ??_C@_0CM@DGJKGOGD@WGL?3?5Failed?5to?5find?5a?5suitable?5@ 0000000140084e48     raylib:rglfw.obj
 0002:0003fe78       ??_C@_0CE@FEGPCKPN@WGL?3?5Failed?5to?5make?5context?5cur@ 0000000140084e78     raylib:rglfw.obj
 0002:0003fea0       ??_C@_0CF@EKIADPFB@WGL?3?5Failed?5to?5clear?5current?5co@ 0000000140084ea0     raylib:rglfw.obj
 0002:0003fec8       ??_C@_0N@DOKAJOHF@opengl32?4dll@ 0000000140084ec8     raylib:rglfw.obj
 0002:0003fed8       ??_C@_0CB@FLGENKMO@WGL?3?5Failed?5to?5load?5opengl32?4dl@ 0000000140084ed8     raylib:rglfw.obj
 0002:0003ff00       ??_C@_0BB@GHMBNOIP@wglCreateContext@ 0000000140084f00     raylib:rglfw.obj
 0002:0003ff18       ??_C@_0BB@OGAIJNNO@wglDeleteContext@ 0000000140084f18     raylib:rglfw.obj
 0002:0003ff30       ??_C@_0BC@FFKMKEGM@wglGetProcAddress@ 0000000140084f30     raylib:rglfw.obj
 0002:0003ff48       ??_C@_0BA@BMKCDCKD@wglGetCurrentDC@ 0000000140084f48     raylib:rglfw.obj
 0002:0003ff58       ??_C@_0BF@HABDPBMA@wglGetCurrentContext@ 0000000140084f58     raylib:rglfw.obj
 0002:0003ff70       ??_C@_0P@BBBFNDGG@wglMakeCurrent@ 0000000140084f70     raylib:rglfw.obj
 0002:0003ff80       ??_C@_0O@GCGJMHDL@wglShareLists@ 0000000140084f80     raylib:rglfw.obj
 0002:0003ff90       ??_C@_0DC@IPDIACJO@WGL?3?5Failed?5to?5set?5pixel?5format@ 0000000140084f90     raylib:rglfw.obj
 0002:0003ffc8       ??_C@_0CE@KAEELGKL@WGL?3?5Failed?5to?5create?5dummy?5con@ 0000000140084fc8     raylib:rglfw.obj
 0002:0003fff0       ??_C@_0CK@JKJFDJLH@WGL?3?5Failed?5to?5make?5dummy?5conte@ 0000000140084ff0     raylib:rglfw.obj
 0002:00040020       ??_C@_0BK@HGDBIG@wglGetExtensionsStringEXT@ 0000000140085020     raylib:rglfw.obj
 0002:00040040       ??_C@_0BK@JOBLJGNA@wglGetExtensionsStringARB@ 0000000140085040     raylib:rglfw.obj
 0002:00040060       ??_C@_0BL@PDDHMPGF@wglCreateContextAttribsARB@ 0000000140085060     raylib:rglfw.obj
 0002:00040080       ??_C@_0BD@IINOPBDD@wglSwapIntervalEXT@ 0000000140085080     raylib:rglfw.obj
 0002:00040098       ??_C@_0BN@GDKHKIAN@wglGetPixelFormatAttribivARB@ 0000000140085098     raylib:rglfw.obj
 0002:000400b8       ??_C@_0BE@BMOJHNDI@WGL_ARB_multisample@ 00000001400850b8     raylib:rglfw.obj
 0002:000400d0       ??_C@_0BJ@CIMJOHKL@WGL_ARB_framebuffer_sRGB@ 00000001400850d0     raylib:rglfw.obj
 0002:000400f0       ??_C@_0BJ@ODLLHDDH@WGL_EXT_framebuffer_sRGB@ 00000001400850f0     raylib:rglfw.obj
 0002:00040110       ??_C@_0BH@NCJDMLMG@WGL_ARB_create_context@ 0000000140085110     raylib:rglfw.obj
 0002:00040128       ??_C@_0BP@JAOBDJGN@WGL_ARB_create_context_profile@ 0000000140085128     raylib:rglfw.obj
 0002:00040148       ??_C@_0CD@FOMFMBIL@WGL_EXT_create_context_es2_prof@ 0000000140085148     raylib:rglfw.obj
 0002:00040170       ??_C@_0CC@BFGHOMNL@WGL_ARB_create_context_robustne@ 0000000140085170     raylib:rglfw.obj
 0002:00040198       ??_C@_0CA@CJLAIOKE@WGL_ARB_create_context_no_error@ 0000000140085198     raylib:rglfw.obj
 0002:000401b8       ??_C@_0BF@NPDKPIKE@WGL_EXT_swap_control@ 00000001400851b8     raylib:rglfw.obj
 0002:000401d0       ??_C@_0BD@KGLHBPN@WGL_EXT_colorspace@ 00000001400851d0     raylib:rglfw.obj
 0002:000401e8       ??_C@_0BF@OGGDOHFN@WGL_ARB_pixel_format@ 00000001400851e8     raylib:rglfw.obj
 0002:00040200       ??_C@_0BO@FABLLHKK@WGL_ARB_context_flush_control@ 0000000140085200     raylib:rglfw.obj
 0002:00040220       ??_C@_0CG@GMPEPNKL@WGL?3?5Failed?5to?5retrieve?5DC?5for?5@ 0000000140085220     raylib:rglfw.obj
 0002:00040248       ??_C@_0DG@EPNPJJLB@WGL?3?5Failed?5to?5retrieve?5PFD?5for@ 0000000140085248     raylib:rglfw.obj
 0002:00040280       ??_C@_0CJ@HAGOIHNO@WGL?3?5Failed?5to?5set?5selected?5pix@ 0000000140085280     raylib:rglfw.obj
 0002:000402b0       ??_C@_0FN@NPOMMKHN@WGL?3?5A?5forward?5compatible?5OpenG@ 00000001400852b0     raylib:rglfw.obj
 0002:00040310       ??_C@_0FA@OHOPKHFK@WGL?3?5OpenGL?5profile?5requested?5b@ 0000000140085310     raylib:rglfw.obj
 0002:00040360       ??_C@_0EP@EKHGPGGO@WGL?3?5OpenGL?5ES?5requested?5but?5WG@ 0000000140085360     raylib:rglfw.obj
 0002:000403b0       ??_C@_0DC@CDLECLKD@WGL?3?5Driver?5does?5not?5support?5Op@ 00000001400853b0     raylib:rglfw.obj
 0002:000403e8       ??_C@_0DF@NPMNAJFG@WGL?3?5Driver?5does?5not?5support?5Op@ 00000001400853e8     raylib:rglfw.obj
 0002:00040420       ??_C@_0DK@CDBDDLLM@WGL?3?5Driver?5does?5not?5support?5th@ 0000000140085420     raylib:rglfw.obj
 0002:00040460       ??_C@_0EE@LGMAAPCC@WGL?3?5The?5share?5context?5is?5not?5c@ 0000000140085460     raylib:rglfw.obj
 0002:000404a8       ??_C@_0CF@GFMDJIA@WGL?3?5Failed?5to?5create?5OpenGL?5co@ 00000001400854a8     raylib:rglfw.obj
 0002:000404d0       ??_C@_0CI@JNBCHAIF@WGL?3?5Failed?5to?5create?5OpenGL?5ES@ 00000001400854d0     raylib:rglfw.obj
 0002:000404f8       ??_C@_0DM@FCAOPKO@WGL?3?5Failed?5to?5enable?5sharing?5w@ 00000001400854f8     raylib:rglfw.obj
 0002:00040538       ??_C@_0CH@KLCPDMM@EGL?5is?5not?5or?5could?5not?5be?5init@ 0000000140085538     raylib:rglfw.obj
 0002:00040560       ??_C@_0CH@MMCOKIKC@EGL?5cannot?5access?5a?5requested?5r@ 0000000140085560     raylib:rglfw.obj
 0002:00040588       ??_C@_0DN@GNDEENDO@EGL?5failed?5to?5allocate?5resource@ 0000000140085588     raylib:rglfw.obj
 0002:000405d0       ??_C@_0EO@EKFIJHGG@An?5unrecognized?5attribute?5or?5at@ 00000001400855d0     raylib:rglfw.obj
 0002:00040620       ??_C@_0ED@GAJEHCGA@An?5EGLContext?5argument?5does?5not@ 0000000140085620     raylib:rglfw.obj
 0002:00040670       ??_C@_0EL@BBAGGFOK@An?5EGLConfig?5argument?5does?5not?5@ 0000000140085670     raylib:rglfw.obj
 0002:000406c0       ??_C@_0GG@ODICGIHF@The?5current?5surface?5of?5the?5call@ 00000001400856c0     raylib:rglfw.obj
 0002:00040730       ??_C@_0EE@ICKHNPHB@An?5EGLDisplay?5argument?5does?5not@ 0000000140085730     raylib:rglfw.obj
 0002:00040780       ??_C@_0FB@EPGEGHDL@An?5EGLSurface?5argument?5does?5not@ 0000000140085780     raylib:rglfw.obj
 0002:000407d8       ??_C@_0BL@OIILILNJ@Arguments?5are?5inconsistent@ 00000001400857d8     raylib:rglfw.obj
 0002:000407f8       ??_C@_0CI@KAHNKLLC@One?5or?5more?5argument?5values?5are@ 00000001400857f8     raylib:rglfw.obj
 0002:00040820       ??_C@_0EE@NKCAIGPH@A?5NativePixmapType?5argument?5doe@ 0000000140085820     raylib:rglfw.obj
 0002:00040870       ??_C@_0EE@FBMMOIJB@A?5NativeWindowType?5argument?5doe@ 0000000140085870     raylib:rglfw.obj
 0002:000408b8       ??_C@_0DL@GNLICFMC@The?5application?5must?5destroy?5al@ 00000001400858b8     raylib:rglfw.obj
 0002:000408f8       ??_C@_0BJ@KDFAHDEK@ERROR?3?5UNKNOWN?5EGL?5ERROR@ 00000001400858f8     raylib:rglfw.obj
 0002:00040918       ??_C@_0BM@KHOPPJNJ@EGL?3?5No?5EGLConfigs?5returned@ 0000000140085918     raylib:rglfw.obj
 0002:00040938       ??_C@_0CI@MPJNGPNP@EGL?3?5Failed?5to?5make?5context?5cur@ 0000000140085938     raylib:rglfw.obj
 0002:00040960       ??_C@_0CJ@NBJEEEJD@EGL?3?5Failed?5to?5clear?5current?5co@ 0000000140085960     raylib:rglfw.obj
 0002:00040990       ??_C@_0EN@CIIGDABJ@EGL?3?5The?5context?5must?5be?5curren@ 0000000140085990     raylib:rglfw.obj
 0002:000409e0       ??_C@_0L@ELKKGGMD@libEGL?4dll@ 00000001400859e0     raylib:rglfw.obj
 0002:000409f0       ??_C@_07EAKGIKCB@EGL?4dll@ 00000001400859f0     raylib:rglfw.obj
 0002:000409f8       ??_C@_0BH@NFNALLIN@EGL?3?5Library?5not?5found@ 00000001400859f8     raylib:rglfw.obj
 0002:00040a10       ??_C@_03LPIGJBNC@lib@      0000000140085a10     raylib:rglfw.obj
 0002:00040a18       ??_C@_0BD@MAEGKKAE@eglGetConfigAttrib@ 0000000140085a18     raylib:rglfw.obj
 0002:00040a30       ??_C@_0O@OMNEJBKO@eglGetConfigs@ 0000000140085a30     raylib:rglfw.obj
 0002:00040a40       ??_C@_0O@BMJFLKOA@eglGetDisplay@ 0000000140085a40     raylib:rglfw.obj
 0002:00040a50       ??_C@_0M@PPADKGOK@eglGetError@ 0000000140085a50     raylib:rglfw.obj
 0002:00040a60       ??_C@_0O@EEJFKEKH@eglInitialize@ 0000000140085a60     raylib:rglfw.obj
 0002:00040a70       ??_C@_0N@IGFNFAOP@eglTerminate@ 0000000140085a70     raylib:rglfw.obj
 0002:00040a80       ??_C@_0L@HJOCIPHF@eglBindAPI@ 0000000140085a80     raylib:rglfw.obj
 0002:00040a90       ??_C@_0BB@KEKMNHDF@eglCreateContext@ 0000000140085a90     raylib:rglfw.obj
 0002:00040aa8       ??_C@_0BC@ICHKG@eglDestroySurface@ 0000000140085aa8     raylib:rglfw.obj
 0002:00040ac0       ??_C@_0BC@BNOBCLNJ@eglDestroyContext@ 0000000140085ac0     raylib:rglfw.obj
 0002:00040ad8       ??_C@_0BH@MDMCFBDG@eglCreateWindowSurface@ 0000000140085ad8     raylib:rglfw.obj
 0002:00040af0       ??_C@_0P@PNPBPNLI@eglMakeCurrent@ 0000000140085af0     raylib:rglfw.obj
 0002:00040b00       ??_C@_0P@DEBOOHKH@eglSwapBuffers@ 0000000140085b00     raylib:rglfw.obj
 0002:00040b10       ??_C@_0BA@BGJPOLDF@eglSwapInterval@ 0000000140085b10     raylib:rglfw.obj
 0002:00040b20       ??_C@_0P@HJKEKLKD@eglQueryString@ 0000000140085b20     raylib:rglfw.obj
 0002:00040b30       ??_C@_0BC@HONLJDPH@eglGetProcAddress@ 0000000140085b30     raylib:rglfw.obj
 0002:00040b48       ??_C@_0CK@DCPJCPHH@EGL?3?5Failed?5to?5load?5required?5en@ 0000000140085b48     raylib:rglfw.obj
 0002:00040b78       ??_C@_0BG@IPJFJLIC@EGL_EXT_platform_base@ 0000000140085b78     raylib:rglfw.obj
 0002:00040b90       ??_C@_0BF@FMIKFMMH@EGL_EXT_platform_x11@ 0000000140085b90     raylib:rglfw.obj
 0002:00040ba8       ??_C@_0BJ@KIPDFNMM@EGL_EXT_platform_wayland@ 0000000140085ba8     raylib:rglfw.obj
 0002:00040bc8       ??_C@_0BJ@MBCLFEBK@EGL_ANGLE_platform_angle@ 0000000140085bc8     raylib:rglfw.obj
 0002:00040be8       ??_C@_0CA@NIHAEPLD@EGL_ANGLE_platform_angle_opengl@ 0000000140085be8     raylib:rglfw.obj
 0002:00040c08       ??_C@_0BN@OHLJPDPM@EGL_ANGLE_platform_angle_d3d@ 0000000140085c08     raylib:rglfw.obj
 0002:00040c28       ??_C@_0CA@HGIOILGO@EGL_ANGLE_platform_angle_vulkan@ 0000000140085c28     raylib:rglfw.obj
 0002:00040c48       ??_C@_0BP@NMKFFDCO@EGL_ANGLE_platform_angle_metal@ 0000000140085c48     raylib:rglfw.obj
 0002:00040c68       ??_C@_0BJ@KEAIGPHD@eglGetPlatformDisplayEXT@ 0000000140085c68     raylib:rglfw.obj
 0002:00040c88       ??_C@_0CC@NGDHIGBI@eglCreatePlatformWindowSurfaceE@ 0000000140085c88     raylib:rglfw.obj
 0002:00040cb0       ??_C@_0CD@CODEPNKE@EGL?3?5Failed?5to?5get?5EGL?5display?3@ 0000000140085cb0     raylib:rglfw.obj
 0002:00040cd8       ??_C@_0CC@DOIEFDD@EGL?3?5Failed?5to?5initialize?5EGL?3?5@ 0000000140085cd8     raylib:rglfw.obj
 0002:00040d00       ??_C@_0BH@GIBFIFPN@EGL_KHR_create_context@ 0000000140085d00     raylib:rglfw.obj
 0002:00040d18       ??_C@_0CA@OJFEOPKP@EGL_KHR_create_context_no_error@ 0000000140085d18     raylib:rglfw.obj
 0002:00040d38       ??_C@_0BG@GOAKKGGB@EGL_KHR_gl_colorspace@ 0000000140085d38     raylib:rglfw.obj
 0002:00040d50       ??_C@_0BP@CDGGFNNF@EGL_KHR_get_all_proc_addresses@ 0000000140085d50     raylib:rglfw.obj
 0002:00040d70       ??_C@_0BO@IDEEMGNC@EGL_KHR_context_flush_control@ 0000000140085d70     raylib:rglfw.obj
 0002:00040d90       ??_C@_0BH@JADLEPAM@EGL_EXT_present_opaque@ 0000000140085d90     raylib:rglfw.obj
 0002:00040da8       ??_C@_0BH@PDIOJKKP@EGL?3?5API?5not?5available@ 0000000140085da8     raylib:rglfw.obj
 0002:00040dc0       ??_C@_0CJ@JPDPLHCM@EGL?3?5Failed?5to?5find?5a?5suitable?5@ 0000000140085dc0     raylib:rglfw.obj
 0002:00040df0       ??_C@_0CC@NIBJMOI@EGL?3?5Failed?5to?5bind?5OpenGL?5ES?3?5@ 0000000140085df0     raylib:rglfw.obj
 0002:00040e18       ??_C@_0BP@PHOHHIJJ@EGL?3?5Failed?5to?5bind?5OpenGL?3?5?$CFs@ 0000000140085e18     raylib:rglfw.obj
 0002:00040e38       ??_C@_0CC@GOIKODMM@EGL?3?5Failed?5to?5create?5context?3?5@ 0000000140085e38     raylib:rglfw.obj
 0002:00040e60       ??_C@_0CJ@MHLGDLLP@EGL?3?5Failed?5to?5create?5window?5su@ 0000000140085e60     raylib:rglfw.obj
 0002:00040e90       ??_C@_0O@KOJFNJDA@GLESv1_CM?4dll@ 0000000140085e90     raylib:rglfw.obj
 0002:00040ea0       ??_C@_0P@MADFBLIB@libGLES_CM?4dll@ 0000000140085ea0     raylib:rglfw.obj
 0002:00040eb0       ??_C@_0L@CEBLLDFF@GLESv2?4dll@ 0000000140085eb0     raylib:rglfw.obj
 0002:00040ec0       ??_C@_0O@HFAAEHFL@libGLESv2?4dll@ 0000000140085ec0     raylib:rglfw.obj
 0002:00040ed0       ??_C@_0CD@JDEAKJCI@EGL?3?5Failed?5to?5load?5client?5libr@ 0000000140085ed0     raylib:rglfw.obj
 0002:00040ef8       ??_C@_0CH@CKFBCGDL@OSMesa?3?5Failed?5to?5make?5context?5@ 0000000140085ef8     raylib:rglfw.obj
 0002:00040f20       ??_C@_0O@DJDONBGH@libOSMesa?4dll@ 0000000140085f20     raylib:rglfw.obj
 0002:00040f30       ??_C@_0L@GICFCFGJ@OSMesa?4dll@ 0000000140085f30     raylib:rglfw.obj
 0002:00040f40       ??_C@_0BK@MLLMMLGE@OSMesa?3?5Library?5not?5found@ 0000000140085f40     raylib:rglfw.obj
 0002:00040f60       ??_C@_0BH@IPANDFMH@OSMesaCreateContextExt@ 0000000140085f60     raylib:rglfw.obj
 0002:00040f78       ??_C@_0BL@MIAEELOL@OSMesaCreateContextAttribs@ 0000000140085f78     raylib:rglfw.obj
 0002:00040f98       ??_C@_0BF@OOKNCFMF@OSMesaDestroyContext@ 0000000140085f98     raylib:rglfw.obj
 0002:00040fb0       ??_C@_0BC@HEACFLN@OSMesaMakeCurrent@ 0000000140085fb0     raylib:rglfw.obj
 0002:00040fc8       ??_C@_0BF@HHLAJKBF@OSMesaGetColorBuffer@ 0000000140085fc8     raylib:rglfw.obj
 0002:00040fe0       ??_C@_0BF@BPPLLLDH@OSMesaGetDepthBuffer@ 0000000140085fe0     raylib:rglfw.obj
 0002:00040ff8       ??_C@_0BF@INJHJNOL@OSMesaGetProcAddress@ 0000000140085ff8     raylib:rglfw.obj
 0002:00041010       ??_C@_0CN@PEBHJDOE@OSMesa?3?5Failed?5to?5load?5required@ 0000000140086010     raylib:rglfw.obj
 0002:00041040       ??_C@_0CN@JHECHMPF@OSMesa?3?5OpenGL?5ES?5is?5not?5availa@ 0000000140086040     raylib:rglfw.obj
 0002:00041070       ??_C@_0DC@KKLJAJOK@OSMesa?3?5Forward?9compatible?5cont@ 0000000140086070     raylib:rglfw.obj
 0002:000410a8       ??_C@_0CE@OJEBIEPE@OSMesa?3?5OpenGL?5profiles?5unavail@ 00000001400860a8     raylib:rglfw.obj
 0002:000410d0       ??_C@_0CB@LDOHHBIH@OSMesa?3?5Failed?5to?5create?5contex@ 00000001400860d0     raylib:rglfw.obj
 0002:000410f8       __real@405e000000000000    00000001400860f8     raylib:rglfw.obj
 0002:00041100       __real@41cb3333            0000000140086100     raylib:rglfw.obj
 0002:00041104       __real@42c00000            0000000140086104     raylib:rglfw.obj
 0002:00041108       __real@42ff0000            0000000140086108     raylib:rglfw.obj
 0002:0004110c       __real@46ffff00            000000014008610c     raylib:rglfw.obj
 0002:00041110       __real@7fefffffffffffff    0000000140086110     raylib:rglfw.obj
 0002:00041118       __real@ffefffffffffffff    0000000140086118     raylib:rglfw.obj
 0002:00041120       __xmm@00000006000000020000000300000001 0000000140086120     raylib:rglfw.obj
 0002:00041130       __xmm@00000008000000080000000800000008 0000000140086130     raylib:rglfw.obj
 0002:00041140       __xmm@00000009000000080000000c00000004 0000000140086140     raylib:rglfw.obj
 0002:00041150       __xmm@000001570000005b00000158000000a1 0000000140086150     raylib:rglfw.obj
 0002:00041160       __xmm@00002003000020130000200100002010 0000000140086160     raylib:rglfw.obj
 0002:00041170       __xmm@00002018000020170000201600002015 0000000140086170     raylib:rglfw.obj
 0002:00041180       __xmm@0000201c0000201b0000201a00002019 0000000140086180     raylib:rglfw.obj
 0002:00041190       __xmm@0000201e0000201d0000202300002022 0000000140086190     raylib:rglfw.obj
 0002:000411a0       __xmm@0000202400002021000020200000201f 00000001400861a0     raylib:rglfw.obj
 0002:000411b0       __xmm@012a0129012801270126012501240123 00000001400861b0     raylib:rglfw.obj
 0002:000411c0       __xmm@013501340133013201310130012f012e 00000001400861c0     raylib:rglfw.obj
 0002:000411e0       _load_config_used          00000001400861e0     msvcrt:loadcfg.obj
 0002:00041380       __volatile_metadata        0000000140086380     <linker-defined>
 0002:000416c8       __rtc_iaa                  00000001400866c8     msvcrt:initsect.obj
 0002:000416d0       __rtc_izz                  00000001400866d0     msvcrt:initsect.obj
 0002:000416d8       __rtc_taa                  00000001400866d8     msvcrt:initsect.obj
 0002:000416e0       __rtc_tzz                  00000001400866e0     msvcrt:initsect.obj
 0002:00044c84       __IMPORT_DESCRIPTOR_GDI32  0000000140089c84     gdi32:GDI32.dll
 0002:00044c98       __IMPORT_DESCRIPTOR_USER32 0000000140089c98     user32:USER32.dll
 0002:00044cac       __IMPORT_DESCRIPTOR_WINMM  0000000140089cac     winmm:WINMM.dll
 0002:00044cc0       __IMPORT_DESCRIPTOR_SHELL32 0000000140089cc0     shell32:SHELL32.dll
 0002:00044cd4       __IMPORT_DESCRIPTOR_KERNEL32 0000000140089cd4     kernel32:KERNEL32.dll
 0002:00044ce8       __IMPORT_DESCRIPTOR_VCRUNTIME140 0000000140089ce8     vcruntime:VCRUNTIME140.dll
 0002:00044cfc       __IMPORT_DESCRIPTOR_api-ms-win-crt-heap-l1-1-0 0000000140089cfc     ucrt:api-ms-win-crt-heap-l1-1-0.dll
 0002:00044d10       __IMPORT_DESCRIPTOR_api-ms-win-crt-utility-l1-1-0 0000000140089d10     ucrt:api-ms-win-crt-utility-l1-1-0.dll
 0002:00044d24       __IMPORT_DESCRIPTOR_api-ms-win-crt-time-l1-1-0 0000000140089d24     ucrt:api-ms-win-crt-time-l1-1-0.dll
 0002:00044d38       __IMPORT_DESCRIPTOR_api-ms-win-crt-math-l1-1-0 0000000140089d38     ucrt:api-ms-win-crt-math-l1-1-0.dll
 0002:00044d4c       __IMPORT_DESCRIPTOR_api-ms-win-crt-runtime-l1-1-0 0000000140089d4c     ucrt:api-ms-win-crt-runtime-l1-1-0.dll
 0002:00044d60       __IMPORT_DESCRIPTOR_api-ms-win-crt-stdio-l1-1-0 0000000140089d60     ucrt:api-ms-win-crt-stdio-l1-1-0.dll
 0002:00044d74       __IMPORT_DESCRIPTOR_api-ms-win-crt-string-l1-1-0 0000000140089d74     ucrt:api-ms-win-crt-string-l1-1-0.dll
 0002:00044d88       __IMPORT_DESCRIPTOR_api-ms-win-crt-filesystem-l1-1-0 0000000140089d88     ucrt:api-ms-win-crt-filesystem-l1-1-0.dll
 0002:00044d9c       __IMPORT_DESCRIPTOR_api-ms-win-crt-convert-l1-1-0 0000000140089d9c     ucrt:api-ms-win-crt-convert-l1-1-0.dll
 0002:00044db0       __IMPORT_DESCRIPTOR_api-ms-win-crt-locale-l1-1-0 0000000140089db0     ucrt:api-ms-win-crt-locale-l1-1-0.dll
 0002:00044dc4       __NULL_IMPORT_DESCRIPTOR   0000000140089dc4     gdi32:GDI32.dll
 0003:00000000       ?cube_cords@@3PAY02HA      000000014008c000     main.obj
 0003:00000060       ?edge_table@@3PAHA         000000014008c060     main.obj
 0003:00000460       ?tri_table@@3PAY0BA@HA     000000014008c460     main.obj
 0003:00004460       raylib_version             0000000140090460     raylib:rcore.obj
 0003:000047d0       stbi_write_tga_with_rle    00000001400907d0     raylib:rtextures.obj
 0003:000047d4       stbi_write_png_compression_level 00000001400907d4     raylib:rtextures.obj
 0003:000047d8       stbi_write_force_png_filter 00000001400907d8     raylib:rtextures.obj
 0003:00004860       stbir__s32_32768           0000000140090860     raylib:rtextures.obj
 0003:00004870       stbir__s16_32768           0000000140090870     raylib:rtextures.obj
 0003:00006808       texShapes                  0000000140092808     raylib:rshapes.obj
 0003:00006820       texShapesRec               0000000140092820     raylib:rshapes.obj
 0003:00006840       _glfwDefaultMappings       0000000140092840     raylib:rglfw.obj
 0003:00008420       __security_cookie_complement 0000000140094420     msvcrt:gs_cookie.obj
 0003:00008428       __security_cookie          0000000140094428     msvcrt:gs_cookie.obj
 0003:00008430       _fltused                   0000000140094430     msvcrt:fltused.obj
 0003:00008440       __isa_available            0000000140094440     msvcrt:cpu_disp.obj
 0003:00008444       __isa_enabled              0000000140094444     msvcrt:cpu_disp.obj
 0003:00008448       __memset_fast_string_threshold 0000000140094448     msvcrt:cpu_disp.obj
 0003:00008450       __memset_nt_threshold      0000000140094450     msvcrt:cpu_disp.obj
 0003:00008458       __scrt_native_dllmain_reason 0000000140094458     msvcrt:utility.obj
 0003:0000845c       __scrt_default_matherr     000000014009445c     msvcrt:matherr.obj
 0003:00008460       __scrt_ucrt_dll_is_in_use  0000000140094460     msvcrt:ucrt_stubs.obj
 0003:00008470       CORE                       0000000140094470     raylib:rcore.obj
 0003:00008f50       gifFrameCounter            0000000140094f50     raylib:rcore.obj
 0003:00008f54       gifRecording               0000000140094f54     raylib:rcore.obj
 0003:00008f60       gifState                   0000000140094f60     raylib:rcore.obj
 0003:00008fe0       msf_gif_alpha_threshold    0000000140094fe0     raylib:rcore.obj
 0003:00008fe4       msf_gif_bgra_flag          0000000140094fe4     raylib:rcore.obj
 0003:00008fe8       glad_glAccumxOES           0000000140094fe8     raylib:rcore.obj
 0003:00008ff0       glad_glActiveShaderProgram 0000000140094ff0     raylib:rcore.obj
 0003:00008ff8       glad_glActiveTexture       0000000140094ff8     raylib:rcore.obj
 0003:00009000       glad_glActiveTextureARB    0000000140095000     raylib:rcore.obj
 0003:00009008       glad_glAlphaFuncxOES       0000000140095008     raylib:rcore.obj
 0003:00009010       glad_glAttachObjectARB     0000000140095010     raylib:rcore.obj
 0003:00009018       glad_glAttachShader        0000000140095018     raylib:rcore.obj
 0003:00009020       glad_glBeginConditionalRender 0000000140095020     raylib:rcore.obj
 0003:00009028       glad_glBeginQuery          0000000140095028     raylib:rcore.obj
 0003:00009030       glad_glBeginQueryARB       0000000140095030     raylib:rcore.obj
 0003:00009038       glad_glBeginQueryIndexed   0000000140095038     raylib:rcore.obj
 0003:00009040       glad_glBeginTransformFeedback 0000000140095040     raylib:rcore.obj
 0003:00009048       glad_glBindAttribLocation  0000000140095048     raylib:rcore.obj
 0003:00009050       glad_glBindAttribLocationARB 0000000140095050     raylib:rcore.obj
 0003:00009058       glad_glBindBuffer          0000000140095058     raylib:rcore.obj
 0003:00009060       glad_glBindBufferARB       0000000140095060     raylib:rcore.obj
 0003:00009068       glad_glBindBufferBase      0000000140095068     raylib:rcore.obj
 0003:00009070       glad_glBindBufferRange     0000000140095070     raylib:rcore.obj
 0003:00009078       glad_glBindBuffersBase     0000000140095078     raylib:rcore.obj
 0003:00009080       glad_glBindBuffersRange    0000000140095080     raylib:rcore.obj
 0003:00009088       glad_glBindFragDataLocation 0000000140095088     raylib:rcore.obj
 0003:00009090       glad_glBindFragDataLocationIndexed 0000000140095090     raylib:rcore.obj
 0003:00009098       glad_glBindFramebuffer     0000000140095098     raylib:rcore.obj
 0003:000090a0       glad_glBindFramebufferEXT  00000001400950a0     raylib:rcore.obj
 0003:000090a8       glad_glBindImageTexture    00000001400950a8     raylib:rcore.obj
 0003:000090b0       glad_glBindImageTextures   00000001400950b0     raylib:rcore.obj
 0003:000090b8       glad_glBindProgramARB      00000001400950b8     raylib:rcore.obj
 0003:000090c0       glad_glBindProgramPipeline 00000001400950c0     raylib:rcore.obj
 0003:000090c8       glad_glBindRenderbuffer    00000001400950c8     raylib:rcore.obj
 0003:000090d0       glad_glBindRenderbufferEXT 00000001400950d0     raylib:rcore.obj
 0003:000090d8       glad_glBindSampler         00000001400950d8     raylib:rcore.obj
 0003:000090e0       glad_glBindSamplers        00000001400950e0     raylib:rcore.obj
 0003:000090e8       glad_glBindTexture         00000001400950e8     raylib:rcore.obj
 0003:000090f0       glad_glBindTextureUnit     00000001400950f0     raylib:rcore.obj
 0003:000090f8       glad_glBindTextures        00000001400950f8     raylib:rcore.obj
 0003:00009100       glad_glBindTransformFeedback 0000000140095100     raylib:rcore.obj
 0003:00009108       glad_glBindVertexArray     0000000140095108     raylib:rcore.obj
 0003:00009110       glad_glBindVertexBuffer    0000000140095110     raylib:rcore.obj
 0003:00009118       glad_glBindVertexBuffers   0000000140095118     raylib:rcore.obj
 0003:00009120       glad_glBitmapxOES          0000000140095120     raylib:rcore.obj
 0003:00009128       glad_glBlendColor          0000000140095128     raylib:rcore.obj
 0003:00009130       glad_glBlendColorxOES      0000000140095130     raylib:rcore.obj
 0003:00009138       glad_glBlendEquation       0000000140095138     raylib:rcore.obj
 0003:00009140       glad_glBlendEquationSeparate 0000000140095140     raylib:rcore.obj
 0003:00009148       glad_glBlendEquationSeparatei 0000000140095148     raylib:rcore.obj
 0003:00009150       glad_glBlendEquationSeparateiARB 0000000140095150     raylib:rcore.obj
 0003:00009158       glad_glBlendEquationi      0000000140095158     raylib:rcore.obj
 0003:00009160       glad_glBlendEquationiARB   0000000140095160     raylib:rcore.obj
 0003:00009168       glad_glBlendFunc           0000000140095168     raylib:rcore.obj
 0003:00009170       glad_glBlendFuncSeparate   0000000140095170     raylib:rcore.obj
 0003:00009178       glad_glBlendFuncSeparatei  0000000140095178     raylib:rcore.obj
 0003:00009180       glad_glBlendFuncSeparateiARB 0000000140095180     raylib:rcore.obj
 0003:00009188       glad_glBlendFunci          0000000140095188     raylib:rcore.obj
 0003:00009190       glad_glBlendFunciARB       0000000140095190     raylib:rcore.obj
 0003:00009198       glad_glBlitFramebuffer     0000000140095198     raylib:rcore.obj
 0003:000091a0       glad_glBlitFramebufferEXT  00000001400951a0     raylib:rcore.obj
 0003:000091a8       glad_glBlitNamedFramebuffer 00000001400951a8     raylib:rcore.obj
 0003:000091b0       glad_glBufferData          00000001400951b0     raylib:rcore.obj
 0003:000091b8       glad_glBufferDataARB       00000001400951b8     raylib:rcore.obj
 0003:000091c0       glad_glBufferStorage       00000001400951c0     raylib:rcore.obj
 0003:000091c8       glad_glBufferSubData       00000001400951c8     raylib:rcore.obj
 0003:000091d0       glad_glBufferSubDataARB    00000001400951d0     raylib:rcore.obj
 0003:000091d8       glad_glCheckFramebufferStatus 00000001400951d8     raylib:rcore.obj
 0003:000091e0       glad_glCheckFramebufferStatusEXT 00000001400951e0     raylib:rcore.obj
 0003:000091e8       glad_glCheckNamedFramebufferStatus 00000001400951e8     raylib:rcore.obj
 0003:000091f0       glad_glClampColor          00000001400951f0     raylib:rcore.obj
 0003:000091f8       glad_glClampColorARB       00000001400951f8     raylib:rcore.obj
 0003:00009200       glad_glClear               0000000140095200     raylib:rcore.obj
 0003:00009208       glad_glClearAccumxOES      0000000140095208     raylib:rcore.obj
 0003:00009210       glad_glClearBufferData     0000000140095210     raylib:rcore.obj
 0003:00009218       glad_glClearBufferSubData  0000000140095218     raylib:rcore.obj
 0003:00009220       glad_glClearBufferfi       0000000140095220     raylib:rcore.obj
 0003:00009228       glad_glClearBufferfv       0000000140095228     raylib:rcore.obj
 0003:00009230       glad_glClearBufferiv       0000000140095230     raylib:rcore.obj
 0003:00009238       glad_glClearBufferuiv      0000000140095238     raylib:rcore.obj
 0003:00009240       glad_glClearColor          0000000140095240     raylib:rcore.obj
 0003:00009248       glad_glClearColorxOES      0000000140095248     raylib:rcore.obj
 0003:00009250       glad_glClearDepth          0000000140095250     raylib:rcore.obj
 0003:00009258       glad_glClearDepthf         0000000140095258     raylib:rcore.obj
 0003:00009260       glad_glClearDepthxOES      0000000140095260     raylib:rcore.obj
 0003:00009268       glad_glClearNamedBufferData 0000000140095268     raylib:rcore.obj
 0003:00009270       glad_glClearNamedBufferSubData 0000000140095270     raylib:rcore.obj
 0003:00009278       glad_glClearNamedFramebufferfi 0000000140095278     raylib:rcore.obj
 0003:00009280       glad_glClearNamedFramebufferfv 0000000140095280     raylib:rcore.obj
 0003:00009288       glad_glClearNamedFramebufferiv 0000000140095288     raylib:rcore.obj
 0003:00009290       glad_glClearNamedFramebufferuiv 0000000140095290     raylib:rcore.obj
 0003:00009298       glad_glClearStencil        0000000140095298     raylib:rcore.obj
 0003:000092a0       glad_glClearTexImage       00000001400952a0     raylib:rcore.obj
 0003:000092a8       glad_glClearTexSubImage    00000001400952a8     raylib:rcore.obj
 0003:000092b0       glad_glClientActiveTextureARB 00000001400952b0     raylib:rcore.obj
 0003:000092b8       glad_glClientWaitSync      00000001400952b8     raylib:rcore.obj
 0003:000092c0       glad_glClipPlanexOES       00000001400952c0     raylib:rcore.obj
 0003:000092c8       glad_glColor3xOES          00000001400952c8     raylib:rcore.obj
 0003:000092d0       glad_glColor3xvOES         00000001400952d0     raylib:rcore.obj
 0003:000092d8       glad_glColor4xOES          00000001400952d8     raylib:rcore.obj
 0003:000092e0       glad_glColor4xvOES         00000001400952e0     raylib:rcore.obj
 0003:000092e8       glad_glColorMask           00000001400952e8     raylib:rcore.obj
 0003:000092f0       glad_glColorMaski          00000001400952f0     raylib:rcore.obj
 0003:000092f8       glad_glCompileShader       00000001400952f8     raylib:rcore.obj
 0003:00009300       glad_glCompileShaderARB    0000000140095300     raylib:rcore.obj
 0003:00009308       glad_glCompileShaderIncludeARB 0000000140095308     raylib:rcore.obj
 0003:00009310       glad_glCompressedTexImage1D 0000000140095310     raylib:rcore.obj
 0003:00009318       glad_glCompressedTexImage1DARB 0000000140095318     raylib:rcore.obj
 0003:00009320       glad_glCompressedTexImage2D 0000000140095320     raylib:rcore.obj
 0003:00009328       glad_glCompressedTexImage2DARB 0000000140095328     raylib:rcore.obj
 0003:00009330       glad_glCompressedTexImage3D 0000000140095330     raylib:rcore.obj
 0003:00009338       glad_glCompressedTexImage3DARB 0000000140095338     raylib:rcore.obj
 0003:00009340       glad_glCompressedTexSubImage1D 0000000140095340     raylib:rcore.obj
 0003:00009348       glad_glCompressedTexSubImage1DARB 0000000140095348     raylib:rcore.obj
 0003:00009350       glad_glCompressedTexSubImage2D 0000000140095350     raylib:rcore.obj
 0003:00009358       glad_glCompressedTexSubImage2DARB 0000000140095358     raylib:rcore.obj
 0003:00009360       glad_glCompressedTexSubImage3D 0000000140095360     raylib:rcore.obj
 0003:00009368       glad_glCompressedTexSubImage3DARB 0000000140095368     raylib:rcore.obj
 0003:00009370       glad_glCompressedTextureSubImage1D 0000000140095370     raylib:rcore.obj
 0003:00009378       glad_glCompressedTextureSubImage2D 0000000140095378     raylib:rcore.obj
 0003:00009380       glad_glCompressedTextureSubImage3D 0000000140095380     raylib:rcore.obj
 0003:00009388       glad_glConvolutionParameterxOES 0000000140095388     raylib:rcore.obj
 0003:00009390       glad_glConvolutionParameterxvOES 0000000140095390     raylib:rcore.obj
 0003:00009398       glad_glCopyBufferSubData   0000000140095398     raylib:rcore.obj
 0003:000093a0       glad_glCopyImageSubData    00000001400953a0     raylib:rcore.obj
 0003:000093a8       glad_glCopyNamedBufferSubData 00000001400953a8     raylib:rcore.obj
 0003:000093b0       glad_glCopyTexImage1D      00000001400953b0     raylib:rcore.obj
 0003:000093b8       glad_glCopyTexImage2D      00000001400953b8     raylib:rcore.obj
 0003:000093c0       glad_glCopyTexSubImage1D   00000001400953c0     raylib:rcore.obj
 0003:000093c8       glad_glCopyTexSubImage2D   00000001400953c8     raylib:rcore.obj
 0003:000093d0       glad_glCopyTexSubImage3D   00000001400953d0     raylib:rcore.obj
 0003:000093d8       glad_glCopyTextureSubImage1D 00000001400953d8     raylib:rcore.obj
 0003:000093e0       glad_glCopyTextureSubImage2D 00000001400953e0     raylib:rcore.obj
 0003:000093e8       glad_glCopyTextureSubImage3D 00000001400953e8     raylib:rcore.obj
 0003:000093f0       glad_glCreateBuffers       00000001400953f0     raylib:rcore.obj
 0003:000093f8       glad_glCreateFramebuffers  00000001400953f8     raylib:rcore.obj
 0003:00009400       glad_glCreateProgram       0000000140095400     raylib:rcore.obj
 0003:00009408       glad_glCreateProgramObjectARB 0000000140095408     raylib:rcore.obj
 0003:00009410       glad_glCreateProgramPipelines 0000000140095410     raylib:rcore.obj
 0003:00009418       glad_glCreateQueries       0000000140095418     raylib:rcore.obj
 0003:00009420       glad_glCreateRenderbuffers 0000000140095420     raylib:rcore.obj
 0003:00009428       glad_glCreateSamplers      0000000140095428     raylib:rcore.obj
 0003:00009430       glad_glCreateShader        0000000140095430     raylib:rcore.obj
 0003:00009438       glad_glCreateShaderObjectARB 0000000140095438     raylib:rcore.obj
 0003:00009440       glad_glCreateShaderProgramv 0000000140095440     raylib:rcore.obj
 0003:00009448       glad_glCreateTextures      0000000140095448     raylib:rcore.obj
 0003:00009450       glad_glCreateTransformFeedbacks 0000000140095450     raylib:rcore.obj
 0003:00009458       glad_glCreateVertexArrays  0000000140095458     raylib:rcore.obj
 0003:00009460       glad_glCullFace            0000000140095460     raylib:rcore.obj
 0003:00009468       glad_glDebugMessageCallback 0000000140095468     raylib:rcore.obj
 0003:00009470       glad_glDebugMessageCallbackARB 0000000140095470     raylib:rcore.obj
 0003:00009478       glad_glDebugMessageControl 0000000140095478     raylib:rcore.obj
 0003:00009480       glad_glDebugMessageControlARB 0000000140095480     raylib:rcore.obj
 0003:00009488       glad_glDebugMessageInsert  0000000140095488     raylib:rcore.obj
 0003:00009490       glad_glDebugMessageInsertARB 0000000140095490     raylib:rcore.obj
 0003:00009498       glad_glDeleteBuffers       0000000140095498     raylib:rcore.obj
 0003:000094a0       glad_glDeleteBuffersARB    00000001400954a0     raylib:rcore.obj
 0003:000094a8       glad_glDeleteFramebuffers  00000001400954a8     raylib:rcore.obj
 0003:000094b0       glad_glDeleteFramebuffersEXT 00000001400954b0     raylib:rcore.obj
 0003:000094b8       glad_glDeleteNamedStringARB 00000001400954b8     raylib:rcore.obj
 0003:000094c0       glad_glDeleteObjectARB     00000001400954c0     raylib:rcore.obj
 0003:000094c8       glad_glDeleteProgram       00000001400954c8     raylib:rcore.obj
 0003:000094d0       glad_glDeleteProgramPipelines 00000001400954d0     raylib:rcore.obj
 0003:000094d8       glad_glDeleteProgramsARB   00000001400954d8     raylib:rcore.obj
 0003:000094e0       glad_glDeleteQueries       00000001400954e0     raylib:rcore.obj
 0003:000094e8       glad_glDeleteQueriesARB    00000001400954e8     raylib:rcore.obj
 0003:000094f0       glad_glDeleteRenderbuffers 00000001400954f0     raylib:rcore.obj
 0003:000094f8       glad_glDeleteRenderbuffersEXT 00000001400954f8     raylib:rcore.obj
 0003:00009500       glad_glDeleteSamplers      0000000140095500     raylib:rcore.obj
 0003:00009508       glad_glDeleteShader        0000000140095508     raylib:rcore.obj
 0003:00009510       glad_glDeleteSync          0000000140095510     raylib:rcore.obj
 0003:00009518       glad_glDeleteTextures      0000000140095518     raylib:rcore.obj
 0003:00009520       glad_glDeleteTransformFeedbacks 0000000140095520     raylib:rcore.obj
 0003:00009528       glad_glDeleteVertexArrays  0000000140095528     raylib:rcore.obj
 0003:00009530       glad_glDepthFunc           0000000140095530     raylib:rcore.obj
 0003:00009538       glad_glDepthMask           0000000140095538     raylib:rcore.obj
 0003:00009540       glad_glDepthRange          0000000140095540     raylib:rcore.obj
 0003:00009548       glad_glDepthRangeArrayv    0000000140095548     raylib:rcore.obj
 0003:00009550       glad_glDepthRangeIndexed   0000000140095550     raylib:rcore.obj
 0003:00009558       glad_glDepthRangef         0000000140095558     raylib:rcore.obj
 0003:00009560       glad_glDepthRangexOES      0000000140095560     raylib:rcore.obj
 0003:00009568       glad_glDetachObjectARB     0000000140095568     raylib:rcore.obj
 0003:00009570       glad_glDetachShader        0000000140095570     raylib:rcore.obj
 0003:00009578       glad_glDisable             0000000140095578     raylib:rcore.obj
 0003:00009580       glad_glDisableVertexArrayAttrib 0000000140095580     raylib:rcore.obj
 0003:00009588       glad_glDisableVertexAttribArray 0000000140095588     raylib:rcore.obj
 0003:00009590       glad_glDisableVertexAttribArrayARB 0000000140095590     raylib:rcore.obj
 0003:00009598       glad_glDisablei            0000000140095598     raylib:rcore.obj
 0003:000095a0       glad_glDispatchCompute     00000001400955a0     raylib:rcore.obj
 0003:000095a8       glad_glDispatchComputeGroupSizeARB 00000001400955a8     raylib:rcore.obj
 0003:000095b0       glad_glDispatchComputeIndirect 00000001400955b0     raylib:rcore.obj
 0003:000095b8       glad_glDrawArrays          00000001400955b8     raylib:rcore.obj
 0003:000095c0       glad_glDrawArraysIndirect  00000001400955c0     raylib:rcore.obj
 0003:000095c8       glad_glDrawArraysInstanced 00000001400955c8     raylib:rcore.obj
 0003:000095d0       glad_glDrawArraysInstancedARB 00000001400955d0     raylib:rcore.obj
 0003:000095d8       glad_glDrawArraysInstancedBaseInstance 00000001400955d8     raylib:rcore.obj
 0003:000095e0       glad_glDrawArraysInstancedEXT 00000001400955e0     raylib:rcore.obj
 0003:000095e8       glad_glDrawBuffer          00000001400955e8     raylib:rcore.obj
 0003:000095f0       glad_glDrawBuffers         00000001400955f0     raylib:rcore.obj
 0003:000095f8       glad_glDrawBuffersARB      00000001400955f8     raylib:rcore.obj
 0003:00009600       glad_glDrawElements        0000000140095600     raylib:rcore.obj
 0003:00009608       glad_glDrawElementsBaseVertex 0000000140095608     raylib:rcore.obj
 0003:00009610       glad_glDrawElementsIndirect 0000000140095610     raylib:rcore.obj
 0003:00009618       glad_glDrawElementsInstanced 0000000140095618     raylib:rcore.obj
 0003:00009620       glad_glDrawElementsInstancedARB 0000000140095620     raylib:rcore.obj
 0003:00009628       glad_glDrawElementsInstancedBaseInstance 0000000140095628     raylib:rcore.obj
 0003:00009630       glad_glDrawElementsInstancedBaseVertex 0000000140095630     raylib:rcore.obj
 0003:00009638       glad_glDrawElementsInstancedBaseVertexBaseInstance 0000000140095638     raylib:rcore.obj
 0003:00009640       glad_glDrawElementsInstancedEXT 0000000140095640     raylib:rcore.obj
 0003:00009648       glad_glDrawRangeElements   0000000140095648     raylib:rcore.obj
 0003:00009650       glad_glDrawRangeElementsBaseVertex 0000000140095650     raylib:rcore.obj
 0003:00009658       glad_glDrawTransformFeedback 0000000140095658     raylib:rcore.obj
 0003:00009660       glad_glDrawTransformFeedbackInstanced 0000000140095660     raylib:rcore.obj
 0003:00009668       glad_glDrawTransformFeedbackStream 0000000140095668     raylib:rcore.obj
 0003:00009670       glad_glDrawTransformFeedbackStreamInstanced 0000000140095670     raylib:rcore.obj
 0003:00009678       glad_glEnable              0000000140095678     raylib:rcore.obj
 0003:00009680       glad_glEnableVertexArrayAttrib 0000000140095680     raylib:rcore.obj
 0003:00009688       glad_glEnableVertexAttribArray 0000000140095688     raylib:rcore.obj
 0003:00009690       glad_glEnableVertexAttribArrayARB 0000000140095690     raylib:rcore.obj
 0003:00009698       glad_glEnablei             0000000140095698     raylib:rcore.obj
 0003:000096a0       glad_glEndConditionalRender 00000001400956a0     raylib:rcore.obj
 0003:000096a8       glad_glEndQuery            00000001400956a8     raylib:rcore.obj
 0003:000096b0       glad_glEndQueryARB         00000001400956b0     raylib:rcore.obj
 0003:000096b8       glad_glEndQueryIndexed     00000001400956b8     raylib:rcore.obj
 0003:000096c0       glad_glEndTransformFeedback 00000001400956c0     raylib:rcore.obj
 0003:000096c8       glad_glEvalCoord1xOES      00000001400956c8     raylib:rcore.obj
 0003:000096d0       glad_glEvalCoord1xvOES     00000001400956d0     raylib:rcore.obj
 0003:000096d8       glad_glEvalCoord2xOES      00000001400956d8     raylib:rcore.obj
 0003:000096e0       glad_glEvalCoord2xvOES     00000001400956e0     raylib:rcore.obj
 0003:000096e8       glad_glEvaluateDepthValuesARB 00000001400956e8     raylib:rcore.obj
 0003:000096f0       glad_glFeedbackBufferxOES  00000001400956f0     raylib:rcore.obj
 0003:000096f8       glad_glFenceSync           00000001400956f8     raylib:rcore.obj
 0003:00009700       glad_glFinish              0000000140095700     raylib:rcore.obj
 0003:00009708       glad_glFlush               0000000140095708     raylib:rcore.obj
 0003:00009710       glad_glFlushMappedBufferRange 0000000140095710     raylib:rcore.obj
 0003:00009718       glad_glFlushMappedNamedBufferRange 0000000140095718     raylib:rcore.obj
 0003:00009720       glad_glFogCoordPointerEXT  0000000140095720     raylib:rcore.obj
 0003:00009728       glad_glFogCoorddEXT        0000000140095728     raylib:rcore.obj
 0003:00009730       glad_glFogCoorddvEXT       0000000140095730     raylib:rcore.obj
 0003:00009738       glad_glFogCoordfEXT        0000000140095738     raylib:rcore.obj
 0003:00009740       glad_glFogCoordfvEXT       0000000140095740     raylib:rcore.obj
 0003:00009748       glad_glFogxOES             0000000140095748     raylib:rcore.obj
 0003:00009750       glad_glFogxvOES            0000000140095750     raylib:rcore.obj
 0003:00009758       glad_glFramebufferParameteri 0000000140095758     raylib:rcore.obj
 0003:00009760       glad_glFramebufferRenderbuffer 0000000140095760     raylib:rcore.obj
 0003:00009768       glad_glFramebufferRenderbufferEXT 0000000140095768     raylib:rcore.obj
 0003:00009770       glad_glFramebufferSampleLocationsfvARB 0000000140095770     raylib:rcore.obj
 0003:00009778       glad_glFramebufferTexture  0000000140095778     raylib:rcore.obj
 0003:00009780       glad_glFramebufferTexture1D 0000000140095780     raylib:rcore.obj
 0003:00009788       glad_glFramebufferTexture1DEXT 0000000140095788     raylib:rcore.obj
 0003:00009790       glad_glFramebufferTexture2D 0000000140095790     raylib:rcore.obj
 0003:00009798       glad_glFramebufferTexture2DEXT 0000000140095798     raylib:rcore.obj
 0003:000097a0       glad_glFramebufferTexture3D 00000001400957a0     raylib:rcore.obj
 0003:000097a8       glad_glFramebufferTexture3DEXT 00000001400957a8     raylib:rcore.obj
 0003:000097b0       glad_glFramebufferTextureARB 00000001400957b0     raylib:rcore.obj
 0003:000097b8       glad_glFramebufferTextureFaceARB 00000001400957b8     raylib:rcore.obj
 0003:000097c0       glad_glFramebufferTextureLayer 00000001400957c0     raylib:rcore.obj
 0003:000097c8       glad_glFramebufferTextureLayerARB 00000001400957c8     raylib:rcore.obj
 0003:000097d0       glad_glFrontFace           00000001400957d0     raylib:rcore.obj
 0003:000097d8       glad_glFrustumxOES         00000001400957d8     raylib:rcore.obj
 0003:000097e0       glad_glGenBuffers          00000001400957e0     raylib:rcore.obj
 0003:000097e8       glad_glGenBuffersARB       00000001400957e8     raylib:rcore.obj
 0003:000097f0       glad_glGenFramebuffers     00000001400957f0     raylib:rcore.obj
 0003:000097f8       glad_glGenFramebuffersEXT  00000001400957f8     raylib:rcore.obj
 0003:00009800       glad_glGenProgramPipelines 0000000140095800     raylib:rcore.obj
 0003:00009808       glad_glGenProgramsARB      0000000140095808     raylib:rcore.obj
 0003:00009810       glad_glGenQueries          0000000140095810     raylib:rcore.obj
 0003:00009818       glad_glGenQueriesARB       0000000140095818     raylib:rcore.obj
 0003:00009820       glad_glGenRenderbuffers    0000000140095820     raylib:rcore.obj
 0003:00009828       glad_glGenRenderbuffersEXT 0000000140095828     raylib:rcore.obj
 0003:00009830       glad_glGenSamplers         0000000140095830     raylib:rcore.obj
 0003:00009838       glad_glGenTextures         0000000140095838     raylib:rcore.obj
 0003:00009840       glad_glGenTransformFeedbacks 0000000140095840     raylib:rcore.obj
 0003:00009848       glad_glGenVertexArrays     0000000140095848     raylib:rcore.obj
 0003:00009850       glad_glGenerateMipmap      0000000140095850     raylib:rcore.obj
 0003:00009858       glad_glGenerateMipmapEXT   0000000140095858     raylib:rcore.obj
 0003:00009860       glad_glGenerateTextureMipmap 0000000140095860     raylib:rcore.obj
 0003:00009868       glad_glGetActiveAtomicCounterBufferiv 0000000140095868     raylib:rcore.obj
 0003:00009870       glad_glGetActiveAttrib     0000000140095870     raylib:rcore.obj
 0003:00009878       glad_glGetActiveAttribARB  0000000140095878     raylib:rcore.obj
 0003:00009880       glad_glGetActiveSubroutineName 0000000140095880     raylib:rcore.obj
 0003:00009888       glad_glGetActiveSubroutineUniformName 0000000140095888     raylib:rcore.obj
 0003:00009890       glad_glGetActiveSubroutineUniformiv 0000000140095890     raylib:rcore.obj
 0003:00009898       glad_glGetActiveUniform    0000000140095898     raylib:rcore.obj
 0003:000098a0       glad_glGetActiveUniformARB 00000001400958a0     raylib:rcore.obj
 0003:000098a8       glad_glGetActiveUniformBlockName 00000001400958a8     raylib:rcore.obj
 0003:000098b0       glad_glGetActiveUniformBlockiv 00000001400958b0     raylib:rcore.obj
 0003:000098b8       glad_glGetActiveUniformName 00000001400958b8     raylib:rcore.obj
 0003:000098c0       glad_glGetActiveUniformsiv 00000001400958c0     raylib:rcore.obj
 0003:000098c8       glad_glGetAttachedObjectsARB 00000001400958c8     raylib:rcore.obj
 0003:000098d0       glad_glGetAttachedShaders  00000001400958d0     raylib:rcore.obj
 0003:000098d8       glad_glGetAttribLocation   00000001400958d8     raylib:rcore.obj
 0003:000098e0       glad_glGetAttribLocationARB 00000001400958e0     raylib:rcore.obj
 0003:000098e8       glad_glGetBooleani_v       00000001400958e8     raylib:rcore.obj
 0003:000098f0       glad_glGetBooleanv         00000001400958f0     raylib:rcore.obj
 0003:000098f8       glad_glGetBufferParameteri64v 00000001400958f8     raylib:rcore.obj
 0003:00009900       glad_glGetBufferParameteriv 0000000140095900     raylib:rcore.obj
 0003:00009908       glad_glGetBufferParameterivARB 0000000140095908     raylib:rcore.obj
 0003:00009910       glad_glGetBufferPointerv   0000000140095910     raylib:rcore.obj
 0003:00009918       glad_glGetBufferPointervARB 0000000140095918     raylib:rcore.obj
 0003:00009920       glad_glGetBufferSubData    0000000140095920     raylib:rcore.obj
 0003:00009928       glad_glGetBufferSubDataARB 0000000140095928     raylib:rcore.obj
 0003:00009930       glad_glGetClipPlanexOES    0000000140095930     raylib:rcore.obj
 0003:00009938       glad_glGetCompressedTexImage 0000000140095938     raylib:rcore.obj
 0003:00009940       glad_glGetCompressedTexImageARB 0000000140095940     raylib:rcore.obj
 0003:00009948       glad_glGetCompressedTextureImage 0000000140095948     raylib:rcore.obj
 0003:00009950       glad_glGetCompressedTextureSubImage 0000000140095950     raylib:rcore.obj
 0003:00009958       glad_glGetConvolutionParameterxvOES 0000000140095958     raylib:rcore.obj
 0003:00009960       glad_glGetDebugMessageLog  0000000140095960     raylib:rcore.obj
 0003:00009968       glad_glGetDebugMessageLogARB 0000000140095968     raylib:rcore.obj
 0003:00009970       glad_glGetDoublei_v        0000000140095970     raylib:rcore.obj
 0003:00009978       glad_glGetDoublev          0000000140095978     raylib:rcore.obj
 0003:00009980       glad_glGetError            0000000140095980     raylib:rcore.obj
 0003:00009988       glad_glGetFixedvOES        0000000140095988     raylib:rcore.obj
 0003:00009990       glad_glGetFloati_v         0000000140095990     raylib:rcore.obj
 0003:00009998       glad_glGetFloatv           0000000140095998     raylib:rcore.obj
 0003:000099a0       glad_glGetFragDataIndex    00000001400959a0     raylib:rcore.obj
 0003:000099a8       glad_glGetFragDataLocation 00000001400959a8     raylib:rcore.obj
 0003:000099b0       glad_glGetFramebufferAttachmentParameteriv 00000001400959b0     raylib:rcore.obj
 0003:000099b8       glad_glGetFramebufferAttachmentParameterivEXT 00000001400959b8     raylib:rcore.obj
 0003:000099c0       glad_glGetFramebufferParameteriv 00000001400959c0     raylib:rcore.obj
 0003:000099c8       glad_glGetHandleARB        00000001400959c8     raylib:rcore.obj
 0003:000099d0       glad_glGetHistogramParameterxvOES 00000001400959d0     raylib:rcore.obj
 0003:000099d8       glad_glGetInfoLogARB       00000001400959d8     raylib:rcore.obj
 0003:000099e0       glad_glGetInteger64i_v     00000001400959e0     raylib:rcore.obj
 0003:000099e8       glad_glGetInteger64v       00000001400959e8     raylib:rcore.obj
 0003:000099f0       glad_glGetIntegeri_v       00000001400959f0     raylib:rcore.obj
 0003:000099f8       glad_glGetIntegerv         00000001400959f8     raylib:rcore.obj
 0003:00009a00       glad_glGetInternalformati64v 0000000140095a00     raylib:rcore.obj
 0003:00009a08       glad_glGetInternalformativ 0000000140095a08     raylib:rcore.obj
 0003:00009a10       glad_glGetLightxOES        0000000140095a10     raylib:rcore.obj
 0003:00009a18       glad_glGetMapxvOES         0000000140095a18     raylib:rcore.obj
 0003:00009a20       glad_glGetMaterialxOES     0000000140095a20     raylib:rcore.obj
 0003:00009a28       glad_glGetMultisamplefv    0000000140095a28     raylib:rcore.obj
 0003:00009a30       glad_glGetNamedBufferParameteri64v 0000000140095a30     raylib:rcore.obj
 0003:00009a38       glad_glGetNamedBufferParameteriv 0000000140095a38     raylib:rcore.obj
 0003:00009a40       glad_glGetNamedBufferPointerv 0000000140095a40     raylib:rcore.obj
 0003:00009a48       glad_glGetNamedBufferSubData 0000000140095a48     raylib:rcore.obj
 0003:00009a50       glad_glGetNamedFramebufferAttachmentParameteriv 0000000140095a50     raylib:rcore.obj
 0003:00009a58       glad_glGetNamedFramebufferParameteriv 0000000140095a58     raylib:rcore.obj
 0003:00009a60       glad_glGetNamedRenderbufferParameteriv 0000000140095a60     raylib:rcore.obj
 0003:00009a68       glad_glGetNamedStringARB   0000000140095a68     raylib:rcore.obj
 0003:00009a70       glad_glGetNamedStringivARB 0000000140095a70     raylib:rcore.obj
 0003:00009a78       glad_glGetObjectLabel      0000000140095a78     raylib:rcore.obj
 0003:00009a80       glad_glGetObjectParameterfvARB 0000000140095a80     raylib:rcore.obj
 0003:00009a88       glad_glGetObjectParameterivARB 0000000140095a88     raylib:rcore.obj
 0003:00009a90       glad_glGetObjectPtrLabel   0000000140095a90     raylib:rcore.obj
 0003:00009a98       glad_glGetPixelMapxv       0000000140095a98     raylib:rcore.obj
 0003:00009aa0       glad_glGetPointerv         0000000140095aa0     raylib:rcore.obj
 0003:00009aa8       glad_glGetProgramBinary    0000000140095aa8     raylib:rcore.obj
 0003:00009ab0       glad_glGetProgramEnvParameterdvARB 0000000140095ab0     raylib:rcore.obj
 0003:00009ab8       glad_glGetProgramEnvParameterfvARB 0000000140095ab8     raylib:rcore.obj
 0003:00009ac0       glad_glGetProgramInfoLog   0000000140095ac0     raylib:rcore.obj
 0003:00009ac8       glad_glGetProgramInterfaceiv 0000000140095ac8     raylib:rcore.obj
 0003:00009ad0       glad_glGetProgramLocalParameterdvARB 0000000140095ad0     raylib:rcore.obj
 0003:00009ad8       glad_glGetProgramLocalParameterfvARB 0000000140095ad8     raylib:rcore.obj
 0003:00009ae0       glad_glGetProgramPipelineInfoLog 0000000140095ae0     raylib:rcore.obj
 0003:00009ae8       glad_glGetProgramPipelineiv 0000000140095ae8     raylib:rcore.obj
 0003:00009af0       glad_glGetProgramResourceIndex 0000000140095af0     raylib:rcore.obj
 0003:00009af8       glad_glGetProgramResourceLocation 0000000140095af8     raylib:rcore.obj
 0003:00009b00       glad_glGetProgramResourceLocationIndex 0000000140095b00     raylib:rcore.obj
 0003:00009b08       glad_glGetProgramResourceName 0000000140095b08     raylib:rcore.obj
 0003:00009b10       glad_glGetProgramResourceiv 0000000140095b10     raylib:rcore.obj
 0003:00009b18       glad_glGetProgramStageiv   0000000140095b18     raylib:rcore.obj
 0003:00009b20       glad_glGetProgramStringARB 0000000140095b20     raylib:rcore.obj
 0003:00009b28       glad_glGetProgramiv        0000000140095b28     raylib:rcore.obj
 0003:00009b30       glad_glGetProgramivARB     0000000140095b30     raylib:rcore.obj
 0003:00009b38       glad_glGetQueryBufferObjecti64v 0000000140095b38     raylib:rcore.obj
 0003:00009b40       glad_glGetQueryBufferObjectiv 0000000140095b40     raylib:rcore.obj
 0003:00009b48       glad_glGetQueryBufferObjectui64v 0000000140095b48     raylib:rcore.obj
 0003:00009b50       glad_glGetQueryBufferObjectuiv 0000000140095b50     raylib:rcore.obj
 0003:00009b58       glad_glGetQueryIndexediv   0000000140095b58     raylib:rcore.obj
 0003:00009b60       glad_glGetQueryObjecti64v  0000000140095b60     raylib:rcore.obj
 0003:00009b68       glad_glGetQueryObjectiv    0000000140095b68     raylib:rcore.obj
 0003:00009b70       glad_glGetQueryObjectivARB 0000000140095b70     raylib:rcore.obj
 0003:00009b78       glad_glGetQueryObjectui64v 0000000140095b78     raylib:rcore.obj
 0003:00009b80       glad_glGetQueryObjectuiv   0000000140095b80     raylib:rcore.obj
 0003:00009b88       glad_glGetQueryObjectuivARB 0000000140095b88     raylib:rcore.obj
 0003:00009b90       glad_glGetQueryiv          0000000140095b90     raylib:rcore.obj
 0003:00009b98       glad_glGetQueryivARB       0000000140095b98     raylib:rcore.obj
 0003:00009ba0       glad_glGetRenderbufferParameteriv 0000000140095ba0     raylib:rcore.obj
 0003:00009ba8       glad_glGetRenderbufferParameterivEXT 0000000140095ba8     raylib:rcore.obj
 0003:00009bb0       glad_glGetSamplerParameterIiv 0000000140095bb0     raylib:rcore.obj
 0003:00009bb8       glad_glGetSamplerParameterIuiv 0000000140095bb8     raylib:rcore.obj
 0003:00009bc0       glad_glGetSamplerParameterfv 0000000140095bc0     raylib:rcore.obj
 0003:00009bc8       glad_glGetSamplerParameteriv 0000000140095bc8     raylib:rcore.obj
 0003:00009bd0       glad_glGetShaderInfoLog    0000000140095bd0     raylib:rcore.obj
 0003:00009bd8       glad_glGetShaderPrecisionFormat 0000000140095bd8     raylib:rcore.obj
 0003:00009be0       glad_glGetShaderSource     0000000140095be0     raylib:rcore.obj
 0003:00009be8       glad_glGetShaderSourceARB  0000000140095be8     raylib:rcore.obj
 0003:00009bf0       glad_glGetShaderiv         0000000140095bf0     raylib:rcore.obj
 0003:00009bf8       glad_glGetString           0000000140095bf8     raylib:rcore.obj
 0003:00009c00       glad_glGetStringi          0000000140095c00     raylib:rcore.obj
 0003:00009c08       glad_glGetSubroutineIndex  0000000140095c08     raylib:rcore.obj
 0003:00009c10       glad_glGetSubroutineUniformLocation 0000000140095c10     raylib:rcore.obj
 0003:00009c18       glad_glGetSynciv           0000000140095c18     raylib:rcore.obj
 0003:00009c20       glad_glGetTexEnvxvOES      0000000140095c20     raylib:rcore.obj
 0003:00009c28       glad_glGetTexGenxvOES      0000000140095c28     raylib:rcore.obj
 0003:00009c30       glad_glGetTexImage         0000000140095c30     raylib:rcore.obj
 0003:00009c38       glad_glGetTexLevelParameterfv 0000000140095c38     raylib:rcore.obj
 0003:00009c40       glad_glGetTexLevelParameteriv 0000000140095c40     raylib:rcore.obj
 0003:00009c48       glad_glGetTexLevelParameterxvOES 0000000140095c48     raylib:rcore.obj
 0003:00009c50       glad_glGetTexParameterIiv  0000000140095c50     raylib:rcore.obj
 0003:00009c58       glad_glGetTexParameterIuiv 0000000140095c58     raylib:rcore.obj
 0003:00009c60       glad_glGetTexParameterfv   0000000140095c60     raylib:rcore.obj
 0003:00009c68       glad_glGetTexParameteriv   0000000140095c68     raylib:rcore.obj
 0003:00009c70       glad_glGetTexParameterxvOES 0000000140095c70     raylib:rcore.obj
 0003:00009c78       glad_glGetTextureImage     0000000140095c78     raylib:rcore.obj
 0003:00009c80       glad_glGetTextureLevelParameterfv 0000000140095c80     raylib:rcore.obj
 0003:00009c88       glad_glGetTextureLevelParameteriv 0000000140095c88     raylib:rcore.obj
 0003:00009c90       glad_glGetTextureParameterIiv 0000000140095c90     raylib:rcore.obj
 0003:00009c98       glad_glGetTextureParameterIuiv 0000000140095c98     raylib:rcore.obj
 0003:00009ca0       glad_glGetTextureParameterfv 0000000140095ca0     raylib:rcore.obj
 0003:00009ca8       glad_glGetTextureParameteriv 0000000140095ca8     raylib:rcore.obj
 0003:00009cb0       glad_glGetTextureSubImage  0000000140095cb0     raylib:rcore.obj
 0003:00009cb8       glad_glGetTransformFeedbackVarying 0000000140095cb8     raylib:rcore.obj
 0003:00009cc0       glad_glGetTransformFeedbacki64_v 0000000140095cc0     raylib:rcore.obj
 0003:00009cc8       glad_glGetTransformFeedbacki_v 0000000140095cc8     raylib:rcore.obj
 0003:00009cd0       glad_glGetTransformFeedbackiv 0000000140095cd0     raylib:rcore.obj
 0003:00009cd8       glad_glGetUniformBlockIndex 0000000140095cd8     raylib:rcore.obj
 0003:00009ce0       glad_glGetUniformIndices   0000000140095ce0     raylib:rcore.obj
 0003:00009ce8       glad_glGetUniformLocation  0000000140095ce8     raylib:rcore.obj
 0003:00009cf0       glad_glGetUniformLocationARB 0000000140095cf0     raylib:rcore.obj
 0003:00009cf8       glad_glGetUniformSubroutineuiv 0000000140095cf8     raylib:rcore.obj
 0003:00009d00       glad_glGetUniformdv        0000000140095d00     raylib:rcore.obj
 0003:00009d08       glad_glGetUniformfv        0000000140095d08     raylib:rcore.obj
 0003:00009d10       glad_glGetUniformfvARB     0000000140095d10     raylib:rcore.obj
 0003:00009d18       glad_glGetUniformi64vARB   0000000140095d18     raylib:rcore.obj
 0003:00009d20       glad_glGetUniformiv        0000000140095d20     raylib:rcore.obj
 0003:00009d28       glad_glGetUniformivARB     0000000140095d28     raylib:rcore.obj
 0003:00009d30       glad_glGetUniformui64vARB  0000000140095d30     raylib:rcore.obj
 0003:00009d38       glad_glGetUniformuiv       0000000140095d38     raylib:rcore.obj
 0003:00009d40       glad_glGetVertexArrayIndexed64iv 0000000140095d40     raylib:rcore.obj
 0003:00009d48       glad_glGetVertexArrayIndexediv 0000000140095d48     raylib:rcore.obj
 0003:00009d50       glad_glGetVertexArrayiv    0000000140095d50     raylib:rcore.obj
 0003:00009d58       glad_glGetVertexAttribIiv  0000000140095d58     raylib:rcore.obj
 0003:00009d60       glad_glGetVertexAttribIuiv 0000000140095d60     raylib:rcore.obj
 0003:00009d68       glad_glGetVertexAttribLdv  0000000140095d68     raylib:rcore.obj
 0003:00009d70       glad_glGetVertexAttribPointerv 0000000140095d70     raylib:rcore.obj
 0003:00009d78       glad_glGetVertexAttribPointervARB 0000000140095d78     raylib:rcore.obj
 0003:00009d80       glad_glGetVertexAttribdv   0000000140095d80     raylib:rcore.obj
 0003:00009d88       glad_glGetVertexAttribdvARB 0000000140095d88     raylib:rcore.obj
 0003:00009d90       glad_glGetVertexAttribfv   0000000140095d90     raylib:rcore.obj
 0003:00009d98       glad_glGetVertexAttribfvARB 0000000140095d98     raylib:rcore.obj
 0003:00009da0       glad_glGetVertexAttribiv   0000000140095da0     raylib:rcore.obj
 0003:00009da8       glad_glGetVertexAttribivARB 0000000140095da8     raylib:rcore.obj
 0003:00009db0       glad_glGetnUniformi64vARB  0000000140095db0     raylib:rcore.obj
 0003:00009db8       glad_glGetnUniformui64vARB 0000000140095db8     raylib:rcore.obj
 0003:00009dc0       glad_glHint                0000000140095dc0     raylib:rcore.obj
 0003:00009dc8       glad_glIndexxOES           0000000140095dc8     raylib:rcore.obj
 0003:00009dd0       glad_glIndexxvOES          0000000140095dd0     raylib:rcore.obj
 0003:00009dd8       glad_glInvalidateBufferData 0000000140095dd8     raylib:rcore.obj
 0003:00009de0       glad_glInvalidateBufferSubData 0000000140095de0     raylib:rcore.obj
 0003:00009de8       glad_glInvalidateFramebuffer 0000000140095de8     raylib:rcore.obj
 0003:00009df0       glad_glInvalidateNamedFramebufferData 0000000140095df0     raylib:rcore.obj
 0003:00009df8       glad_glInvalidateNamedFramebufferSubData 0000000140095df8     raylib:rcore.obj
 0003:00009e00       glad_glInvalidateSubFramebuffer 0000000140095e00     raylib:rcore.obj
 0003:00009e08       glad_glInvalidateTexImage  0000000140095e08     raylib:rcore.obj
 0003:00009e10       glad_glInvalidateTexSubImage 0000000140095e10     raylib:rcore.obj
 0003:00009e18       glad_glIsBuffer            0000000140095e18     raylib:rcore.obj
 0003:00009e20       glad_glIsBufferARB         0000000140095e20     raylib:rcore.obj
 0003:00009e28       glad_glIsEnabled           0000000140095e28     raylib:rcore.obj
 0003:00009e30       glad_glIsEnabledi          0000000140095e30     raylib:rcore.obj
 0003:00009e38       glad_glIsFramebuffer       0000000140095e38     raylib:rcore.obj
 0003:00009e40       glad_glIsFramebufferEXT    0000000140095e40     raylib:rcore.obj
 0003:00009e48       glad_glIsNamedStringARB    0000000140095e48     raylib:rcore.obj
 0003:00009e50       glad_glIsProgram           0000000140095e50     raylib:rcore.obj
 0003:00009e58       glad_glIsProgramARB        0000000140095e58     raylib:rcore.obj
 0003:00009e60       glad_glIsProgramPipeline   0000000140095e60     raylib:rcore.obj
 0003:00009e68       glad_glIsQuery             0000000140095e68     raylib:rcore.obj
 0003:00009e70       glad_glIsQueryARB          0000000140095e70     raylib:rcore.obj
 0003:00009e78       glad_glIsRenderbuffer      0000000140095e78     raylib:rcore.obj
 0003:00009e80       glad_glIsRenderbufferEXT   0000000140095e80     raylib:rcore.obj
 0003:00009e88       glad_glIsSampler           0000000140095e88     raylib:rcore.obj
 0003:00009e90       glad_glIsShader            0000000140095e90     raylib:rcore.obj
 0003:00009e98       glad_glIsSync              0000000140095e98     raylib:rcore.obj
 0003:00009ea0       glad_glIsTexture           0000000140095ea0     raylib:rcore.obj
 0003:00009ea8       glad_glIsTransformFeedback 0000000140095ea8     raylib:rcore.obj
 0003:00009eb0       glad_glIsVertexArray       0000000140095eb0     raylib:rcore.obj
 0003:00009eb8       glad_glLightModelxOES      0000000140095eb8     raylib:rcore.obj
 0003:00009ec0       glad_glLightModelxvOES     0000000140095ec0     raylib:rcore.obj
 0003:00009ec8       glad_glLightxOES           0000000140095ec8     raylib:rcore.obj
 0003:00009ed0       glad_glLightxvOES          0000000140095ed0     raylib:rcore.obj
 0003:00009ed8       glad_glLineWidth           0000000140095ed8     raylib:rcore.obj
 0003:00009ee0       glad_glLineWidthxOES       0000000140095ee0     raylib:rcore.obj
 0003:00009ee8       glad_glLinkProgram         0000000140095ee8     raylib:rcore.obj
 0003:00009ef0       glad_glLinkProgramARB      0000000140095ef0     raylib:rcore.obj
 0003:00009ef8       glad_glLoadMatrixxOES      0000000140095ef8     raylib:rcore.obj
 0003:00009f00       glad_glLoadTransposeMatrixdARB 0000000140095f00     raylib:rcore.obj
 0003:00009f08       glad_glLoadTransposeMatrixfARB 0000000140095f08     raylib:rcore.obj
 0003:00009f10       glad_glLoadTransposeMatrixxOES 0000000140095f10     raylib:rcore.obj
 0003:00009f18       glad_glLogicOp             0000000140095f18     raylib:rcore.obj
 0003:00009f20       glad_glMap1xOES            0000000140095f20     raylib:rcore.obj
 0003:00009f28       glad_glMap2xOES            0000000140095f28     raylib:rcore.obj
 0003:00009f30       glad_glMapBuffer           0000000140095f30     raylib:rcore.obj
 0003:00009f38       glad_glMapBufferARB        0000000140095f38     raylib:rcore.obj
 0003:00009f40       glad_glMapBufferRange      0000000140095f40     raylib:rcore.obj
 0003:00009f48       glad_glMapGrid1xOES        0000000140095f48     raylib:rcore.obj
 0003:00009f50       glad_glMapGrid2xOES        0000000140095f50     raylib:rcore.obj
 0003:00009f58       glad_glMapNamedBuffer      0000000140095f58     raylib:rcore.obj
 0003:00009f60       glad_glMapNamedBufferRange 0000000140095f60     raylib:rcore.obj
 0003:00009f68       glad_glMaterialxOES        0000000140095f68     raylib:rcore.obj
 0003:00009f70       glad_glMaterialxvOES       0000000140095f70     raylib:rcore.obj
 0003:00009f78       glad_glMemoryBarrier       0000000140095f78     raylib:rcore.obj
 0003:00009f80       glad_glMemoryBarrierByRegion 0000000140095f80     raylib:rcore.obj
 0003:00009f88       glad_glMinSampleShading    0000000140095f88     raylib:rcore.obj
 0003:00009f90       glad_glMinSampleShadingARB 0000000140095f90     raylib:rcore.obj
 0003:00009f98       glad_glMultMatrixxOES      0000000140095f98     raylib:rcore.obj
 0003:00009fa0       glad_glMultTransposeMatrixdARB 0000000140095fa0     raylib:rcore.obj
 0003:00009fa8       glad_glMultTransposeMatrixfARB 0000000140095fa8     raylib:rcore.obj
 0003:00009fb0       glad_glMultTransposeMatrixxOES 0000000140095fb0     raylib:rcore.obj
 0003:00009fb8       glad_glMultiDrawArrays     0000000140095fb8     raylib:rcore.obj
 0003:00009fc0       glad_glMultiDrawArraysIndirect 0000000140095fc0     raylib:rcore.obj
 0003:00009fc8       glad_glMultiDrawElements   0000000140095fc8     raylib:rcore.obj
 0003:00009fd0       glad_glMultiDrawElementsBaseVertex 0000000140095fd0     raylib:rcore.obj
 0003:00009fd8       glad_glMultiDrawElementsIndirect 0000000140095fd8     raylib:rcore.obj
 0003:00009fe0       glad_glMultiTexCoord1dARB  0000000140095fe0     raylib:rcore.obj
 0003:00009fe8       glad_glMultiTexCoord1dvARB 0000000140095fe8     raylib:rcore.obj
 0003:00009ff0       glad_glMultiTexCoord1fARB  0000000140095ff0     raylib:rcore.obj
 0003:00009ff8       glad_glMultiTexCoord1fvARB 0000000140095ff8     raylib:rcore.obj
 0003:0000a000       glad_glMultiTexCoord1iARB  0000000140096000     raylib:rcore.obj
 0003:0000a008       glad_glMultiTexCoord1ivARB 0000000140096008     raylib:rcore.obj
 0003:0000a010       glad_glMultiTexCoord1sARB  0000000140096010     raylib:rcore.obj
 0003:0000a018       glad_glMultiTexCoord1svARB 0000000140096018     raylib:rcore.obj
 0003:0000a020       glad_glMultiTexCoord1xOES  0000000140096020     raylib:rcore.obj
 0003:0000a028       glad_glMultiTexCoord1xvOES 0000000140096028     raylib:rcore.obj
 0003:0000a030       glad_glMultiTexCoord2dARB  0000000140096030     raylib:rcore.obj
 0003:0000a038       glad_glMultiTexCoord2dvARB 0000000140096038     raylib:rcore.obj
 0003:0000a040       glad_glMultiTexCoord2fARB  0000000140096040     raylib:rcore.obj
 0003:0000a048       glad_glMultiTexCoord2fvARB 0000000140096048     raylib:rcore.obj
 0003:0000a050       glad_glMultiTexCoord2iARB  0000000140096050     raylib:rcore.obj
 0003:0000a058       glad_glMultiTexCoord2ivARB 0000000140096058     raylib:rcore.obj
 0003:0000a060       glad_glMultiTexCoord2sARB  0000000140096060     raylib:rcore.obj
 0003:0000a068       glad_glMultiTexCoord2svARB 0000000140096068     raylib:rcore.obj
 0003:0000a070       glad_glMultiTexCoord2xOES  0000000140096070     raylib:rcore.obj
 0003:0000a078       glad_glMultiTexCoord2xvOES 0000000140096078     raylib:rcore.obj
 0003:0000a080       glad_glMultiTexCoord3dARB  0000000140096080     raylib:rcore.obj
 0003:0000a088       glad_glMultiTexCoord3dvARB 0000000140096088     raylib:rcore.obj
 0003:0000a090       glad_glMultiTexCoord3fARB  0000000140096090     raylib:rcore.obj
 0003:0000a098       glad_glMultiTexCoord3fvARB 0000000140096098     raylib:rcore.obj
 0003:0000a0a0       glad_glMultiTexCoord3iARB  00000001400960a0     raylib:rcore.obj
 0003:0000a0a8       glad_glMultiTexCoord3ivARB 00000001400960a8     raylib:rcore.obj
 0003:0000a0b0       glad_glMultiTexCoord3sARB  00000001400960b0     raylib:rcore.obj
 0003:0000a0b8       glad_glMultiTexCoord3svARB 00000001400960b8     raylib:rcore.obj
 0003:0000a0c0       glad_glMultiTexCoord3xOES  00000001400960c0     raylib:rcore.obj
 0003:0000a0c8       glad_glMultiTexCoord3xvOES 00000001400960c8     raylib:rcore.obj
 0003:0000a0d0       glad_glMultiTexCoord4dARB  00000001400960d0     raylib:rcore.obj
 0003:0000a0d8       glad_glMultiTexCoord4dvARB 00000001400960d8     raylib:rcore.obj
 0003:0000a0e0       glad_glMultiTexCoord4fARB  00000001400960e0     raylib:rcore.obj
 0003:0000a0e8       glad_glMultiTexCoord4fvARB 00000001400960e8     raylib:rcore.obj
 0003:0000a0f0       glad_glMultiTexCoord4iARB  00000001400960f0     raylib:rcore.obj
 0003:0000a0f8       glad_glMultiTexCoord4ivARB 00000001400960f8     raylib:rcore.obj
 0003:0000a100       glad_glMultiTexCoord4sARB  0000000140096100     raylib:rcore.obj
 0003:0000a108       glad_glMultiTexCoord4svARB 0000000140096108     raylib:rcore.obj
 0003:0000a110       glad_glMultiTexCoord4xOES  0000000140096110     raylib:rcore.obj
 0003:0000a118       glad_glMultiTexCoord4xvOES 0000000140096118     raylib:rcore.obj
 0003:0000a120       glad_glNamedBufferData     0000000140096120     raylib:rcore.obj
 0003:0000a128       glad_glNamedBufferStorage  0000000140096128     raylib:rcore.obj
 0003:0000a130       glad_glNamedBufferSubData  0000000140096130     raylib:rcore.obj
 0003:0000a138       glad_glNamedFramebufferDrawBuffer 0000000140096138     raylib:rcore.obj
 0003:0000a140       glad_glNamedFramebufferDrawBuffers 0000000140096140     raylib:rcore.obj
 0003:0000a148       glad_glNamedFramebufferParameteri 0000000140096148     raylib:rcore.obj
 0003:0000a150       glad_glNamedFramebufferReadBuffer 0000000140096150     raylib:rcore.obj
 0003:0000a158       glad_glNamedFramebufferRenderbuffer 0000000140096158     raylib:rcore.obj
 0003:0000a160       glad_glNamedFramebufferSampleLocationsfvARB 0000000140096160     raylib:rcore.obj
 0003:0000a168       glad_glNamedFramebufferTexture 0000000140096168     raylib:rcore.obj
 0003:0000a170       glad_glNamedFramebufferTextureLayer 0000000140096170     raylib:rcore.obj
 0003:0000a178       glad_glNamedRenderbufferStorage 0000000140096178     raylib:rcore.obj
 0003:0000a180       glad_glNamedRenderbufferStorageMultisample 0000000140096180     raylib:rcore.obj
 0003:0000a188       glad_glNamedStringARB      0000000140096188     raylib:rcore.obj
 0003:0000a190       glad_glNormal3xOES         0000000140096190     raylib:rcore.obj
 0003:0000a198       glad_glNormal3xvOES        0000000140096198     raylib:rcore.obj
 0003:0000a1a0       glad_glObjectLabel         00000001400961a0     raylib:rcore.obj
 0003:0000a1a8       glad_glObjectPtrLabel      00000001400961a8     raylib:rcore.obj
 0003:0000a1b0       glad_glOrthoxOES           00000001400961b0     raylib:rcore.obj
 0003:0000a1b8       glad_glPassThroughxOES     00000001400961b8     raylib:rcore.obj
 0003:0000a1c0       glad_glPatchParameterfv    00000001400961c0     raylib:rcore.obj
 0003:0000a1c8       glad_glPatchParameteri     00000001400961c8     raylib:rcore.obj
 0003:0000a1d0       glad_glPauseTransformFeedback 00000001400961d0     raylib:rcore.obj
 0003:0000a1d8       glad_glPixelMapx           00000001400961d8     raylib:rcore.obj
 0003:0000a1e0       glad_glPixelStoref         00000001400961e0     raylib:rcore.obj
 0003:0000a1e8       glad_glPixelStorei         00000001400961e8     raylib:rcore.obj
 0003:0000a1f0       glad_glPixelStorex         00000001400961f0     raylib:rcore.obj
 0003:0000a1f8       glad_glPixelTransferxOES   00000001400961f8     raylib:rcore.obj
 0003:0000a200       glad_glPixelZoomxOES       0000000140096200     raylib:rcore.obj
 0003:0000a208       glad_glPointParameterf     0000000140096208     raylib:rcore.obj
 0003:0000a210       glad_glPointParameterfv    0000000140096210     raylib:rcore.obj
 0003:0000a218       glad_glPointParameteri     0000000140096218     raylib:rcore.obj
 0003:0000a220       glad_glPointParameteriv    0000000140096220     raylib:rcore.obj
 0003:0000a228       glad_glPointParameterxvOES 0000000140096228     raylib:rcore.obj
 0003:0000a230       glad_glPointSize           0000000140096230     raylib:rcore.obj
 0003:0000a238       glad_glPointSizexOES       0000000140096238     raylib:rcore.obj
 0003:0000a240       glad_glPolygonMode         0000000140096240     raylib:rcore.obj
 0003:0000a248       glad_glPolygonOffset       0000000140096248     raylib:rcore.obj
 0003:0000a250       glad_glPolygonOffsetxOES   0000000140096250     raylib:rcore.obj
 0003:0000a258       glad_glPopDebugGroup       0000000140096258     raylib:rcore.obj
 0003:0000a260       glad_glPrimitiveBoundingBoxARB 0000000140096260     raylib:rcore.obj
 0003:0000a268       glad_glPrimitiveRestartIndex 0000000140096268     raylib:rcore.obj
 0003:0000a270       glad_glPrioritizeTexturesxOES 0000000140096270     raylib:rcore.obj
 0003:0000a278       glad_glProgramBinary       0000000140096278     raylib:rcore.obj
 0003:0000a280       glad_glProgramEnvParameter4dARB 0000000140096280     raylib:rcore.obj
 0003:0000a288       glad_glProgramEnvParameter4dvARB 0000000140096288     raylib:rcore.obj
 0003:0000a290       glad_glProgramEnvParameter4fARB 0000000140096290     raylib:rcore.obj
 0003:0000a298       glad_glProgramEnvParameter4fvARB 0000000140096298     raylib:rcore.obj
 0003:0000a2a0       glad_glProgramLocalParameter4dARB 00000001400962a0     raylib:rcore.obj
 0003:0000a2a8       glad_glProgramLocalParameter4dvARB 00000001400962a8     raylib:rcore.obj
 0003:0000a2b0       glad_glProgramLocalParameter4fARB 00000001400962b0     raylib:rcore.obj
 0003:0000a2b8       glad_glProgramLocalParameter4fvARB 00000001400962b8     raylib:rcore.obj
 0003:0000a2c0       glad_glProgramParameteri   00000001400962c0     raylib:rcore.obj
 0003:0000a2c8       glad_glProgramParameteriARB 00000001400962c8     raylib:rcore.obj
 0003:0000a2d0       glad_glProgramStringARB    00000001400962d0     raylib:rcore.obj
 0003:0000a2d8       glad_glProgramUniform1d    00000001400962d8     raylib:rcore.obj
 0003:0000a2e0       glad_glProgramUniform1dv   00000001400962e0     raylib:rcore.obj
 0003:0000a2e8       glad_glProgramUniform1f    00000001400962e8     raylib:rcore.obj
 0003:0000a2f0       glad_glProgramUniform1fv   00000001400962f0     raylib:rcore.obj
 0003:0000a2f8       glad_glProgramUniform1i    00000001400962f8     raylib:rcore.obj
 0003:0000a300       glad_glProgramUniform1i64ARB 0000000140096300     raylib:rcore.obj
 0003:0000a308       glad_glProgramUniform1i64vARB 0000000140096308     raylib:rcore.obj
 0003:0000a310       glad_glProgramUniform1iv   0000000140096310     raylib:rcore.obj
 0003:0000a318       glad_glProgramUniform1ui   0000000140096318     raylib:rcore.obj
 0003:0000a320       glad_glProgramUniform1ui64ARB 0000000140096320     raylib:rcore.obj
 0003:0000a328       glad_glProgramUniform1ui64vARB 0000000140096328     raylib:rcore.obj
 0003:0000a330       glad_glProgramUniform1uiv  0000000140096330     raylib:rcore.obj
 0003:0000a338       glad_glProgramUniform2d    0000000140096338     raylib:rcore.obj
 0003:0000a340       glad_glProgramUniform2dv   0000000140096340     raylib:rcore.obj
 0003:0000a348       glad_glProgramUniform2f    0000000140096348     raylib:rcore.obj
 0003:0000a350       glad_glProgramUniform2fv   0000000140096350     raylib:rcore.obj
 0003:0000a358       glad_glProgramUniform2i    0000000140096358     raylib:rcore.obj
 0003:0000a360       glad_glProgramUniform2i64ARB 0000000140096360     raylib:rcore.obj
 0003:0000a368       glad_glProgramUniform2i64vARB 0000000140096368     raylib:rcore.obj
 0003:0000a370       glad_glProgramUniform2iv   0000000140096370     raylib:rcore.obj
 0003:0000a378       glad_glProgramUniform2ui   0000000140096378     raylib:rcore.obj
 0003:0000a380       glad_glProgramUniform2ui64ARB 0000000140096380     raylib:rcore.obj
 0003:0000a388       glad_glProgramUniform2ui64vARB 0000000140096388     raylib:rcore.obj
 0003:0000a390       glad_glProgramUniform2uiv  0000000140096390     raylib:rcore.obj
 0003:0000a398       glad_glProgramUniform3d    0000000140096398     raylib:rcore.obj
 0003:0000a3a0       glad_glProgramUniform3dv   00000001400963a0     raylib:rcore.obj
 0003:0000a3a8       glad_glProgramUniform3f    00000001400963a8     raylib:rcore.obj
 0003:0000a3b0       glad_glProgramUniform3fv   00000001400963b0     raylib:rcore.obj
 0003:0000a3b8       glad_glProgramUniform3i    00000001400963b8     raylib:rcore.obj
 0003:0000a3c0       glad_glProgramUniform3i64ARB 00000001400963c0     raylib:rcore.obj
 0003:0000a3c8       glad_glProgramUniform3i64vARB 00000001400963c8     raylib:rcore.obj
 0003:0000a3d0       glad_glProgramUniform3iv   00000001400963d0     raylib:rcore.obj
 0003:0000a3d8       glad_glProgramUniform3ui   00000001400963d8     raylib:rcore.obj
 0003:0000a3e0       glad_glProgramUniform3ui64ARB 00000001400963e0     raylib:rcore.obj
 0003:0000a3e8       glad_glProgramUniform3ui64vARB 00000001400963e8     raylib:rcore.obj
 0003:0000a3f0       glad_glProgramUniform3uiv  00000001400963f0     raylib:rcore.obj
 0003:0000a3f8       glad_glProgramUniform4d    00000001400963f8     raylib:rcore.obj
 0003:0000a400       glad_glProgramUniform4dv   0000000140096400     raylib:rcore.obj
 0003:0000a408       glad_glProgramUniform4f    0000000140096408     raylib:rcore.obj
 0003:0000a410       glad_glProgramUniform4fv   0000000140096410     raylib:rcore.obj
 0003:0000a418       glad_glProgramUniform4i    0000000140096418     raylib:rcore.obj
 0003:0000a420       glad_glProgramUniform4i64ARB 0000000140096420     raylib:rcore.obj
 0003:0000a428       glad_glProgramUniform4i64vARB 0000000140096428     raylib:rcore.obj
 0003:0000a430       glad_glProgramUniform4iv   0000000140096430     raylib:rcore.obj
 0003:0000a438       glad_glProgramUniform4ui   0000000140096438     raylib:rcore.obj
 0003:0000a440       glad_glProgramUniform4ui64ARB 0000000140096440     raylib:rcore.obj
 0003:0000a448       glad_glProgramUniform4ui64vARB 0000000140096448     raylib:rcore.obj
 0003:0000a450       glad_glProgramUniform4uiv  0000000140096450     raylib:rcore.obj
 0003:0000a458       glad_glProgramUniformMatrix2dv 0000000140096458     raylib:rcore.obj
 0003:0000a460       glad_glProgramUniformMatrix2fv 0000000140096460     raylib:rcore.obj
 0003:0000a468       glad_glProgramUniformMatrix2x3dv 0000000140096468     raylib:rcore.obj
 0003:0000a470       glad_glProgramUniformMatrix2x3fv 0000000140096470     raylib:rcore.obj
 0003:0000a478       glad_glProgramUniformMatrix2x4dv 0000000140096478     raylib:rcore.obj
 0003:0000a480       glad_glProgramUniformMatrix2x4fv 0000000140096480     raylib:rcore.obj
 0003:0000a488       glad_glProgramUniformMatrix3dv 0000000140096488     raylib:rcore.obj
 0003:0000a490       glad_glProgramUniformMatrix3fv 0000000140096490     raylib:rcore.obj
 0003:0000a498       glad_glProgramUniformMatrix3x2dv 0000000140096498     raylib:rcore.obj
 0003:0000a4a0       glad_glProgramUniformMatrix3x2fv 00000001400964a0     raylib:rcore.obj
 0003:0000a4a8       glad_glProgramUniformMatrix3x4dv 00000001400964a8     raylib:rcore.obj
 0003:0000a4b0       glad_glProgramUniformMatrix3x4fv 00000001400964b0     raylib:rcore.obj
 0003:0000a4b8       glad_glProgramUniformMatrix4dv 00000001400964b8     raylib:rcore.obj
 0003:0000a4c0       glad_glProgramUniformMatrix4fv 00000001400964c0     raylib:rcore.obj
 0003:0000a4c8       glad_glProgramUniformMatrix4x2dv 00000001400964c8     raylib:rcore.obj
 0003:0000a4d0       glad_glProgramUniformMatrix4x2fv 00000001400964d0     raylib:rcore.obj
 0003:0000a4d8       glad_glProgramUniformMatrix4x3dv 00000001400964d8     raylib:rcore.obj
 0003:0000a4e0       glad_glProgramUniformMatrix4x3fv 00000001400964e0     raylib:rcore.obj
 0003:0000a4e8       glad_glProvokingVertex     00000001400964e8     raylib:rcore.obj
 0003:0000a4f0       glad_glPushDebugGroup      00000001400964f0     raylib:rcore.obj
 0003:0000a4f8       glad_glQueryCounter        00000001400964f8     raylib:rcore.obj
 0003:0000a500       glad_glRasterPos2xOES      0000000140096500     raylib:rcore.obj
 0003:0000a508       glad_glRasterPos2xvOES     0000000140096508     raylib:rcore.obj
 0003:0000a510       glad_glRasterPos3xOES      0000000140096510     raylib:rcore.obj
 0003:0000a518       glad_glRasterPos3xvOES     0000000140096518     raylib:rcore.obj
 0003:0000a520       glad_glRasterPos4xOES      0000000140096520     raylib:rcore.obj
 0003:0000a528       glad_glRasterPos4xvOES     0000000140096528     raylib:rcore.obj
 0003:0000a530       glad_glReadBuffer          0000000140096530     raylib:rcore.obj
 0003:0000a538       glad_glReadPixels          0000000140096538     raylib:rcore.obj
 0003:0000a540       glad_glRectxOES            0000000140096540     raylib:rcore.obj
 0003:0000a548       glad_glRectxvOES           0000000140096548     raylib:rcore.obj
 0003:0000a550       glad_glReleaseShaderCompiler 0000000140096550     raylib:rcore.obj
 0003:0000a558       glad_glRenderbufferStorage 0000000140096558     raylib:rcore.obj
 0003:0000a560       glad_glRenderbufferStorageEXT 0000000140096560     raylib:rcore.obj
 0003:0000a568       glad_glRenderbufferStorageMultisample 0000000140096568     raylib:rcore.obj
 0003:0000a570       glad_glRenderbufferStorageMultisampleEXT 0000000140096570     raylib:rcore.obj
 0003:0000a578       glad_glResumeTransformFeedback 0000000140096578     raylib:rcore.obj
 0003:0000a580       glad_glRotatexOES          0000000140096580     raylib:rcore.obj
 0003:0000a588       glad_glSampleCoverage      0000000140096588     raylib:rcore.obj
 0003:0000a590       glad_glSampleCoverageARB   0000000140096590     raylib:rcore.obj
 0003:0000a598       glad_glSampleMaski         0000000140096598     raylib:rcore.obj
 0003:0000a5a0       glad_glSamplerParameterIiv 00000001400965a0     raylib:rcore.obj
 0003:0000a5a8       glad_glSamplerParameterIuiv 00000001400965a8     raylib:rcore.obj
 0003:0000a5b0       glad_glSamplerParameterf   00000001400965b0     raylib:rcore.obj
 0003:0000a5b8       glad_glSamplerParameterfv  00000001400965b8     raylib:rcore.obj
 0003:0000a5c0       glad_glSamplerParameteri   00000001400965c0     raylib:rcore.obj
 0003:0000a5c8       glad_glSamplerParameteriv  00000001400965c8     raylib:rcore.obj
 0003:0000a5d0       glad_glScalexOES           00000001400965d0     raylib:rcore.obj
 0003:0000a5d8       glad_glScissor             00000001400965d8     raylib:rcore.obj
 0003:0000a5e0       glad_glScissorArrayv       00000001400965e0     raylib:rcore.obj
 0003:0000a5e8       glad_glScissorIndexed      00000001400965e8     raylib:rcore.obj
 0003:0000a5f0       glad_glScissorIndexedv     00000001400965f0     raylib:rcore.obj
 0003:0000a5f8       glad_glShaderBinary        00000001400965f8     raylib:rcore.obj
 0003:0000a600       glad_glShaderSource        0000000140096600     raylib:rcore.obj
 0003:0000a608       glad_glShaderSourceARB     0000000140096608     raylib:rcore.obj
 0003:0000a610       glad_glShaderStorageBlockBinding 0000000140096610     raylib:rcore.obj
 0003:0000a618       glad_glSpecializeShaderARB 0000000140096618     raylib:rcore.obj
 0003:0000a620       glad_glStencilFunc         0000000140096620     raylib:rcore.obj
 0003:0000a628       glad_glStencilFuncSeparate 0000000140096628     raylib:rcore.obj
 0003:0000a630       glad_glStencilMask         0000000140096630     raylib:rcore.obj
 0003:0000a638       glad_glStencilMaskSeparate 0000000140096638     raylib:rcore.obj
 0003:0000a640       glad_glStencilOp           0000000140096640     raylib:rcore.obj
 0003:0000a648       glad_glStencilOpSeparate   0000000140096648     raylib:rcore.obj
 0003:0000a650       glad_glTexBuffer           0000000140096650     raylib:rcore.obj
 0003:0000a658       glad_glTexBufferRange      0000000140096658     raylib:rcore.obj
 0003:0000a660       glad_glTexCoord1xOES       0000000140096660     raylib:rcore.obj
 0003:0000a668       glad_glTexCoord1xvOES      0000000140096668     raylib:rcore.obj
 0003:0000a670       glad_glTexCoord2xOES       0000000140096670     raylib:rcore.obj
 0003:0000a678       glad_glTexCoord2xvOES      0000000140096678     raylib:rcore.obj
 0003:0000a680       glad_glTexCoord3xOES       0000000140096680     raylib:rcore.obj
 0003:0000a688       glad_glTexCoord3xvOES      0000000140096688     raylib:rcore.obj
 0003:0000a690       glad_glTexCoord4xOES       0000000140096690     raylib:rcore.obj
 0003:0000a698       glad_glTexCoord4xvOES      0000000140096698     raylib:rcore.obj
 0003:0000a6a0       glad_glTexEnvxOES          00000001400966a0     raylib:rcore.obj
 0003:0000a6a8       glad_glTexEnvxvOES         00000001400966a8     raylib:rcore.obj
 0003:0000a6b0       glad_glTexGenxOES          00000001400966b0     raylib:rcore.obj
 0003:0000a6b8       glad_glTexGenxvOES         00000001400966b8     raylib:rcore.obj
 0003:0000a6c0       glad_glTexImage1D          00000001400966c0     raylib:rcore.obj
 0003:0000a6c8       glad_glTexImage2D          00000001400966c8     raylib:rcore.obj
 0003:0000a6d0       glad_glTexImage2DMultisample 00000001400966d0     raylib:rcore.obj
 0003:0000a6d8       glad_glTexImage3D          00000001400966d8     raylib:rcore.obj
 0003:0000a6e0       glad_glTexImage3DMultisample 00000001400966e0     raylib:rcore.obj
 0003:0000a6e8       glad_glTexParameterIiv     00000001400966e8     raylib:rcore.obj
 0003:0000a6f0       glad_glTexParameterIuiv    00000001400966f0     raylib:rcore.obj
 0003:0000a6f8       glad_glTexParameterf       00000001400966f8     raylib:rcore.obj
 0003:0000a700       glad_glTexParameterfv      0000000140096700     raylib:rcore.obj
 0003:0000a708       glad_glTexParameteri       0000000140096708     raylib:rcore.obj
 0003:0000a710       glad_glTexParameteriv      0000000140096710     raylib:rcore.obj
 0003:0000a718       glad_glTexParameterxOES    0000000140096718     raylib:rcore.obj
 0003:0000a720       glad_glTexParameterxvOES   0000000140096720     raylib:rcore.obj
 0003:0000a728       glad_glTexStorage1D        0000000140096728     raylib:rcore.obj
 0003:0000a730       glad_glTexStorage2D        0000000140096730     raylib:rcore.obj
 0003:0000a738       glad_glTexStorage2DMultisample 0000000140096738     raylib:rcore.obj
 0003:0000a740       glad_glTexStorage3D        0000000140096740     raylib:rcore.obj
 0003:0000a748       glad_glTexStorage3DMultisample 0000000140096748     raylib:rcore.obj
 0003:0000a750       glad_glTexSubImage1D       0000000140096750     raylib:rcore.obj
 0003:0000a758       glad_glTexSubImage2D       0000000140096758     raylib:rcore.obj
 0003:0000a760       glad_glTexSubImage3D       0000000140096760     raylib:rcore.obj
 0003:0000a768       glad_glTextureBuffer       0000000140096768     raylib:rcore.obj
 0003:0000a770       glad_glTextureBufferRange  0000000140096770     raylib:rcore.obj
 0003:0000a778       glad_glTextureParameterIiv 0000000140096778     raylib:rcore.obj
 0003:0000a780       glad_glTextureParameterIuiv 0000000140096780     raylib:rcore.obj
 0003:0000a788       glad_glTextureParameterf   0000000140096788     raylib:rcore.obj
 0003:0000a790       glad_glTextureParameterfv  0000000140096790     raylib:rcore.obj
 0003:0000a798       glad_glTextureParameteri   0000000140096798     raylib:rcore.obj
 0003:0000a7a0       glad_glTextureParameteriv  00000001400967a0     raylib:rcore.obj
 0003:0000a7a8       glad_glTextureStorage1D    00000001400967a8     raylib:rcore.obj
 0003:0000a7b0       glad_glTextureStorage2D    00000001400967b0     raylib:rcore.obj
 0003:0000a7b8       glad_glTextureStorage2DMultisample 00000001400967b8     raylib:rcore.obj
 0003:0000a7c0       glad_glTextureStorage3D    00000001400967c0     raylib:rcore.obj
 0003:0000a7c8       glad_glTextureStorage3DMultisample 00000001400967c8     raylib:rcore.obj
 0003:0000a7d0       glad_glTextureSubImage1D   00000001400967d0     raylib:rcore.obj
 0003:0000a7d8       glad_glTextureSubImage2D   00000001400967d8     raylib:rcore.obj
 0003:0000a7e0       glad_glTextureSubImage3D   00000001400967e0     raylib:rcore.obj
 0003:0000a7e8       glad_glTextureView         00000001400967e8     raylib:rcore.obj
 0003:0000a7f0       glad_glTransformFeedbackBufferBase 00000001400967f0     raylib:rcore.obj
 0003:0000a7f8       glad_glTransformFeedbackBufferRange 00000001400967f8     raylib:rcore.obj
 0003:0000a800       glad_glTransformFeedbackVaryings 0000000140096800     raylib:rcore.obj
 0003:0000a808       glad_glTranslatexOES       0000000140096808     raylib:rcore.obj
 0003:0000a810       glad_glUniform1d           0000000140096810     raylib:rcore.obj
 0003:0000a818       glad_glUniform1dv          0000000140096818     raylib:rcore.obj
 0003:0000a820       glad_glUniform1f           0000000140096820     raylib:rcore.obj
 0003:0000a828       glad_glUniform1fARB        0000000140096828     raylib:rcore.obj
 0003:0000a830       glad_glUniform1fv          0000000140096830     raylib:rcore.obj
 0003:0000a838       glad_glUniform1fvARB       0000000140096838     raylib:rcore.obj
 0003:0000a840       glad_glUniform1i           0000000140096840     raylib:rcore.obj
 0003:0000a848       glad_glUniform1i64ARB      0000000140096848     raylib:rcore.obj
 0003:0000a850       glad_glUniform1i64vARB     0000000140096850     raylib:rcore.obj
 0003:0000a858       glad_glUniform1iARB        0000000140096858     raylib:rcore.obj
 0003:0000a860       glad_glUniform1iv          0000000140096860     raylib:rcore.obj
 0003:0000a868       glad_glUniform1ivARB       0000000140096868     raylib:rcore.obj
 0003:0000a870       glad_glUniform1ui          0000000140096870     raylib:rcore.obj
 0003:0000a878       glad_glUniform1ui64ARB     0000000140096878     raylib:rcore.obj
 0003:0000a880       glad_glUniform1ui64vARB    0000000140096880     raylib:rcore.obj
 0003:0000a888       glad_glUniform1uiv         0000000140096888     raylib:rcore.obj
 0003:0000a890       glad_glUniform2d           0000000140096890     raylib:rcore.obj
 0003:0000a898       glad_glUniform2dv          0000000140096898     raylib:rcore.obj
 0003:0000a8a0       glad_glUniform2f           00000001400968a0     raylib:rcore.obj
 0003:0000a8a8       glad_glUniform2fARB        00000001400968a8     raylib:rcore.obj
 0003:0000a8b0       glad_glUniform2fv          00000001400968b0     raylib:rcore.obj
 0003:0000a8b8       glad_glUniform2fvARB       00000001400968b8     raylib:rcore.obj
 0003:0000a8c0       glad_glUniform2i           00000001400968c0     raylib:rcore.obj
 0003:0000a8c8       glad_glUniform2i64ARB      00000001400968c8     raylib:rcore.obj
 0003:0000a8d0       glad_glUniform2i64vARB     00000001400968d0     raylib:rcore.obj
 0003:0000a8d8       glad_glUniform2iARB        00000001400968d8     raylib:rcore.obj
 0003:0000a8e0       glad_glUniform2iv          00000001400968e0     raylib:rcore.obj
 0003:0000a8e8       glad_glUniform2ivARB       00000001400968e8     raylib:rcore.obj
 0003:0000a8f0       glad_glUniform2ui          00000001400968f0     raylib:rcore.obj
 0003:0000a8f8       glad_glUniform2ui64ARB     00000001400968f8     raylib:rcore.obj
 0003:0000a900       glad_glUniform2ui64vARB    0000000140096900     raylib:rcore.obj
 0003:0000a908       glad_glUniform2uiv         0000000140096908     raylib:rcore.obj
 0003:0000a910       glad_glUniform3d           0000000140096910     raylib:rcore.obj
 0003:0000a918       glad_glUniform3dv          0000000140096918     raylib:rcore.obj
 0003:0000a920       glad_glUniform3f           0000000140096920     raylib:rcore.obj
 0003:0000a928       glad_glUniform3fARB        0000000140096928     raylib:rcore.obj
 0003:0000a930       glad_glUniform3fv          0000000140096930     raylib:rcore.obj
 0003:0000a938       glad_glUniform3fvARB       0000000140096938     raylib:rcore.obj
 0003:0000a940       glad_glUniform3i           0000000140096940     raylib:rcore.obj
 0003:0000a948       glad_glUniform3i64ARB      0000000140096948     raylib:rcore.obj
 0003:0000a950       glad_glUniform3i64vARB     0000000140096950     raylib:rcore.obj
 0003:0000a958       glad_glUniform3iARB        0000000140096958     raylib:rcore.obj
 0003:0000a960       glad_glUniform3iv          0000000140096960     raylib:rcore.obj
 0003:0000a968       glad_glUniform3ivARB       0000000140096968     raylib:rcore.obj
 0003:0000a970       glad_glUniform3ui          0000000140096970     raylib:rcore.obj
 0003:0000a978       glad_glUniform3ui64ARB     0000000140096978     raylib:rcore.obj
 0003:0000a980       glad_glUniform3ui64vARB    0000000140096980     raylib:rcore.obj
 0003:0000a988       glad_glUniform3uiv         0000000140096988     raylib:rcore.obj
 0003:0000a990       glad_glUniform4d           0000000140096990     raylib:rcore.obj
 0003:0000a998       glad_glUniform4dv          0000000140096998     raylib:rcore.obj
 0003:0000a9a0       glad_glUniform4f           00000001400969a0     raylib:rcore.obj
 0003:0000a9a8       glad_glUniform4fARB        00000001400969a8     raylib:rcore.obj
 0003:0000a9b0       glad_glUniform4fv          00000001400969b0     raylib:rcore.obj
 0003:0000a9b8       glad_glUniform4fvARB       00000001400969b8     raylib:rcore.obj
 0003:0000a9c0       glad_glUniform4i           00000001400969c0     raylib:rcore.obj
 0003:0000a9c8       glad_glUniform4i64ARB      00000001400969c8     raylib:rcore.obj
 0003:0000a9d0       glad_glUniform4i64vARB     00000001400969d0     raylib:rcore.obj
 0003:0000a9d8       glad_glUniform4iARB        00000001400969d8     raylib:rcore.obj
 0003:0000a9e0       glad_glUniform4iv          00000001400969e0     raylib:rcore.obj
 0003:0000a9e8       glad_glUniform4ivARB       00000001400969e8     raylib:rcore.obj
 0003:0000a9f0       glad_glUniform4ui          00000001400969f0     raylib:rcore.obj
 0003:0000a9f8       glad_glUniform4ui64ARB     00000001400969f8     raylib:rcore.obj
 0003:0000aa00       glad_glUniform4ui64vARB    0000000140096a00     raylib:rcore.obj
 0003:0000aa08       glad_glUniform4uiv         0000000140096a08     raylib:rcore.obj
 0003:0000aa10       glad_glUniformBlockBinding 0000000140096a10     raylib:rcore.obj
 0003:0000aa18       glad_glUniformMatrix2dv    0000000140096a18     raylib:rcore.obj
 0003:0000aa20       glad_glUniformMatrix2fv    0000000140096a20     raylib:rcore.obj
 0003:0000aa28       glad_glUniformMatrix2fvARB 0000000140096a28     raylib:rcore.obj
 0003:0000aa30       glad_glUniformMatrix2x3dv  0000000140096a30     raylib:rcore.obj
 0003:0000aa38       glad_glUniformMatrix2x3fv  0000000140096a38     raylib:rcore.obj
 0003:0000aa40       glad_glUniformMatrix2x4dv  0000000140096a40     raylib:rcore.obj
 0003:0000aa48       glad_glUniformMatrix2x4fv  0000000140096a48     raylib:rcore.obj
 0003:0000aa50       glad_glUniformMatrix3dv    0000000140096a50     raylib:rcore.obj
 0003:0000aa58       glad_glUniformMatrix3fv    0000000140096a58     raylib:rcore.obj
 0003:0000aa60       glad_glUniformMatrix3fvARB 0000000140096a60     raylib:rcore.obj
 0003:0000aa68       glad_glUniformMatrix3x2dv  0000000140096a68     raylib:rcore.obj
 0003:0000aa70       glad_glUniformMatrix3x2fv  0000000140096a70     raylib:rcore.obj
 0003:0000aa78       glad_glUniformMatrix3x4dv  0000000140096a78     raylib:rcore.obj
 0003:0000aa80       glad_glUniformMatrix3x4fv  0000000140096a80     raylib:rcore.obj
 0003:0000aa88       glad_glUniformMatrix4dv    0000000140096a88     raylib:rcore.obj
 0003:0000aa90       glad_glUniformMatrix4fv    0000000140096a90     raylib:rcore.obj
 0003:0000aa98       glad_glUniformMatrix4fvARB 0000000140096a98     raylib:rcore.obj
 0003:0000aaa0       glad_glUniformMatrix4x2dv  0000000140096aa0     raylib:rcore.obj
 0003:0000aaa8       glad_glUniformMatrix4x2fv  0000000140096aa8     raylib:rcore.obj
 0003:0000aab0       glad_glUniformMatrix4x3dv  0000000140096ab0     raylib:rcore.obj
 0003:0000aab8       glad_glUniformMatrix4x3fv  0000000140096ab8     raylib:rcore.obj
 0003:0000aac0       glad_glUniformSubroutinesuiv 0000000140096ac0     raylib:rcore.obj
 0003:0000aac8       glad_glUnmapBuffer         0000000140096ac8     raylib:rcore.obj
 0003:0000aad0       glad_glUnmapBufferARB      0000000140096ad0     raylib:rcore.obj
 0003:0000aad8       glad_glUnmapNamedBuffer    0000000140096ad8     raylib:rcore.obj
 0003:0000aae0       glad_glUseProgram          0000000140096ae0     raylib:rcore.obj
 0003:0000aae8       glad_glUseProgramObjectARB 0000000140096ae8     raylib:rcore.obj
 0003:0000aaf0       glad_glUseProgramStages    0000000140096af0     raylib:rcore.obj
 0003:0000aaf8       glad_glValidateProgram     0000000140096af8     raylib:rcore.obj
 0003:0000ab00       glad_glValidateProgramARB  0000000140096b00     raylib:rcore.obj
 0003:0000ab08       glad_glValidateProgramPipeline 0000000140096b08     raylib:rcore.obj
 0003:0000ab10       glad_glVertex2xOES         0000000140096b10     raylib:rcore.obj
 0003:0000ab18       glad_glVertex2xvOES        0000000140096b18     raylib:rcore.obj
 0003:0000ab20       glad_glVertex3xOES         0000000140096b20     raylib:rcore.obj
 0003:0000ab28       glad_glVertex3xvOES        0000000140096b28     raylib:rcore.obj
 0003:0000ab30       glad_glVertex4xOES         0000000140096b30     raylib:rcore.obj
 0003:0000ab38       glad_glVertex4xvOES        0000000140096b38     raylib:rcore.obj
 0003:0000ab40       glad_glVertexArrayAttribBinding 0000000140096b40     raylib:rcore.obj
 0003:0000ab48       glad_glVertexArrayAttribFormat 0000000140096b48     raylib:rcore.obj
 0003:0000ab50       glad_glVertexArrayAttribIFormat 0000000140096b50     raylib:rcore.obj
 0003:0000ab58       glad_glVertexArrayAttribLFormat 0000000140096b58     raylib:rcore.obj
 0003:0000ab60       glad_glVertexArrayBindingDivisor 0000000140096b60     raylib:rcore.obj
 0003:0000ab68       glad_glVertexArrayElementBuffer 0000000140096b68     raylib:rcore.obj
 0003:0000ab70       glad_glVertexArrayVertexBuffer 0000000140096b70     raylib:rcore.obj
 0003:0000ab78       glad_glVertexArrayVertexBuffers 0000000140096b78     raylib:rcore.obj
 0003:0000ab80       glad_glVertexAttrib1d      0000000140096b80     raylib:rcore.obj
 0003:0000ab88       glad_glVertexAttrib1dARB   0000000140096b88     raylib:rcore.obj
 0003:0000ab90       glad_glVertexAttrib1dv     0000000140096b90     raylib:rcore.obj
 0003:0000ab98       glad_glVertexAttrib1dvARB  0000000140096b98     raylib:rcore.obj
 0003:0000aba0       glad_glVertexAttrib1f      0000000140096ba0     raylib:rcore.obj
 0003:0000aba8       glad_glVertexAttrib1fARB   0000000140096ba8     raylib:rcore.obj
 0003:0000abb0       glad_glVertexAttrib1fv     0000000140096bb0     raylib:rcore.obj
 0003:0000abb8       glad_glVertexAttrib1fvARB  0000000140096bb8     raylib:rcore.obj
 0003:0000abc0       glad_glVertexAttrib1s      0000000140096bc0     raylib:rcore.obj
 0003:0000abc8       glad_glVertexAttrib1sARB   0000000140096bc8     raylib:rcore.obj
 0003:0000abd0       glad_glVertexAttrib1sv     0000000140096bd0     raylib:rcore.obj
 0003:0000abd8       glad_glVertexAttrib1svARB  0000000140096bd8     raylib:rcore.obj
 0003:0000abe0       glad_glVertexAttrib2d      0000000140096be0     raylib:rcore.obj
 0003:0000abe8       glad_glVertexAttrib2dARB   0000000140096be8     raylib:rcore.obj
 0003:0000abf0       glad_glVertexAttrib2dv     0000000140096bf0     raylib:rcore.obj
 0003:0000abf8       glad_glVertexAttrib2dvARB  0000000140096bf8     raylib:rcore.obj
 0003:0000ac00       glad_glVertexAttrib2f      0000000140096c00     raylib:rcore.obj
 0003:0000ac08       glad_glVertexAttrib2fARB   0000000140096c08     raylib:rcore.obj
 0003:0000ac10       glad_glVertexAttrib2fv     0000000140096c10     raylib:rcore.obj
 0003:0000ac18       glad_glVertexAttrib2fvARB  0000000140096c18     raylib:rcore.obj
 0003:0000ac20       glad_glVertexAttrib2s      0000000140096c20     raylib:rcore.obj
 0003:0000ac28       glad_glVertexAttrib2sARB   0000000140096c28     raylib:rcore.obj
 0003:0000ac30       glad_glVertexAttrib2sv     0000000140096c30     raylib:rcore.obj
 0003:0000ac38       glad_glVertexAttrib2svARB  0000000140096c38     raylib:rcore.obj
 0003:0000ac40       glad_glVertexAttrib3d      0000000140096c40     raylib:rcore.obj
 0003:0000ac48       glad_glVertexAttrib3dARB   0000000140096c48     raylib:rcore.obj
 0003:0000ac50       glad_glVertexAttrib3dv     0000000140096c50     raylib:rcore.obj
 0003:0000ac58       glad_glVertexAttrib3dvARB  0000000140096c58     raylib:rcore.obj
 0003:0000ac60       glad_glVertexAttrib3f      0000000140096c60     raylib:rcore.obj
 0003:0000ac68       glad_glVertexAttrib3fARB   0000000140096c68     raylib:rcore.obj
 0003:0000ac70       glad_glVertexAttrib3fv     0000000140096c70     raylib:rcore.obj
 0003:0000ac78       glad_glVertexAttrib3fvARB  0000000140096c78     raylib:rcore.obj
 0003:0000ac80       glad_glVertexAttrib3s      0000000140096c80     raylib:rcore.obj
 0003:0000ac88       glad_glVertexAttrib3sARB   0000000140096c88     raylib:rcore.obj
 0003:0000ac90       glad_glVertexAttrib3sv     0000000140096c90     raylib:rcore.obj
 0003:0000ac98       glad_glVertexAttrib3svARB  0000000140096c98     raylib:rcore.obj
 0003:0000aca0       glad_glVertexAttrib4Nbv    0000000140096ca0     raylib:rcore.obj
 0003:0000aca8       glad_glVertexAttrib4NbvARB 0000000140096ca8     raylib:rcore.obj
 0003:0000acb0       glad_glVertexAttrib4Niv    0000000140096cb0     raylib:rcore.obj
 0003:0000acb8       glad_glVertexAttrib4NivARB 0000000140096cb8     raylib:rcore.obj
 0003:0000acc0       glad_glVertexAttrib4Nsv    0000000140096cc0     raylib:rcore.obj
 0003:0000acc8       glad_glVertexAttrib4NsvARB 0000000140096cc8     raylib:rcore.obj
 0003:0000acd0       glad_glVertexAttrib4Nub    0000000140096cd0     raylib:rcore.obj
 0003:0000acd8       glad_glVertexAttrib4NubARB 0000000140096cd8     raylib:rcore.obj
 0003:0000ace0       glad_glVertexAttrib4Nubv   0000000140096ce0     raylib:rcore.obj
 0003:0000ace8       glad_glVertexAttrib4NubvARB 0000000140096ce8     raylib:rcore.obj
 0003:0000acf0       glad_glVertexAttrib4Nuiv   0000000140096cf0     raylib:rcore.obj
 0003:0000acf8       glad_glVertexAttrib4NuivARB 0000000140096cf8     raylib:rcore.obj
 0003:0000ad00       glad_glVertexAttrib4Nusv   0000000140096d00     raylib:rcore.obj
 0003:0000ad08       glad_glVertexAttrib4NusvARB 0000000140096d08     raylib:rcore.obj
 0003:0000ad10       glad_glVertexAttrib4bv     0000000140096d10     raylib:rcore.obj
 0003:0000ad18       glad_glVertexAttrib4bvARB  0000000140096d18     raylib:rcore.obj
 0003:0000ad20       glad_glVertexAttrib4d      0000000140096d20     raylib:rcore.obj
 0003:0000ad28       glad_glVertexAttrib4dARB   0000000140096d28     raylib:rcore.obj
 0003:0000ad30       glad_glVertexAttrib4dv     0000000140096d30     raylib:rcore.obj
 0003:0000ad38       glad_glVertexAttrib4dvARB  0000000140096d38     raylib:rcore.obj
 0003:0000ad40       glad_glVertexAttrib4f      0000000140096d40     raylib:rcore.obj
 0003:0000ad48       glad_glVertexAttrib4fARB   0000000140096d48     raylib:rcore.obj
 0003:0000ad50       glad_glVertexAttrib4fv     0000000140096d50     raylib:rcore.obj
 0003:0000ad58       glad_glVertexAttrib4fvARB  0000000140096d58     raylib:rcore.obj
 0003:0000ad60       glad_glVertexAttrib4iv     0000000140096d60     raylib:rcore.obj
 0003:0000ad68       glad_glVertexAttrib4ivARB  0000000140096d68     raylib:rcore.obj
 0003:0000ad70       glad_glVertexAttrib4s      0000000140096d70     raylib:rcore.obj
 0003:0000ad78       glad_glVertexAttrib4sARB   0000000140096d78     raylib:rcore.obj
 0003:0000ad80       glad_glVertexAttrib4sv     0000000140096d80     raylib:rcore.obj
 0003:0000ad88       glad_glVertexAttrib4svARB  0000000140096d88     raylib:rcore.obj
 0003:0000ad90       glad_glVertexAttrib4ubv    0000000140096d90     raylib:rcore.obj
 0003:0000ad98       glad_glVertexAttrib4ubvARB 0000000140096d98     raylib:rcore.obj
 0003:0000ada0       glad_glVertexAttrib4uiv    0000000140096da0     raylib:rcore.obj
 0003:0000ada8       glad_glVertexAttrib4uivARB 0000000140096da8     raylib:rcore.obj
 0003:0000adb0       glad_glVertexAttrib4usv    0000000140096db0     raylib:rcore.obj
 0003:0000adb8       glad_glVertexAttrib4usvARB 0000000140096db8     raylib:rcore.obj
 0003:0000adc0       glad_glVertexAttribBinding 0000000140096dc0     raylib:rcore.obj
 0003:0000adc8       glad_glVertexAttribDivisor 0000000140096dc8     raylib:rcore.obj
 0003:0000add0       glad_glVertexAttribDivisorARB 0000000140096dd0     raylib:rcore.obj
 0003:0000add8       glad_glVertexAttribFormat  0000000140096dd8     raylib:rcore.obj
 0003:0000ade0       glad_glVertexAttribI1i     0000000140096de0     raylib:rcore.obj
 0003:0000ade8       glad_glVertexAttribI1iv    0000000140096de8     raylib:rcore.obj
 0003:0000adf0       glad_glVertexAttribI1ui    0000000140096df0     raylib:rcore.obj
 0003:0000adf8       glad_glVertexAttribI1uiv   0000000140096df8     raylib:rcore.obj
 0003:0000ae00       glad_glVertexAttribI2i     0000000140096e00     raylib:rcore.obj
 0003:0000ae08       glad_glVertexAttribI2iv    0000000140096e08     raylib:rcore.obj
 0003:0000ae10       glad_glVertexAttribI2ui    0000000140096e10     raylib:rcore.obj
 0003:0000ae18       glad_glVertexAttribI2uiv   0000000140096e18     raylib:rcore.obj
 0003:0000ae20       glad_glVertexAttribI3i     0000000140096e20     raylib:rcore.obj
 0003:0000ae28       glad_glVertexAttribI3iv    0000000140096e28     raylib:rcore.obj
 0003:0000ae30       glad_glVertexAttribI3ui    0000000140096e30     raylib:rcore.obj
 0003:0000ae38       glad_glVertexAttribI3uiv   0000000140096e38     raylib:rcore.obj
 0003:0000ae40       glad_glVertexAttribI4bv    0000000140096e40     raylib:rcore.obj
 0003:0000ae48       glad_glVertexAttribI4i     0000000140096e48     raylib:rcore.obj
 0003:0000ae50       glad_glVertexAttribI4iv    0000000140096e50     raylib:rcore.obj
 0003:0000ae58       glad_glVertexAttribI4sv    0000000140096e58     raylib:rcore.obj
 0003:0000ae60       glad_glVertexAttribI4ubv   0000000140096e60     raylib:rcore.obj
 0003:0000ae68       glad_glVertexAttribI4ui    0000000140096e68     raylib:rcore.obj
 0003:0000ae70       glad_glVertexAttribI4uiv   0000000140096e70     raylib:rcore.obj
 0003:0000ae78       glad_glVertexAttribI4usv   0000000140096e78     raylib:rcore.obj
 0003:0000ae80       glad_glVertexAttribIFormat 0000000140096e80     raylib:rcore.obj
 0003:0000ae88       glad_glVertexAttribIPointer 0000000140096e88     raylib:rcore.obj
 0003:0000ae90       glad_glVertexAttribL1d     0000000140096e90     raylib:rcore.obj
 0003:0000ae98       glad_glVertexAttribL1dv    0000000140096e98     raylib:rcore.obj
 0003:0000aea0       glad_glVertexAttribL2d     0000000140096ea0     raylib:rcore.obj
 0003:0000aea8       glad_glVertexAttribL2dv    0000000140096ea8     raylib:rcore.obj
 0003:0000aeb0       glad_glVertexAttribL3d     0000000140096eb0     raylib:rcore.obj
 0003:0000aeb8       glad_glVertexAttribL3dv    0000000140096eb8     raylib:rcore.obj
 0003:0000aec0       glad_glVertexAttribL4d     0000000140096ec0     raylib:rcore.obj
 0003:0000aec8       glad_glVertexAttribL4dv    0000000140096ec8     raylib:rcore.obj
 0003:0000aed0       glad_glVertexAttribLFormat 0000000140096ed0     raylib:rcore.obj
 0003:0000aed8       glad_glVertexAttribLPointer 0000000140096ed8     raylib:rcore.obj
 0003:0000aee0       glad_glVertexAttribP1ui    0000000140096ee0     raylib:rcore.obj
 0003:0000aee8       glad_glVertexAttribP1uiv   0000000140096ee8     raylib:rcore.obj
 0003:0000aef0       glad_glVertexAttribP2ui    0000000140096ef0     raylib:rcore.obj
 0003:0000aef8       glad_glVertexAttribP2uiv   0000000140096ef8     raylib:rcore.obj
 0003:0000af00       glad_glVertexAttribP3ui    0000000140096f00     raylib:rcore.obj
 0003:0000af08       glad_glVertexAttribP3uiv   0000000140096f08     raylib:rcore.obj
 0003:0000af10       glad_glVertexAttribP4ui    0000000140096f10     raylib:rcore.obj
 0003:0000af18       glad_glVertexAttribP4uiv   0000000140096f18     raylib:rcore.obj
 0003:0000af20       glad_glVertexAttribPointer 0000000140096f20     raylib:rcore.obj
 0003:0000af28       glad_glVertexAttribPointerARB 0000000140096f28     raylib:rcore.obj
 0003:0000af30       glad_glVertexBindingDivisor 0000000140096f30     raylib:rcore.obj
 0003:0000af38       glad_glViewport            0000000140096f38     raylib:rcore.obj
 0003:0000af40       glad_glViewportArrayv      0000000140096f40     raylib:rcore.obj
 0003:0000af48       glad_glViewportIndexedf    0000000140096f48     raylib:rcore.obj
 0003:0000af50       glad_glViewportIndexedfv   0000000140096f50     raylib:rcore.obj
 0003:0000af58       glad_glWaitSync            0000000140096f58     raylib:rcore.obj
 0003:0000af60       GLAD_GL_VERSION_1_0        0000000140096f60     raylib:rcore.obj
 0003:0000af64       GLAD_GL_VERSION_1_1        0000000140096f64     raylib:rcore.obj
 0003:0000af68       GLAD_GL_VERSION_1_2        0000000140096f68     raylib:rcore.obj
 0003:0000af6c       GLAD_GL_VERSION_1_3        0000000140096f6c     raylib:rcore.obj
 0003:0000af70       GLAD_GL_VERSION_1_4        0000000140096f70     raylib:rcore.obj
 0003:0000af74       GLAD_GL_VERSION_1_5        0000000140096f74     raylib:rcore.obj
 0003:0000af78       GLAD_GL_VERSION_2_0        0000000140096f78     raylib:rcore.obj
 0003:0000af7c       GLAD_GL_VERSION_2_1        0000000140096f7c     raylib:rcore.obj
 0003:0000af80       GLAD_GL_VERSION_3_0        0000000140096f80     raylib:rcore.obj
 0003:0000af84       GLAD_GL_VERSION_3_1        0000000140096f84     raylib:rcore.obj
 0003:0000af88       GLAD_GL_VERSION_3_2        0000000140096f88     raylib:rcore.obj
 0003:0000af8c       GLAD_GL_VERSION_3_3        0000000140096f8c     raylib:rcore.obj
 0003:0000af90       GLAD_GL_VERSION_4_0        0000000140096f90     raylib:rcore.obj
 0003:0000af94       GLAD_GL_VERSION_4_1        0000000140096f94     raylib:rcore.obj
 0003:0000af98       GLAD_GL_VERSION_4_2        0000000140096f98     raylib:rcore.obj
 0003:0000af9c       GLAD_GL_VERSION_4_3        0000000140096f9c     raylib:rcore.obj
 0003:0000afa0       GLAD_GL_ARB_ES2_compatibility 0000000140096fa0     raylib:rcore.obj
 0003:0000afa4       GLAD_GL_ARB_ES3_1_compatibility 0000000140096fa4     raylib:rcore.obj
 0003:0000afa8       GLAD_GL_ARB_ES3_2_compatibility 0000000140096fa8     raylib:rcore.obj
 0003:0000afac       GLAD_GL_ARB_ES3_compatibility 0000000140096fac     raylib:rcore.obj
 0003:0000afb0       GLAD_GL_ARB_blend_func_extended 0000000140096fb0     raylib:rcore.obj
 0003:0000afb4       GLAD_GL_ARB_buffer_storage 0000000140096fb4     raylib:rcore.obj
 0003:0000afb8       GLAD_GL_ARB_clear_buffer_object 0000000140096fb8     raylib:rcore.obj
 0003:0000afbc       GLAD_GL_ARB_clear_texture  0000000140096fbc     raylib:rcore.obj
 0003:0000afc0       GLAD_GL_ARB_color_buffer_float 0000000140096fc0     raylib:rcore.obj
 0003:0000afc4       GLAD_GL_ARB_compatibility  0000000140096fc4     raylib:rcore.obj
 0003:0000afc8       GLAD_GL_ARB_compressed_texture_pixel_storage 0000000140096fc8     raylib:rcore.obj
 0003:0000afcc       GLAD_GL_ARB_compute_shader 0000000140096fcc     raylib:rcore.obj
 0003:0000afd0       GLAD_GL_ARB_compute_variable_group_size 0000000140096fd0     raylib:rcore.obj
 0003:0000afd4       GLAD_GL_ARB_copy_buffer    0000000140096fd4     raylib:rcore.obj
 0003:0000afd8       GLAD_GL_ARB_copy_image     0000000140096fd8     raylib:rcore.obj
 0003:0000afdc       GLAD_GL_ARB_debug_output   0000000140096fdc     raylib:rcore.obj
 0003:0000afe0       GLAD_GL_ARB_depth_buffer_float 0000000140096fe0     raylib:rcore.obj
 0003:0000afe4       GLAD_GL_ARB_depth_clamp    0000000140096fe4     raylib:rcore.obj
 0003:0000afe8       GLAD_GL_ARB_depth_texture  0000000140096fe8     raylib:rcore.obj
 0003:0000afec       GLAD_GL_ARB_direct_state_access 0000000140096fec     raylib:rcore.obj
 0003:0000aff0       GLAD_GL_ARB_draw_buffers   0000000140096ff0     raylib:rcore.obj
 0003:0000aff4       GLAD_GL_ARB_draw_buffers_blend 0000000140096ff4     raylib:rcore.obj
 0003:0000aff8       GLAD_GL_ARB_draw_elements_base_vertex 0000000140096ff8     raylib:rcore.obj
 0003:0000affc       GLAD_GL_ARB_draw_indirect  0000000140096ffc     raylib:rcore.obj
 0003:0000b000       GLAD_GL_ARB_draw_instanced 0000000140097000     raylib:rcore.obj
 0003:0000b004       GLAD_GL_ARB_enhanced_layouts 0000000140097004     raylib:rcore.obj
 0003:0000b008       GLAD_GL_ARB_explicit_attrib_location 0000000140097008     raylib:rcore.obj
 0003:0000b00c       GLAD_GL_ARB_explicit_uniform_location 000000014009700c     raylib:rcore.obj
 0003:0000b010       GLAD_GL_ARB_fragment_coord_conventions 0000000140097010     raylib:rcore.obj
 0003:0000b014       GLAD_GL_ARB_fragment_layer_viewport 0000000140097014     raylib:rcore.obj
 0003:0000b018       GLAD_GL_ARB_fragment_program 0000000140097018     raylib:rcore.obj
 0003:0000b01c       GLAD_GL_ARB_fragment_program_shadow 000000014009701c     raylib:rcore.obj
 0003:0000b020       GLAD_GL_ARB_fragment_shader 0000000140097020     raylib:rcore.obj
 0003:0000b024       GLAD_GL_ARB_fragment_shader_interlock 0000000140097024     raylib:rcore.obj
 0003:0000b028       GLAD_GL_ARB_framebuffer_no_attachments 0000000140097028     raylib:rcore.obj
 0003:0000b02c       GLAD_GL_ARB_framebuffer_object 000000014009702c     raylib:rcore.obj
 0003:0000b030       GLAD_GL_ARB_framebuffer_sRGB 0000000140097030     raylib:rcore.obj
 0003:0000b034       GLAD_GL_ARB_geometry_shader4 0000000140097034     raylib:rcore.obj
 0003:0000b038       GLAD_GL_ARB_get_program_binary 0000000140097038     raylib:rcore.obj
 0003:0000b03c       GLAD_GL_ARB_get_texture_sub_image 000000014009703c     raylib:rcore.obj
 0003:0000b040       GLAD_GL_ARB_gl_spirv       0000000140097040     raylib:rcore.obj
 0003:0000b044       GLAD_GL_ARB_gpu_shader5    0000000140097044     raylib:rcore.obj
 0003:0000b048       GLAD_GL_ARB_gpu_shader_fp64 0000000140097048     raylib:rcore.obj
 0003:0000b04c       GLAD_GL_ARB_gpu_shader_int64 000000014009704c     raylib:rcore.obj
 0003:0000b050       GLAD_GL_ARB_half_float_pixel 0000000140097050     raylib:rcore.obj
 0003:0000b054       GLAD_GL_ARB_half_float_vertex 0000000140097054     raylib:rcore.obj
 0003:0000b058       GLAD_GL_ARB_instanced_arrays 0000000140097058     raylib:rcore.obj
 0003:0000b05c       GLAD_GL_ARB_internalformat_query 000000014009705c     raylib:rcore.obj
 0003:0000b060       GLAD_GL_ARB_internalformat_query2 0000000140097060     raylib:rcore.obj
 0003:0000b064       GLAD_GL_ARB_map_buffer_range 0000000140097064     raylib:rcore.obj
 0003:0000b068       GLAD_GL_ARB_multi_bind     0000000140097068     raylib:rcore.obj
 0003:0000b06c       GLAD_GL_ARB_multi_draw_indirect 000000014009706c     raylib:rcore.obj
 0003:0000b070       GLAD_GL_ARB_multisample    0000000140097070     raylib:rcore.obj
 0003:0000b074       GLAD_GL_ARB_multitexture   0000000140097074     raylib:rcore.obj
 0003:0000b078       GLAD_GL_ARB_occlusion_query 0000000140097078     raylib:rcore.obj
 0003:0000b07c       GLAD_GL_ARB_occlusion_query2 000000014009707c     raylib:rcore.obj
 0003:0000b080       GLAD_GL_ARB_pipeline_statistics_query 0000000140097080     raylib:rcore.obj
 0003:0000b084       GLAD_GL_ARB_query_buffer_object 0000000140097084     raylib:rcore.obj
 0003:0000b088       GLAD_GL_ARB_sample_locations 0000000140097088     raylib:rcore.obj
 0003:0000b08c       GLAD_GL_ARB_sample_shading 000000014009708c     raylib:rcore.obj
 0003:0000b090       GLAD_GL_ARB_seamless_cube_map 0000000140097090     raylib:rcore.obj
 0003:0000b094       GLAD_GL_ARB_seamless_cubemap_per_texture 0000000140097094     raylib:rcore.obj
 0003:0000b098       GLAD_GL_ARB_shader_atomic_counter_ops 0000000140097098     raylib:rcore.obj
 0003:0000b09c       GLAD_GL_ARB_shader_atomic_counters 000000014009709c     raylib:rcore.obj
 0003:0000b0a0       GLAD_GL_ARB_shader_bit_encoding 00000001400970a0     raylib:rcore.obj
 0003:0000b0a4       GLAD_GL_ARB_shader_clock   00000001400970a4     raylib:rcore.obj
 0003:0000b0a8       GLAD_GL_ARB_shader_image_load_store 00000001400970a8     raylib:rcore.obj
 0003:0000b0ac       GLAD_GL_ARB_shader_image_size 00000001400970ac     raylib:rcore.obj
 0003:0000b0b0       GLAD_GL_ARB_shader_objects 00000001400970b0     raylib:rcore.obj
 0003:0000b0b4       GLAD_GL_ARB_shader_storage_buffer_object 00000001400970b4     raylib:rcore.obj
 0003:0000b0b8       GLAD_GL_ARB_shader_texture_lod 00000001400970b8     raylib:rcore.obj
 0003:0000b0bc       GLAD_GL_ARB_shading_language_100 00000001400970bc     raylib:rcore.obj
 0003:0000b0c0       GLAD_GL_ARB_shading_language_420pack 00000001400970c0     raylib:rcore.obj
 0003:0000b0c4       GLAD_GL_ARB_shading_language_include 00000001400970c4     raylib:rcore.obj
 0003:0000b0c8       GLAD_GL_ARB_shading_language_packing 00000001400970c8     raylib:rcore.obj
 0003:0000b0cc       GLAD_GL_ARB_spirv_extensions 00000001400970cc     raylib:rcore.obj
 0003:0000b0d0       GLAD_GL_ARB_tessellation_shader 00000001400970d0     raylib:rcore.obj
 0003:0000b0d4       GLAD_GL_ARB_texture_border_clamp 00000001400970d4     raylib:rcore.obj
 0003:0000b0d8       GLAD_GL_ARB_texture_buffer_object_rgb32 00000001400970d8     raylib:rcore.obj
 0003:0000b0dc       GLAD_GL_ARB_texture_compression 00000001400970dc     raylib:rcore.obj
 0003:0000b0e0       GLAD_GL_ARB_texture_cube_map 00000001400970e0     raylib:rcore.obj
 0003:0000b0e4       GLAD_GL_ARB_texture_cube_map_array 00000001400970e4     raylib:rcore.obj
 0003:0000b0e8       GLAD_GL_ARB_texture_env_add 00000001400970e8     raylib:rcore.obj
 0003:0000b0ec       GLAD_GL_ARB_texture_filter_anisotropic 00000001400970ec     raylib:rcore.obj
 0003:0000b0f0       GLAD_GL_ARB_texture_filter_minmax 00000001400970f0     raylib:rcore.obj
 0003:0000b0f4       GLAD_GL_ARB_texture_float  00000001400970f4     raylib:rcore.obj
 0003:0000b0f8       GLAD_GL_ARB_texture_mirror_clamp_to_edge 00000001400970f8     raylib:rcore.obj
 0003:0000b0fc       GLAD_GL_ARB_texture_mirrored_repeat 00000001400970fc     raylib:rcore.obj
 0003:0000b100       GLAD_GL_ARB_texture_multisample 0000000140097100     raylib:rcore.obj
 0003:0000b104       GLAD_GL_ARB_texture_non_power_of_two 0000000140097104     raylib:rcore.obj
 0003:0000b108       GLAD_GL_ARB_texture_rg     0000000140097108     raylib:rcore.obj
 0003:0000b10c       GLAD_GL_ARB_texture_storage 000000014009710c     raylib:rcore.obj
 0003:0000b110       GLAD_GL_ARB_texture_swizzle 0000000140097110     raylib:rcore.obj
 0003:0000b114       GLAD_GL_ARB_texture_view   0000000140097114     raylib:rcore.obj
 0003:0000b118       GLAD_GL_ARB_timer_query    0000000140097118     raylib:rcore.obj
 0003:0000b11c       GLAD_GL_ARB_transpose_matrix 000000014009711c     raylib:rcore.obj
 0003:0000b120       GLAD_GL_ARB_uniform_buffer_object 0000000140097120     raylib:rcore.obj
 0003:0000b124       GLAD_GL_ARB_vertex_array_bgra 0000000140097124     raylib:rcore.obj
 0003:0000b128       GLAD_GL_ARB_vertex_array_object 0000000140097128     raylib:rcore.obj
 0003:0000b12c       GLAD_GL_ARB_vertex_attrib_binding 000000014009712c     raylib:rcore.obj
 0003:0000b130       GLAD_GL_ARB_vertex_buffer_object 0000000140097130     raylib:rcore.obj
 0003:0000b134       GLAD_GL_ARB_vertex_program 0000000140097134     raylib:rcore.obj
 0003:0000b138       GLAD_GL_ARB_vertex_shader  0000000140097138     raylib:rcore.obj
 0003:0000b13c       GLAD_GL_EXT_draw_instanced 000000014009713c     raylib:rcore.obj
 0003:0000b140       GLAD_GL_EXT_fog_coord      0000000140097140     raylib:rcore.obj
 0003:0000b144       GLAD_GL_EXT_framebuffer_blit 0000000140097144     raylib:rcore.obj
 0003:0000b148       GLAD_GL_EXT_framebuffer_multisample 0000000140097148     raylib:rcore.obj
 0003:0000b14c       GLAD_GL_EXT_framebuffer_object 000000014009714c     raylib:rcore.obj
 0003:0000b150       GLAD_GL_EXT_framebuffer_sRGB 0000000140097150     raylib:rcore.obj
 0003:0000b154       GLAD_GL_EXT_texture_compression_s3tc 0000000140097154     raylib:rcore.obj
 0003:0000b158       GLAD_GL_EXT_texture_filter_anisotropic 0000000140097158     raylib:rcore.obj
 0003:0000b15c       GLAD_GL_EXT_texture_mirror_clamp 000000014009715c     raylib:rcore.obj
 0003:0000b160       GLAD_GL_KHR_texture_compression_astc_hdr 0000000140097160     raylib:rcore.obj
 0003:0000b164       GLAD_GL_KHR_texture_compression_astc_ldr 0000000140097164     raylib:rcore.obj
 0003:0000b168       GLAD_GL_OES_compressed_paletted_texture 0000000140097168     raylib:rcore.obj
 0003:0000b16c       GLAD_GL_OES_fixed_point    000000014009716c     raylib:rcore.obj
 0003:00013bc0       _glfw                      000000014009fbc0     raylib:rglfw.obj
 0003:00017040       __favor                    00000001400a3040     msvcrt:cpu_disp.obj
 0003:00017048       __scrt_current_native_startup_state 00000001400a3048     msvcrt:utility.obj
 0003:00017050       __scrt_native_startup_lock 00000001400a3050     msvcrt:utility.obj
 0003:00017090       ?__type_info_root_node@@3U__type_info_node@@A 00000001400a3090     msvcrt:tncleanup.obj
 0003:000170a0       __scrt_debugger_hook_flag  00000001400a30a0     msvcrt:utility_desktop.obj
 0003:000170a8       ?_OptionsStorage@?1??__local_stdio_scanf_options@@9@9 00000001400a30a8     <common>
 0003:000170b0       ?_OptionsStorage@?1??__local_stdio_printf_options@@9@9 00000001400a30b0     <common>
 0003:000170b8       __dyn_tls_dtor_callback    00000001400a30b8     <common>
 0003:000170c0       __dyn_tls_init_callback    00000001400a30c0     <common>

 entry point at        0001:00042f20

 Static symbols

 0000:fff58000       .debug$S                   0000000140000000     gdi32:GDI32.dll
 0000:fff58000       .debug$S                   0000000140000000     gdi32:GDI32.dll
 0000:fff58000       .debug$S                   0000000140000000     gdi32:GDI32.dll
 0000:fff58000       .debug$S                   0000000140000000     gdi32:GDI32.dll
 0000:fff58000       .debug$S                   0000000140000000     gdi32:GDI32.dll
 0000:fff58000       .debug$S                   0000000140000000     gdi32:GDI32.dll
 0000:fff58000       .debug$S                   0000000140000000     gdi32:GDI32.dll
 0000:fff58000       .debug$S                   0000000140000000     gdi32:GDI32.dll
 0000:fff58000       .debug$S                   0000000140000000     gdi32:GDI32.dll
 0000:fff58000       .debug$S                   0000000140000000     gdi32:GDI32.dll
 0000:fff58000       .debug$S                   0000000140000000     gdi32:GDI32.dll
 0000:fff58000       .debug$S                   0000000140000000     gdi32:GDI32.dll
 0000:fff58000       .debug$S                   0000000140000000     gdi32:GDI32.dll
 0000:fff58000       .debug$S                   0000000140000000     kernel32:KERNEL32.dll
 0000:fff58000       .debug$S                   0000000140000000     kernel32:KERNEL32.dll
 0000:fff58000       .debug$S                   0000000140000000     kernel32:KERNEL32.dll
 0000:fff58000       .debug$S                   0000000140000000     kernel32:KERNEL32.dll
 0000:fff58000       .debug$S                   0000000140000000     kernel32:KERNEL32.dll
 0000:fff58000       .debug$S                   0000000140000000     kernel32:KERNEL32.dll
 0000:fff58000       .debug$S                   0000000140000000     kernel32:KERNEL32.dll
 0000:fff58000       .debug$S                   0000000140000000     kernel32:KERNEL32.dll
 0000:fff58000       .debug$S                   0000000140000000     kernel32:KERNEL32.dll
 0000:fff58000       .debug$S                   0000000140000000     kernel32:KERNEL32.dll
 0000:fff58000       .debug$S                   0000000140000000     kernel32:KERNEL32.dll
 0000:fff58000       .debug$S                   0000000140000000     kernel32:KERNEL32.dll
 0000:fff58000       .debug$S                   0000000140000000     kernel32:KERNEL32.dll
 0000:fff58000       .debug$S                   0000000140000000     kernel32:KERNEL32.dll
 0000:fff58000       .debug$S                   0000000140000000     kernel32:KERNEL32.dll
 0000:fff58000       .debug$S                   0000000140000000     kernel32:KERNEL32.dll
 0000:fff58000       .debug$S                   0000000140000000     kernel32:KERNEL32.dll
 0000:fff58000       .debug$S                   0000000140000000     kernel32:KERNEL32.dll
 0000:fff58000       .debug$S                   0000000140000000     kernel32:KERNEL32.dll
 0000:fff58000       .debug$S                   0000000140000000     kernel32:KERNEL32.dll
 0000:fff58000       .debug$S                   0000000140000000     kernel32:KERNEL32.dll
 0000:fff58000       .debug$S                   0000000140000000     kernel32:KERNEL32.dll
 0000:fff58000       .debug$S                   0000000140000000     kernel32:KERNEL32.dll
 0000:fff58000       .debug$S                   0000000140000000     kernel32:KERNEL32.dll
 0000:fff58000       .debug$S                   0000000140000000     kernel32:KERNEL32.dll
 0000:fff58000       .debug$S                   0000000140000000     kernel32:KERNEL32.dll
 0000:fff58000       .debug$S                   0000000140000000     kernel32:KERNEL32.dll
 0000:fff58000       .debug$S                   0000000140000000     kernel32:KERNEL32.dll
 0000:fff58000       .debug$S                   0000000140000000     kernel32:KERNEL32.dll
 0000:fff58000       .debug$S                   0000000140000000     kernel32:KERNEL32.dll
 0000:fff58000       .debug$S                   0000000140000000     kernel32:KERNEL32.dll
 0000:fff58000       .debug$S                   0000000140000000     kernel32:KERNEL32.dll
 0000:fff58000       .debug$S                   0000000140000000     kernel32:KERNEL32.dll
 0000:fff58000       .debug$S                   0000000140000000     kernel32:KERNEL32.dll
 0000:fff58000       .debug$S                   0000000140000000     kernel32:KERNEL32.dll
 0000:fff58000       .debug$S                   0000000140000000     kernel32:KERNEL32.dll
 0000:fff58000       .debug$S                   0000000140000000     kernel32:KERNEL32.dll
 0000:fff58000       .debug$S                   0000000140000000     kernel32:KERNEL32.dll
 0000:fff58000       .debug$S                   0000000140000000     kernel32:KERNEL32.dll
 0000:fff58000       .debug$S                   0000000140000000     kernel32:KERNEL32.dll
 0000:fff58000       .debug$S                   0000000140000000     kernel32:KERNEL32.dll
 0000:fff58000       .debug$S                   0000000140000000     shell32:SHELL32.dll
 0000:fff58000       .debug$S                   0000000140000000     shell32:SHELL32.dll
 0000:fff58000       .debug$S                   0000000140000000     shell32:SHELL32.dll
 0000:fff58000       .debug$S                   0000000140000000     shell32:SHELL32.dll
 0000:fff58000       .debug$S                   0000000140000000     user32:USER32.dll
 0000:fff58000       .debug$S                   0000000140000000     user32:USER32.dll
 0000:fff58000       .debug$S                   0000000140000000     user32:USER32.dll
 0000:fff58000       .debug$S                   0000000140000000     user32:USER32.dll
 0000:fff58000       .debug$S                   0000000140000000     user32:USER32.dll
 0000:fff58000       .debug$S                   0000000140000000     user32:USER32.dll
 0000:fff58000       .debug$S                   0000000140000000     user32:USER32.dll
 0000:fff58000       .debug$S                   0000000140000000     user32:USER32.dll
 0000:fff58000       .debug$S                   0000000140000000     user32:USER32.dll
 0000:fff58000       .debug$S                   0000000140000000     user32:USER32.dll
 0000:fff58000       .debug$S                   0000000140000000     user32:USER32.dll
 0000:fff58000       .debug$S                   0000000140000000     user32:USER32.dll
 0000:fff58000       .debug$S                   0000000140000000     user32:USER32.dll
 0000:fff58000       .debug$S                   0000000140000000     user32:USER32.dll
 0000:fff58000       .debug$S                   0000000140000000     user32:USER32.dll
 0000:fff58000       .debug$S                   0000000140000000     user32:USER32.dll
 0000:fff58000       .debug$S                   0000000140000000     user32:USER32.dll
 0000:fff58000       .debug$S                   0000000140000000     user32:USER32.dll
 0000:fff58000       .debug$S                   0000000140000000     user32:USER32.dll
 0000:fff58000       .debug$S                   0000000140000000     user32:USER32.dll
 0000:fff58000       .debug$S                   0000000140000000     user32:USER32.dll
 0000:fff58000       .debug$S                   0000000140000000     user32:USER32.dll
 0000:fff58000       .debug$S                   0000000140000000     user32:USER32.dll
 0000:fff58000       .debug$S                   0000000140000000     user32:USER32.dll
 0000:fff58000       .debug$S                   0000000140000000     user32:USER32.dll
 0000:fff58000       .debug$S                   0000000140000000     user32:USER32.dll
 0000:fff58000       .debug$S                   0000000140000000     user32:USER32.dll
 0000:fff58000       .debug$S                   0000000140000000     user32:USER32.dll
 0000:fff58000       .debug$S                   0000000140000000     user32:USER32.dll
 0000:fff58000       .debug$S                   0000000140000000     user32:USER32.dll
 0000:fff58000       .debug$S                   0000000140000000     user32:USER32.dll
 0000:fff58000       .debug$S                   0000000140000000     user32:USER32.dll
 0000:fff58000       .debug$S                   0000000140000000     user32:USER32.dll
 0000:fff58000       .debug$S                   0000000140000000     user32:USER32.dll
 0000:fff58000       .debug$S                   0000000140000000     user32:USER32.dll
 0000:fff58000       .debug$S                   0000000140000000     user32:USER32.dll
 0000:fff58000       .debug$S                   0000000140000000     user32:USER32.dll
 0000:fff58000       .debug$S                   0000000140000000     user32:USER32.dll
 0000:fff58000       .debug$S                   0000000140000000     user32:USER32.dll
 0000:fff58000       .debug$S                   0000000140000000     user32:USER32.dll
 0000:fff58000       .debug$S                   0000000140000000     user32:USER32.dll
 0000:fff58000       .debug$S                   0000000140000000     user32:USER32.dll
 0000:fff58000       .debug$S                   0000000140000000     user32:USER32.dll
 0000:fff58000       .debug$S                   0000000140000000     user32:USER32.dll
 0000:fff58000       .debug$S                   0000000140000000     user32:USER32.dll
 0000:fff58000       .debug$S                   0000000140000000     user32:USER32.dll
 0000:fff58000       .debug$S                   0000000140000000     user32:USER32.dll
 0000:fff58000       .debug$S                   0000000140000000     user32:USER32.dll
 0000:fff58000       .debug$S                   0000000140000000     user32:USER32.dll
 0000:fff58000       .debug$S                   0000000140000000     user32:USER32.dll
 0000:fff58000       .debug$S                   0000000140000000     user32:USER32.dll
 0000:fff58000       .debug$S                   0000000140000000     user32:USER32.dll
 0000:fff58000       .debug$S                   0000000140000000     user32:USER32.dll
 0000:fff58000       .debug$S                   0000000140000000     user32:USER32.dll
 0000:fff58000       .debug$S                   0000000140000000     user32:USER32.dll
 0000:fff58000       .debug$S                   0000000140000000     user32:USER32.dll
 0000:fff58000       .debug$S                   0000000140000000     user32:USER32.dll
 0000:fff58000       .debug$S                   0000000140000000     user32:USER32.dll
 0000:fff58000       .debug$S                   0000000140000000     user32:USER32.dll
 0000:fff58000       .debug$S                   0000000140000000     user32:USER32.dll
 0000:fff58000       .debug$S                   0000000140000000     user32:USER32.dll
 0000:fff58000       .debug$S                   0000000140000000     user32:USER32.dll
 0000:fff58000       .debug$S                   0000000140000000     user32:USER32.dll
 0000:fff58000       .debug$S                   0000000140000000     user32:USER32.dll
 0000:fff58000       .debug$S                   0000000140000000     user32:USER32.dll
 0000:fff58000       .debug$S                   0000000140000000     user32:USER32.dll
 0000:fff58000       .debug$S                   0000000140000000     user32:USER32.dll
 0000:fff58000       .debug$S                   0000000140000000     user32:USER32.dll
 0000:fff58000       .debug$S                   0000000140000000     user32:USER32.dll
 0000:fff58000       .debug$S                   0000000140000000     user32:USER32.dll
 0000:fff58000       .debug$S                   0000000140000000     user32:USER32.dll
 0000:fff58000       .debug$S                   0000000140000000     user32:USER32.dll
 0000:fff58000       .debug$S                   0000000140000000     user32:USER32.dll
 0000:fff58000       .debug$S                   0000000140000000     user32:USER32.dll
 0000:fff58000       .debug$S                   0000000140000000     user32:USER32.dll
 0000:fff58000       .debug$S                   0000000140000000     user32:USER32.dll
 0000:fff58000       .debug$S                   0000000140000000     user32:USER32.dll
 0000:fff58000       .debug$S                   0000000140000000     user32:USER32.dll
 0000:fff58000       .debug$S                   0000000140000000     user32:USER32.dll
 0000:fff58000       .debug$S                   0000000140000000     user32:USER32.dll
 0000:fff58000       .debug$S                   0000000140000000     winmm:WINMM.dll
 0000:fff58000       .debug$S                   0000000140000000     winmm:WINMM.dll
 0000:fff58000       .debug$S                   0000000140000000     ucrt:api-ms-win-crt-convert-l1-1-0.dll
 0000:fff58000       .debug$S                   0000000140000000     ucrt:api-ms-win-crt-convert-l1-1-0.dll
 0000:fff58000       .debug$S                   0000000140000000     ucrt:api-ms-win-crt-convert-l1-1-0.dll
 0000:fff58000       .debug$S                   0000000140000000     ucrt:api-ms-win-crt-convert-l1-1-0.dll
 0000:fff58000       .debug$S                   0000000140000000     ucrt:api-ms-win-crt-convert-l1-1-0.dll
 0000:fff58000       .debug$S                   0000000140000000     ucrt:api-ms-win-crt-filesystem-l1-1-0.dll
 0000:fff58000       .debug$S                   0000000140000000     ucrt:api-ms-win-crt-filesystem-l1-1-0.dll
 0000:fff58000       .debug$S                   0000000140000000     ucrt:api-ms-win-crt-filesystem-l1-1-0.dll
 0000:fff58000       .debug$S                   0000000140000000     ucrt:api-ms-win-crt-filesystem-l1-1-0.dll
 0000:fff58000       .debug$S                   0000000140000000     ucrt:api-ms-win-crt-filesystem-l1-1-0.dll
 0000:fff58000       .debug$S                   0000000140000000     ucrt:api-ms-win-crt-filesystem-l1-1-0.dll
 0000:fff58000       .debug$S                   0000000140000000     ucrt:api-ms-win-crt-heap-l1-1-0.dll
 0000:fff58000       .debug$S                   0000000140000000     ucrt:api-ms-win-crt-heap-l1-1-0.dll
 0000:fff58000       .debug$S                   0000000140000000     ucrt:api-ms-win-crt-heap-l1-1-0.dll
 0000:fff58000       .debug$S                   0000000140000000     ucrt:api-ms-win-crt-heap-l1-1-0.dll
 0000:fff58000       .debug$S                   0000000140000000     ucrt:api-ms-win-crt-heap-l1-1-0.dll
 0000:fff58000       .debug$S                   0000000140000000     ucrt:api-ms-win-crt-locale-l1-1-0.dll
 0000:fff58000       .debug$S                   0000000140000000     ucrt:api-ms-win-crt-math-l1-1-0.dll
 0000:fff58000       .debug$S                   0000000140000000     ucrt:api-ms-win-crt-math-l1-1-0.dll
 0000:fff58000       .debug$S                   0000000140000000     ucrt:api-ms-win-crt-math-l1-1-0.dll
 0000:fff58000       .debug$S                   0000000140000000     ucrt:api-ms-win-crt-math-l1-1-0.dll
 0000:fff58000       .debug$S                   0000000140000000     ucrt:api-ms-win-crt-math-l1-1-0.dll
 0000:fff58000       .debug$S                   0000000140000000     ucrt:api-ms-win-crt-math-l1-1-0.dll
 0000:fff58000       .debug$S                   0000000140000000     ucrt:api-ms-win-crt-math-l1-1-0.dll
 0000:fff58000       .debug$S                   0000000140000000     ucrt:api-ms-win-crt-math-l1-1-0.dll
 0000:fff58000       .debug$S                   0000000140000000     ucrt:api-ms-win-crt-math-l1-1-0.dll
 0000:fff58000       .debug$S                   0000000140000000     ucrt:api-ms-win-crt-math-l1-1-0.dll
 0000:fff58000       .debug$S                   0000000140000000     ucrt:api-ms-win-crt-math-l1-1-0.dll
 0000:fff58000       .debug$S                   0000000140000000     ucrt:api-ms-win-crt-math-l1-1-0.dll
 0000:fff58000       .debug$S                   0000000140000000     ucrt:api-ms-win-crt-math-l1-1-0.dll
 0000:fff58000       .debug$S                   0000000140000000     ucrt:api-ms-win-crt-math-l1-1-0.dll
 0000:fff58000       .debug$S                   0000000140000000     ucrt:api-ms-win-crt-math-l1-1-0.dll
 0000:fff58000       .debug$S                   0000000140000000     ucrt:api-ms-win-crt-math-l1-1-0.dll
 0000:fff58000       .debug$S                   0000000140000000     ucrt:api-ms-win-crt-math-l1-1-0.dll
 0000:fff58000       .debug$S                   0000000140000000     ucrt:api-ms-win-crt-math-l1-1-0.dll
 0000:fff58000       .debug$S                   0000000140000000     ucrt:api-ms-win-crt-math-l1-1-0.dll
 0000:fff58000       .debug$S                   0000000140000000     ucrt:api-ms-win-crt-math-l1-1-0.dll
 0000:fff58000       .debug$S                   0000000140000000     ucrt:api-ms-win-crt-math-l1-1-0.dll
 0000:fff58000       .debug$S                   0000000140000000     ucrt:api-ms-win-crt-math-l1-1-0.dll
 0000:fff58000       .debug$S                   0000000140000000     ucrt:api-ms-win-crt-math-l1-1-0.dll
 0000:fff58000       .debug$S                   0000000140000000     ucrt:api-ms-win-crt-math-l1-1-0.dll
 0000:fff58000       .debug$S                   0000000140000000     ucrt:api-ms-win-crt-math-l1-1-0.dll
 0000:fff58000       .debug$S                   0000000140000000     ucrt:api-ms-win-crt-math-l1-1-0.dll
 0000:fff58000       .debug$S                   0000000140000000     ucrt:api-ms-win-crt-math-l1-1-0.dll
 0000:fff58000       .debug$S                   0000000140000000     ucrt:api-ms-win-crt-math-l1-1-0.dll
 0000:fff58000       .debug$S                   0000000140000000     ucrt:api-ms-win-crt-math-l1-1-0.dll
 0000:fff58000       .debug$S                   0000000140000000     ucrt:api-ms-win-crt-math-l1-1-0.dll
 0000:fff58000       .debug$S                   0000000140000000     ucrt:api-ms-win-crt-math-l1-1-0.dll
 0000:fff58000       .debug$S                   0000000140000000     ucrt:api-ms-win-crt-runtime-l1-1-0.dll
 0000:fff58000       .debug$S                   0000000140000000     ucrt:api-ms-win-crt-runtime-l1-1-0.dll
 0000:fff58000       .debug$S                   0000000140000000     ucrt:api-ms-win-crt-runtime-l1-1-0.dll
 0000:fff58000       .debug$S                   0000000140000000     ucrt:api-ms-win-crt-runtime-l1-1-0.dll
 0000:fff58000       .debug$S                   0000000140000000     ucrt:api-ms-win-crt-runtime-l1-1-0.dll
 0000:fff58000       .debug$S                   0000000140000000     ucrt:api-ms-win-crt-runtime-l1-1-0.dll
 0000:fff58000       .debug$S                   0000000140000000     ucrt:api-ms-win-crt-runtime-l1-1-0.dll
 0000:fff58000       .debug$S                   0000000140000000     ucrt:api-ms-win-crt-runtime-l1-1-0.dll
 0000:fff58000       .debug$S                   0000000140000000     ucrt:api-ms-win-crt-runtime-l1-1-0.dll
 0000:fff58000       .debug$S                   0000000140000000     ucrt:api-ms-win-crt-runtime-l1-1-0.dll
 0000:fff58000       .debug$S                   0000000140000000     ucrt:api-ms-win-crt-runtime-l1-1-0.dll
 0000:fff58000       .debug$S                   0000000140000000     ucrt:api-ms-win-crt-runtime-l1-1-0.dll
 0000:fff58000       .debug$S                   0000000140000000     ucrt:api-ms-win-crt-runtime-l1-1-0.dll
 0000:fff58000       .debug$S                   0000000140000000     ucrt:api-ms-win-crt-runtime-l1-1-0.dll
 0000:fff58000       .debug$S                   0000000140000000     ucrt:api-ms-win-crt-runtime-l1-1-0.dll
 0000:fff58000       .debug$S                   0000000140000000     ucrt:api-ms-win-crt-runtime-l1-1-0.dll
 0000:fff58000       .debug$S                   0000000140000000     ucrt:api-ms-win-crt-runtime-l1-1-0.dll
 0000:fff58000       .debug$S                   0000000140000000     ucrt:api-ms-win-crt-runtime-l1-1-0.dll
 0000:fff58000       .debug$S                   0000000140000000     ucrt:api-ms-win-crt-runtime-l1-1-0.dll
 0000:fff58000       .debug$S                   0000000140000000     ucrt:api-ms-win-crt-runtime-l1-1-0.dll
 0000:fff58000       .debug$S                   0000000140000000     ucrt:api-ms-win-crt-runtime-l1-1-0.dll
 0000:fff58000       .debug$S                   0000000140000000     ucrt:api-ms-win-crt-runtime-l1-1-0.dll
 0000:fff58000       .debug$S                   0000000140000000     ucrt:api-ms-win-crt-runtime-l1-1-0.dll
 0000:fff58000       .debug$S                   0000000140000000     ucrt:api-ms-win-crt-runtime-l1-1-0.dll
 0000:fff58000       .debug$S                   0000000140000000     ucrt:api-ms-win-crt-stdio-l1-1-0.dll
 0000:fff58000       .debug$S                   0000000140000000     ucrt:api-ms-win-crt-stdio-l1-1-0.dll
 0000:fff58000       .debug$S                   0000000140000000     ucrt:api-ms-win-crt-stdio-l1-1-0.dll
 0000:fff58000       .debug$S                   0000000140000000     ucrt:api-ms-win-crt-stdio-l1-1-0.dll
 0000:fff58000       .debug$S                   0000000140000000     ucrt:api-ms-win-crt-stdio-l1-1-0.dll
 0000:fff58000       .debug$S                   0000000140000000     ucrt:api-ms-win-crt-stdio-l1-1-0.dll
 0000:fff58000       .debug$S                   0000000140000000     ucrt:api-ms-win-crt-stdio-l1-1-0.dll
 0000:fff58000       .debug$S                   0000000140000000     ucrt:api-ms-win-crt-stdio-l1-1-0.dll
 0000:fff58000       .debug$S                   0000000140000000     ucrt:api-ms-win-crt-stdio-l1-1-0.dll
 0000:fff58000       .debug$S                   0000000140000000     ucrt:api-ms-win-crt-stdio-l1-1-0.dll
 0000:fff58000       .debug$S                   0000000140000000     ucrt:api-ms-win-crt-stdio-l1-1-0.dll
 0000:fff58000       .debug$S                   0000000140000000     ucrt:api-ms-win-crt-stdio-l1-1-0.dll
 0000:fff58000       .debug$S                   0000000140000000     ucrt:api-ms-win-crt-stdio-l1-1-0.dll
 0000:fff58000       .debug$S                   0000000140000000     ucrt:api-ms-win-crt-stdio-l1-1-0.dll
 0000:fff58000       .debug$S                   0000000140000000     ucrt:api-ms-win-crt-stdio-l1-1-0.dll
 0000:fff58000       .debug$S                   0000000140000000     ucrt:api-ms-win-crt-stdio-l1-1-0.dll
 0000:fff58000       .debug$S                   0000000140000000     ucrt:api-ms-win-crt-stdio-l1-1-0.dll
 0000:fff58000       .debug$S                   0000000140000000     ucrt:api-ms-win-crt-stdio-l1-1-0.dll
 0000:fff58000       .debug$S                   0000000140000000     ucrt:api-ms-win-crt-stdio-l1-1-0.dll
 0000:fff58000       .debug$S                   0000000140000000     ucrt:api-ms-win-crt-stdio-l1-1-0.dll
 0000:fff58000       .debug$S                   0000000140000000     ucrt:api-ms-win-crt-stdio-l1-1-0.dll
 0000:fff58000       .debug$S                   0000000140000000     ucrt:api-ms-win-crt-stdio-l1-1-0.dll
 0000:fff58000       .debug$S                   0000000140000000     ucrt:api-ms-win-crt-string-l1-1-0.dll
 0000:fff58000       .debug$S                   0000000140000000     ucrt:api-ms-win-crt-string-l1-1-0.dll
 0000:fff58000       .debug$S                   0000000140000000     ucrt:api-ms-win-crt-string-l1-1-0.dll
 0000:fff58000       .debug$S                   0000000140000000     ucrt:api-ms-win-crt-string-l1-1-0.dll
 0000:fff58000       .debug$S                   0000000140000000     ucrt:api-ms-win-crt-string-l1-1-0.dll
 0000:fff58000       .debug$S                   0000000140000000     ucrt:api-ms-win-crt-string-l1-1-0.dll
 0000:fff58000       .debug$S                   0000000140000000     ucrt:api-ms-win-crt-string-l1-1-0.dll
 0000:fff58000       .debug$S                   0000000140000000     ucrt:api-ms-win-crt-time-l1-1-0.dll
 0000:fff58000       .debug$S                   0000000140000000     ucrt:api-ms-win-crt-utility-l1-1-0.dll
 0000:fff58000       .debug$S                   0000000140000000     ucrt:api-ms-win-crt-utility-l1-1-0.dll
 0000:fff58000       .debug$S                   0000000140000000     ucrt:api-ms-win-crt-utility-l1-1-0.dll
 0000:fff58000       .debug$S                   0000000140000000     vcruntime:VCRUNTIME140.dll
 0000:fff58000       .debug$S                   0000000140000000     vcruntime:VCRUNTIME140.dll
 0000:fff58000       .debug$S                   0000000140000000     vcruntime:VCRUNTIME140.dll
 0000:fff58000       .debug$S                   0000000140000000     vcruntime:VCRUNTIME140.dll
 0000:fff58000       .debug$S                   0000000140000000     vcruntime:VCRUNTIME140.dll
 0000:fff58000       .debug$S                   0000000140000000     vcruntime:VCRUNTIME140.dll
 0000:fff58000       .debug$S                   0000000140000000     vcruntime:VCRUNTIME140.dll
 0000:fff58000       .debug$S                   0000000140000000     vcruntime:VCRUNTIME140.dll
 0000:fff58000       .debug$S                   0000000140000000     vcruntime:VCRUNTIME140.dll
 0000:fff58000       .debug$S                   0000000140000000     vcruntime:VCRUNTIME140.dll
 0000:fff58000       .debug$S                   0000000140000000     vcruntime:VCRUNTIME140.dll
 0000:fff58000       .debug$S                   0000000140000000     vcruntime:VCRUNTIME140.dll
 0001:00000000       time                       0000000140001000 f   main.obj
 0001:00000020       ?cube_cord_index@@YAHHHHH@Z 0000000140001020 f   main.obj
 0001:00000240       ?sphere@@YAMMMM@Z          0000000140001240 f   main.obj
 0001:000002a0       ?generate_scalar_field@@YAXPEAMHP6AMMMM@Z@Z 00000001400012a0 f   main.obj
 0001:00000400       ?marching_cubes@@YA?AUMesh@@PEAMHM@Z 0000000140001400 f   main.obj
 0001:000031e0       CharCallback               00000001400041e0 f   raylib:rcore.obj
 0001:00003270       CursorEnterCallback        0000000140004270 f   raylib:rcore.obj
 0001:00003880       ErrorCallback              0000000140004880 f   raylib:rcore.obj
 0001:00004cd0       JoystickCallback           0000000140005cd0 f   raylib:rcore.obj
 0001:00004d50       KeyCallback                0000000140005d50 f   raylib:rcore.obj
 0001:000059e0       MouseButtonCallback        00000001400069e0 f   raylib:rcore.obj
 0001:00005b00       MouseCursorPosCallback     0000000140006b00 f   raylib:rcore.obj
 0001:00005c00       MouseScrollCallback        0000000140006c00 f   raylib:rcore.obj
 0001:000062a0       $LN165                     00000001400072a0     raylib:rcore.obj
 0001:000069f0       RecordAutomationEvent      00000001400079f0 f   raylib:rcore.obj
 0001:000074a0       SetupFramebuffer           00000001400084a0 f   raylib:rcore.obj
 0001:00007750       SetupViewport              0000000140008750 f   raylib:rcore.obj
 0001:00007c30       WindowDropCallback         0000000140008c30 f   raylib:rcore.obj
 0001:00007d20       WindowFocusCallback        0000000140008d20 f   raylib:rcore.obj
 0001:00007d40       WindowIconifyCallback      0000000140008d40 f   raylib:rcore.obj
 0001:00007d60       WindowMaximizeCallback     0000000140008d60 f   raylib:rcore.obj
 0001:00007da0       WindowSizeCallback         0000000140008da0 f   raylib:rcore.obj
 0001:00009a80       glad_gl_find_core_gl       000000014000aa80 f   raylib:rcore.obj
 0001:00009e20       glad_gl_find_extensions_gl 000000014000ae20 f   raylib:rcore.obj
 0001:0000f3f0       glad_gl_get_proc_from_userptr 00000001400103f0 f   raylib:rcore.obj
 0001:0000f400       glad_gl_load_GL_ARB_direct_state_access 0000000140010400 f   raylib:rcore.obj
 0001:0000fb60       glad_gl_load_GL_ARB_gpu_shader_int64 0000000140010b60 f   raylib:rcore.obj
 0001:0000fe40       glad_gl_load_GL_ARB_multitexture 0000000140010e40 f   raylib:rcore.obj
 0001:000100f0       glad_gl_load_GL_ARB_shader_objects 00000001400110f0 f   raylib:rcore.obj
 0001:00010400       glad_gl_load_GL_ARB_vertex_program 0000000140011400 f   raylib:rcore.obj
 0001:000108d0       glad_gl_load_GL_ARB_vertex_shader 00000001400118d0 f   raylib:rcore.obj
 0001:00010c70       glad_gl_load_GL_OES_fixed_point 0000000140011c70 f   raylib:rcore.obj
 0001:00011440       glad_gl_load_GL_VERSION_1_0 0000000140012440 f   raylib:rcore.obj
 0001:00011800       glad_gl_load_GL_VERSION_2_0 0000000140012800 f   raylib:rcore.obj
 0001:00011f10       glad_gl_load_GL_VERSION_3_0 0000000140012f10 f   raylib:rcore.obj
 0001:00012580       glad_gl_load_GL_VERSION_3_3 0000000140013580 f   raylib:rcore.obj
 0001:000127c0       glad_gl_load_GL_VERSION_4_0 00000001400137c0 f   raylib:rcore.obj
 0001:00012b60       glad_gl_load_GL_VERSION_4_1 0000000140013b60 f   raylib:rcore.obj
 0001:00013210       glad_gl_load_GL_VERSION_4_3 0000000140014210 f   raylib:rcore.obj
 0001:00013580       msf_compress_frame         0000000140014580 f   raylib:rcore.obj
 0001:00013d70       msf_cook_frame             0000000140014d70 f   raylib:rcore.obj
 0001:00014510       msf_free_gif_state         0000000140015510 f   raylib:rcore.obj
 0001:00014950       rgVector2Angle             0000000140015950 f   raylib:rcore.obj
 0001:0001582c       $LN47                      000000014001682c     raylib:rcore.obj
 0001:000159a0       rlGetPixelDataSize         00000001400169a0 f   raylib:rcore.obj
 0001:00015a5c       $LN35                      0000000140016a5c     raylib:rcore.obj
 0001:00016390       rlLoadShaderDefault        0000000140017390 f   raylib:rcore.obj
 0001:00016d18       $LN75                      0000000140017d18     raylib:rcore.obj
 0001:00016ec0       rlMatrixMultiply           0000000140017ec0 f   raylib:rcore.obj
 0001:00017a6c       $LN15                      0000000140018a6c     raylib:rcore.obj
 0001:000188a0       stbir__decode_uint8_linear_scaled 00000001400198a0 f   raylib:rtextures.obj
 0001:000189b0       stbir__encode_uint8_linear_scaled 00000001400199b0 f   raylib:rtextures.obj
 0001:00018ac0       stbir__decode_uint8_linear 0000000140019ac0 f   raylib:rtextures.obj
 0001:00018ba0       stbir__encode_uint8_linear 0000000140019ba0 f   raylib:rtextures.obj
 0001:00018cc0       stbir__decode_uint8_srgb   0000000140019cc0 f   raylib:rtextures.obj
 0001:00018d50       stbir__encode_uint8_srgb   0000000140019d50 f   raylib:rtextures.obj
 0001:00019230       stbir__decode_uint8_srgb4_linearalpha 000000014001a230 f   raylib:rtextures.obj
 0001:000192a0       stbir__encode_uint8_srgb4_linearalpha 000000014001a2a0 f   raylib:rtextures.obj
 0001:000196f0       stbir__decode_uint8_srgb2_linearalpha 000000014001a6f0 f   raylib:rtextures.obj
 0001:000198d0       stbir__encode_uint8_srgb2_linearalpha 000000014001a8d0 f   raylib:rtextures.obj
 0001:00019c20       stbir__decode_uint16_linear_scaled 000000014001ac20 f   raylib:rtextures.obj
 0001:00019d00       stbir__encode_uint16_linear_scaled 000000014001ad00 f   raylib:rtextures.obj
 0001:00019e30       stbir__decode_uint16_linear 000000014001ae30 f   raylib:rtextures.obj
 0001:00019ef0       stbir__encode_uint16_linear 000000014001aef0 f   raylib:rtextures.obj
 0001:0001a020       stbir__decode_half_float_linear 000000014001b020 f   raylib:rtextures.obj
 0001:0001a3a0       stbir__encode_half_float_linear 000000014001b3a0 f   raylib:rtextures.obj
 0001:0001a940       stbir__decode_float_linear 000000014001b940 f   raylib:rtextures.obj
 0001:0001a940       stbir__encode_float_linear 000000014001b940 f   raylib:rtextures.obj
 0001:0001a960       stbir__decode_uint8_linear_scaled_BGRA 000000014001b960 f   raylib:rtextures.obj
 0001:0001aab0       stbir__encode_uint8_linear_scaled_BGRA 000000014001bab0 f   raylib:rtextures.obj
 0001:0001aba0       stbir__decode_uint8_linear_BGRA 000000014001bba0 f   raylib:rtextures.obj
 0001:0001ac90       stbir__encode_uint8_linear_BGRA 000000014001bc90 f   raylib:rtextures.obj
 0001:0001ad70       stbir__decode_uint8_srgb_BGRA 000000014001bd70 f   raylib:rtextures.obj
 0001:0001aef0       stbir__encode_uint8_srgb_BGRA 000000014001bef0 f   raylib:rtextures.obj
 0001:0001b370       stbir__decode_uint8_srgb4_linearalpha_BGRA 000000014001c370 f   raylib:rtextures.obj
 0001:0001b3e0       stbir__encode_uint8_srgb4_linearalpha_BGRA 000000014001c3e0 f   raylib:rtextures.obj
 0001:0001b830       stbir__decode_uint16_linear_scaled_BGRA 000000014001c830 f   raylib:rtextures.obj
 0001:0001b910       stbir__encode_uint16_linear_scaled_BGRA 000000014001c910 f   raylib:rtextures.obj
 0001:0001ba30       stbir__decode_uint16_linear_BGRA 000000014001ca30 f   raylib:rtextures.obj
 0001:0001baf0       stbir__encode_uint16_linear_BGRA 000000014001caf0 f   raylib:rtextures.obj
 0001:0001bc10       stbir__decode_half_float_linear_BGRA 000000014001cc10 f   raylib:rtextures.obj
 0001:0001bf40       stbir__encode_half_float_linear_BGRA 000000014001cf40 f   raylib:rtextures.obj
 0001:0001c390       stbir__decode_float_linear_BGRA 000000014001d390 f   raylib:rtextures.obj
 0001:0001c450       stbir__encode_float_linear_BGRA 000000014001d450 f   raylib:rtextures.obj
 0001:0001c4d0       stbir__decode_uint8_linear_scaled_ARGB 000000014001d4d0 f   raylib:rtextures.obj
 0001:0001c620       stbir__encode_uint8_linear_scaled_ARGB 000000014001d620 f   raylib:rtextures.obj
 0001:0001c710       stbir__decode_uint8_linear_ARGB 000000014001d710 f   raylib:rtextures.obj
 0001:0001c800       stbir__encode_uint8_linear_ARGB 000000014001d800 f   raylib:rtextures.obj
 0001:0001c8e0       stbir__decode_uint8_srgb_ARGB 000000014001d8e0 f   raylib:rtextures.obj
 0001:0001ca60       stbir__encode_uint8_srgb_ARGB 000000014001da60 f   raylib:rtextures.obj
 0001:0001cee0       stbir__decode_uint8_srgb4_linearalpha_ARGB 000000014001dee0 f   raylib:rtextures.obj
 0001:0001cf50       stbir__encode_uint8_srgb4_linearalpha_ARGB 000000014001df50 f   raylib:rtextures.obj
 0001:0001d3a0       stbir__decode_uint16_linear_scaled_ARGB 000000014001e3a0 f   raylib:rtextures.obj
 0001:0001d480       stbir__encode_uint16_linear_scaled_ARGB 000000014001e480 f   raylib:rtextures.obj
 0001:0001d5a0       stbir__decode_uint16_linear_ARGB 000000014001e5a0 f   raylib:rtextures.obj
 0001:0001d660       stbir__encode_uint16_linear_ARGB 000000014001e660 f   raylib:rtextures.obj
 0001:0001d780       stbir__decode_half_float_linear_ARGB 000000014001e780 f   raylib:rtextures.obj
 0001:0001dab0       stbir__encode_half_float_linear_ARGB 000000014001eab0 f   raylib:rtextures.obj
 0001:0001df00       stbir__decode_float_linear_ARGB 000000014001ef00 f   raylib:rtextures.obj
 0001:0001dfc0       stbir__encode_float_linear_ARGB 000000014001efc0 f   raylib:rtextures.obj
 0001:0001e040       stbir__decode_uint8_linear_scaled_ABGR 000000014001f040 f   raylib:rtextures.obj
 0001:0001e190       stbir__encode_uint8_linear_scaled_ABGR 000000014001f190 f   raylib:rtextures.obj
 0001:0001e280       stbir__decode_uint8_linear_ABGR 000000014001f280 f   raylib:rtextures.obj
 0001:0001e370       stbir__encode_uint8_linear_ABGR 000000014001f370 f   raylib:rtextures.obj
 0001:0001e450       stbir__decode_uint8_srgb_ABGR 000000014001f450 f   raylib:rtextures.obj
 0001:0001e5d0       stbir__encode_uint8_srgb_ABGR 000000014001f5d0 f   raylib:rtextures.obj
 0001:0001ea50       stbir__decode_uint8_srgb4_linearalpha_ABGR 000000014001fa50 f   raylib:rtextures.obj
 0001:0001eac0       stbir__encode_uint8_srgb4_linearalpha_ABGR 000000014001fac0 f   raylib:rtextures.obj
 0001:0001ef10       stbir__decode_uint16_linear_scaled_ABGR 000000014001ff10 f   raylib:rtextures.obj
 0001:0001eff0       stbir__encode_uint16_linear_scaled_ABGR 000000014001fff0 f   raylib:rtextures.obj
 0001:0001f110       stbir__decode_uint16_linear_ABGR 0000000140020110 f   raylib:rtextures.obj
 0001:0001f1d0       stbir__encode_uint16_linear_ABGR 00000001400201d0 f   raylib:rtextures.obj
 0001:0001f2f0       stbir__decode_half_float_linear_ABGR 00000001400202f0 f   raylib:rtextures.obj
 0001:0001f620       stbir__encode_half_float_linear_ABGR 0000000140020620 f   raylib:rtextures.obj
 0001:0001fa70       stbir__decode_float_linear_ABGR 0000000140020a70 f   raylib:rtextures.obj
 0001:0001fb30       stbir__encode_float_linear_ABGR 0000000140020b30 f   raylib:rtextures.obj
 0001:0001fbb0       stbir__decode_uint8_linear_scaled_AR 0000000140020bb0 f   raylib:rtextures.obj
 0001:0001fd40       stbir__encode_uint8_linear_scaled_AR 0000000140020d40 f   raylib:rtextures.obj
 0001:0001fe70       stbir__decode_uint8_linear_AR 0000000140020e70 f   raylib:rtextures.obj
 0001:0001ffa0       stbir__encode_uint8_linear_AR 0000000140020fa0 f   raylib:rtextures.obj
 0001:000200f0       stbi__stdio_read           00000001400210f0 f   raylib:rtextures.obj
 0001:00020110       stbi__stdio_skip           0000000140021110 f   raylib:rtextures.obj
 0001:00020150       stbi__stdio_eof            0000000140021150 f   raylib:rtextures.obj
 0001:00020190       stbir__decode_uint8_srgb_AR 0000000140021190 f   raylib:rtextures.obj
 0001:00020320       stbir__encode_uint8_srgb_AR 0000000140021320 f   raylib:rtextures.obj
 0001:00020860       stbir__decode_uint8_srgb2_linearalpha_AR 0000000140021860 f   raylib:rtextures.obj
 0001:00020a40       stbir__encode_uint8_srgb2_linearalpha_AR 0000000140021a40 f   raylib:rtextures.obj
 0001:00020d70       stbir__decode_uint16_linear_scaled_AR 0000000140021d70 f   raylib:rtextures.obj
 0001:00020ea0       stbir__encode_uint16_linear_scaled_AR 0000000140021ea0 f   raylib:rtextures.obj
 0001:00021020       stbir__decode_uint16_linear_AR 0000000140022020 f   raylib:rtextures.obj
 0001:00021120       stbir__encode_uint16_linear_AR 0000000140022120 f   raylib:rtextures.obj
 0001:000212b0       stbir__decode_half_float_linear_AR 00000001400222b0 f   raylib:rtextures.obj
 0001:00021690       stbir__encode_half_float_linear_AR 0000000140022690 f   raylib:rtextures.obj
 0001:00021c20       stbir__decode_float_linear_AR 0000000140022c20 f   raylib:rtextures.obj
 0001:00021cf0       stbir__encode_float_linear_AR 0000000140022cf0 f   raylib:rtextures.obj
 0001:00021da0       stbir__fancy_alpha_weight_4ch 0000000140022da0 f   raylib:rtextures.obj
 0001:00021e20       stbir__fancy_alpha_weight_2ch 0000000140022e20 f   raylib:rtextures.obj
 0001:00021ee0       stbir__fancy_alpha_unweight_4ch 0000000140022ee0 f   raylib:rtextures.obj
 0001:00021f40       stbir__fancy_alpha_unweight_2ch 0000000140022f40 f   raylib:rtextures.obj
 0001:00021f90       stbir__simple_alpha_weight_4ch 0000000140022f90 f   raylib:rtextures.obj
 0001:00022000       stbir__simple_alpha_weight_2ch 0000000140023000 f   raylib:rtextures.obj
 0001:00022080       stbir__simple_alpha_unweight_4ch 0000000140023080 f   raylib:rtextures.obj
 0001:000220d0       stbir__simple_alpha_unweight_2ch 00000001400230d0 f   raylib:rtextures.obj
 0001:00022100       stbir__horizontal_gather_1_channels_with_1_coeff 0000000140023100 f   raylib:rtextures.obj
 0001:00022150       stbir__horizontal_gather_1_channels_with_2_coeffs 0000000140023150 f   raylib:rtextures.obj
 0001:000221a0       stbir__horizontal_gather_1_channels_with_3_coeffs 00000001400231a0 f   raylib:rtextures.obj
 0001:00022200       stbir__horizontal_gather_1_channels_with_4_coeffs 0000000140023200 f   raylib:rtextures.obj
 0001:00022260       stbir__horizontal_gather_1_channels_with_5_coeffs 0000000140023260 f   raylib:rtextures.obj
 0001:000222d0       stbir__horizontal_gather_1_channels_with_6_coeffs 00000001400232d0 f   raylib:rtextures.obj
 0001:00022340       stbir__horizontal_gather_1_channels_with_7_coeffs 0000000140023340 f   raylib:rtextures.obj
 0001:000223b0       stbir__horizontal_gather_1_channels_with_8_coeffs 00000001400233b0 f   raylib:rtextures.obj
 0001:00022420       stbir__horizontal_gather_1_channels_with_9_coeffs 0000000140023420 f   raylib:rtextures.obj
 0001:000224a0       stbir__horizontal_gather_1_channels_with_10_coeffs 00000001400234a0 f   raylib:rtextures.obj
 0001:00022520       stbir__horizontal_gather_1_channels_with_11_coeffs 0000000140023520 f   raylib:rtextures.obj
 0001:000225a0       stbir__horizontal_gather_1_channels_with_12_coeffs 00000001400235a0 f   raylib:rtextures.obj
 0001:00022620       stbir__horizontal_gather_1_channels_with_n_coeffs_mod0 0000000140023620 f   raylib:rtextures.obj
 0001:000226c0       stbir__horizontal_gather_1_channels_with_n_coeffs_mod1 00000001400236c0 f   raylib:rtextures.obj
 0001:00022780       stbir__horizontal_gather_1_channels_with_n_coeffs_mod2 0000000140023780 f   raylib:rtextures.obj
 0001:00022840       stbir__horizontal_gather_1_channels_with_n_coeffs_mod3 0000000140023840 f   raylib:rtextures.obj
 0001:000228f0       stbir__horizontal_gather_2_channels_with_1_coeff 00000001400238f0 f   raylib:rtextures.obj
 0001:00022950       stbir__horizontal_gather_2_channels_with_2_coeffs 0000000140023950 f   raylib:rtextures.obj
 0001:000229b0       stbir__horizontal_gather_2_channels_with_3_coeffs 00000001400239b0 f   raylib:rtextures.obj
 0001:00022a20       stbir__horizontal_gather_2_channels_with_4_coeffs 0000000140023a20 f   raylib:rtextures.obj
 0001:00022a90       stbir__horizontal_gather_2_channels_with_5_coeffs 0000000140023a90 f   raylib:rtextures.obj
 0001:00022b10       stbir__horizontal_gather_2_channels_with_6_coeffs 0000000140023b10 f   raylib:rtextures.obj
 0001:00022b90       stbir__horizontal_gather_2_channels_with_7_coeffs 0000000140023b90 f   raylib:rtextures.obj
 0001:00022c20       stbir__horizontal_gather_2_channels_with_8_coeffs 0000000140023c20 f   raylib:rtextures.obj
 0001:00022cb0       stbir__horizontal_gather_2_channels_with_9_coeffs 0000000140023cb0 f   raylib:rtextures.obj
 0001:00022d60       stbir__horizontal_gather_2_channels_with_10_coeffs 0000000140023d60 f   raylib:rtextures.obj
 0001:00022e10       stbir__horizontal_gather_2_channels_with_11_coeffs 0000000140023e10 f   raylib:rtextures.obj
 0001:00022ed0       stbir__horizontal_gather_2_channels_with_12_coeffs 0000000140023ed0 f   raylib:rtextures.obj
 0001:00022f90       stbir__horizontal_gather_2_channels_with_n_coeffs_mod0 0000000140023f90 f   raylib:rtextures.obj
 0001:00023060       stbir__horizontal_gather_2_channels_with_n_coeffs_mod1 0000000140024060 f   raylib:rtextures.obj
 0001:00023150       stbir__horizontal_gather_2_channels_with_n_coeffs_mod2 0000000140024150 f   raylib:rtextures.obj
 0001:00023240       stbir__horizontal_gather_2_channels_with_n_coeffs_mod3 0000000140024240 f   raylib:rtextures.obj
 0001:00023340       stbir__horizontal_gather_3_channels_with_1_coeff 0000000140024340 f   raylib:rtextures.obj
 0001:000233a0       stbir__horizontal_gather_3_channels_with_2_coeffs 00000001400243a0 f   raylib:rtextures.obj
 0001:00023410       stbir__horizontal_gather_3_channels_with_3_coeffs 0000000140024410 f   raylib:rtextures.obj
 0001:000234a0       stbir__horizontal_gather_3_channels_with_4_coeffs 00000001400244a0 f   raylib:rtextures.obj
 0001:00023560       stbir__horizontal_gather_3_channels_with_5_coeffs 0000000140024560 f   raylib:rtextures.obj
 0001:00023630       stbir__horizontal_gather_3_channels_with_6_coeffs 0000000140024630 f   raylib:rtextures.obj
 0001:00023710       stbir__horizontal_gather_3_channels_with_7_coeffs 0000000140024710 f   raylib:rtextures.obj
 0001:00023810       stbir__horizontal_gather_3_channels_with_8_coeffs 0000000140024810 f   raylib:rtextures.obj
 0001:00023910       stbir__horizontal_gather_3_channels_with_9_coeffs 0000000140024910 f   raylib:rtextures.obj
 0001:00023a20       stbir__horizontal_gather_3_channels_with_10_coeffs 0000000140024a20 f   raylib:rtextures.obj
 0001:00023b40       stbir__horizontal_gather_3_channels_with_11_coeffs 0000000140024b40 f   raylib:rtextures.obj
 0001:00023c70       stbir__horizontal_gather_3_channels_with_12_coeffs 0000000140024c70 f   raylib:rtextures.obj
 0001:00023da0       stbir__horizontal_gather_3_channels_with_n_coeffs_mod0 0000000140024da0 f   raylib:rtextures.obj
 0001:00023ec0       stbir__horizontal_gather_3_channels_with_n_coeffs_mod1 0000000140024ec0 f   raylib:rtextures.obj
 0001:00023ff0       stbir__horizontal_gather_3_channels_with_n_coeffs_mod2 0000000140024ff0 f   raylib:rtextures.obj
 0001:00024130       stbir__horizontal_gather_3_channels_with_n_coeffs_mod3 0000000140025130 f   raylib:rtextures.obj
 0001:00024280       stbir__horizontal_gather_4_channels_with_1_coeff 0000000140025280 f   raylib:rtextures.obj
 0001:000242d0       stbir__horizontal_gather_4_channels_with_2_coeffs 00000001400252d0 f   raylib:rtextures.obj
 0001:00024330       stbir__horizontal_gather_4_channels_with_3_coeffs 0000000140025330 f   raylib:rtextures.obj
 0001:000243a0       stbir__horizontal_gather_4_channels_with_4_coeffs 00000001400253a0 f   raylib:rtextures.obj
 0001:00024420       stbir__horizontal_gather_4_channels_with_5_coeffs 0000000140025420 f   raylib:rtextures.obj
 0001:000244c0       stbir__horizontal_gather_4_channels_with_6_coeffs 00000001400254c0 f   raylib:rtextures.obj
 0001:00024570       stbir__horizontal_gather_4_channels_with_7_coeffs 0000000140025570 f   raylib:rtextures.obj
 0001:00024630       stbir__horizontal_gather_4_channels_with_8_coeffs 0000000140025630 f   raylib:rtextures.obj
 0001:00024720       stbir__horizontal_gather_4_channels_with_9_coeffs 0000000140025720 f   raylib:rtextures.obj
 0001:00024820       stbir__horizontal_gather_4_channels_with_10_coeffs 0000000140025820 f   raylib:rtextures.obj
 0001:00024940       stbir__horizontal_gather_4_channels_with_11_coeffs 0000000140025940 f   raylib:rtextures.obj
 0001:00024a70       stbir__horizontal_gather_4_channels_with_12_coeffs 0000000140025a70 f   raylib:rtextures.obj
 0001:00024bb0       stbir__horizontal_gather_4_channels_with_n_coeffs_mod0 0000000140025bb0 f   raylib:rtextures.obj
 0001:00024cc0       stbir__horizontal_gather_4_channels_with_n_coeffs_mod1 0000000140025cc0 f   raylib:rtextures.obj
 0001:00024de0       stbir__horizontal_gather_4_channels_with_n_coeffs_mod2 0000000140025de0 f   raylib:rtextures.obj
 0001:00024f10       stbir__horizontal_gather_4_channels_with_n_coeffs_mod3 0000000140025f10 f   raylib:rtextures.obj
 0001:00025050       stbir__horizontal_gather_7_channels_with_1_coeff 0000000140026050 f   raylib:rtextures.obj
 0001:000250b0       stbir__horizontal_gather_7_channels_with_2_coeffs 00000001400260b0 f   raylib:rtextures.obj
 0001:00025130       stbir__horizontal_gather_7_channels_with_3_coeffs 0000000140026130 f   raylib:rtextures.obj
 0001:000251d0       stbir__horizontal_gather_7_channels_with_4_coeffs 00000001400261d0 f   raylib:rtextures.obj
 0001:00025290       stbir__horizontal_gather_7_channels_with_5_coeffs 0000000140026290 f   raylib:rtextures.obj
 0001:00025380       stbir__horizontal_gather_7_channels_with_6_coeffs 0000000140026380 f   raylib:rtextures.obj
 0001:00025490       stbir__horizontal_gather_7_channels_with_7_coeffs 0000000140026490 f   raylib:rtextures.obj
 0001:000255c0       stbir__horizontal_gather_7_channels_with_8_coeffs 00000001400265c0 f   raylib:rtextures.obj
 0001:00025710       stbir__horizontal_gather_7_channels_with_9_coeffs 0000000140026710 f   raylib:rtextures.obj
 0001:000258a0       stbir__horizontal_gather_7_channels_with_10_coeffs 00000001400268a0 f   raylib:rtextures.obj
 0001:00025a50       stbir__horizontal_gather_7_channels_with_11_coeffs 0000000140026a50 f   raylib:rtextures.obj
 0001:00025c20       stbir__horizontal_gather_7_channels_with_12_coeffs 0000000140026c20 f   raylib:rtextures.obj
 0001:00025e10       stbir__horizontal_gather_7_channels_with_n_coeffs_mod0 0000000140026e10 f   raylib:rtextures.obj
 0001:00025f70       stbir__horizontal_gather_7_channels_with_n_coeffs_mod1 0000000140026f70 f   raylib:rtextures.obj
 0001:000260f0       stbir__horizontal_gather_7_channels_with_n_coeffs_mod2 00000001400270f0 f   raylib:rtextures.obj
 0001:00026290       stbir__horizontal_gather_7_channels_with_n_coeffs_mod3 0000000140027290 f   raylib:rtextures.obj
 0001:00026450       stbir__vertical_scatter_with_1_coeffs 0000000140027450 f   raylib:rtextures.obj
 0001:00026510       stbir__vertical_gather_with_1_coeffs 0000000140027510 f   raylib:rtextures.obj
 0001:000265f0       stbir__vertical_scatter_with_1_coeffs_cont 00000001400275f0 f   raylib:rtextures.obj
 0001:000266f0       stbir__vertical_gather_with_1_coeffs_cont 00000001400276f0 f   raylib:rtextures.obj
 0001:000267e0       stbir__vertical_scatter_with_2_coeffs 00000001400277e0 f   raylib:rtextures.obj
 0001:00026940       stbir__vertical_gather_with_2_coeffs 0000000140027940 f   raylib:rtextures.obj
 0001:00026aa0       stbir__vertical_scatter_with_2_coeffs_cont 0000000140027aa0 f   raylib:rtextures.obj
 0001:00026c80       stbir__vertical_gather_with_2_coeffs_cont 0000000140027c80 f   raylib:rtextures.obj
 0001:00026e20       stbir__vertical_scatter_with_3_coeffs 0000000140027e20 f   raylib:rtextures.obj
 0001:00027000       stbir__vertical_gather_with_3_coeffs 0000000140028000 f   raylib:rtextures.obj
 0001:00027210       stbir__vertical_scatter_with_3_coeffs_cont 0000000140028210 f   raylib:rtextures.obj
 0001:000274a0       stbir__vertical_gather_with_3_coeffs_cont 00000001400284a0 f   raylib:rtextures.obj
 0001:000276e0       stbir__vertical_scatter_with_4_coeffs 00000001400286e0 f   raylib:rtextures.obj
 0001:00027930       stbir__vertical_gather_with_4_coeffs 0000000140028930 f   raylib:rtextures.obj
 0001:00027bd0       stbir__vertical_scatter_with_4_coeffs_cont 0000000140028bd0 f   raylib:rtextures.obj
 0001:00027f20       stbir__vertical_gather_with_4_coeffs_cont 0000000140028f20 f   raylib:rtextures.obj
 0001:000281f0       stbir__vertical_scatter_with_5_coeffs 00000001400291f0 f   raylib:rtextures.obj
 0001:000284c0       stbir__vertical_gather_with_5_coeffs 00000001400294c0 f   raylib:rtextures.obj
 0001:00028800       stbir__vertical_scatter_with_5_coeffs_cont 0000000140029800 f   raylib:rtextures.obj
 0001:00028bf0       stbir__vertical_gather_with_5_coeffs_cont 0000000140029bf0 f   raylib:rtextures.obj
 0001:00028f40       stbir__vertical_scatter_with_6_coeffs 0000000140029f40 f   raylib:rtextures.obj
 0001:000292b0       stbir__vertical_gather_with_6_coeffs 000000014002a2b0 f   raylib:rtextures.obj
 0001:00029660       stbir__vertical_scatter_with_6_coeffs_cont 000000014002a660 f   raylib:rtextures.obj
 0001:00029af0       stbir__vertical_gather_with_6_coeffs_cont 000000014002aaf0 f   raylib:rtextures.obj
 0001:00029ed0       stbir__vertical_scatter_with_7_coeffs 000000014002aed0 f   raylib:rtextures.obj
 0001:0002a2c0       stbir__vertical_gather_with_7_coeffs 000000014002b2c0 f   raylib:rtextures.obj
 0001:0002a6f0       stbir__vertical_scatter_with_7_coeffs_cont 000000014002b6f0 f   raylib:rtextures.obj
 0001:0002ac30       stbir__vertical_gather_with_7_coeffs_cont 000000014002bc30 f   raylib:rtextures.obj
 0001:0002b0a0       stbir__vertical_scatter_with_8_coeffs 000000014002c0a0 f   raylib:rtextures.obj
 0001:0002b510       stbir__vertical_gather_with_8_coeffs 000000014002c510 f   raylib:rtextures.obj
 0001:0002b9e0       stbir__filter_trapezoid    000000014002c9e0 f   raylib:rtextures.obj
 0001:0002ba30       stbir__support_trapezoid   000000014002ca30 f   raylib:rtextures.obj
 0001:0002ba50       stbir__filter_triangle     000000014002ca50 f   raylib:rtextures.obj
 0001:0002ba80       stbir__filter_point        000000014002ca80 f   raylib:rtextures.obj
 0001:0002ba80       stbir__support_one         000000014002ca80 f   raylib:rtextures.obj
 0001:0002ba90       stbir__filter_cubic        000000014002ca90 f   raylib:rtextures.obj
 0001:0002bb20       stbir__filter_catmullrom   000000014002cb20 f   raylib:rtextures.obj
 0001:0002bba0       stbir__filter_mitchell     000000014002cba0 f   raylib:rtextures.obj
 0001:0002bc40       stbir__support_zeropoint5  000000014002cc40 f   raylib:rtextures.obj
 0001:0002bc50       stbir__support_two         000000014002cc50 f   raylib:rtextures.obj
 0001:0002bc60       stbir__vertical_scatter_with_8_coeffs_cont 000000014002cc60 f   raylib:rtextures.obj
 0001:0002c240       extensionSupportedOSMesa   000000014002d240 f   raylib:rglfw.obj
 0001:0002c240       stbir__edge_zero_full      000000014002d240 f   raylib:rtextures.obj
 0001:0002c250       stbir__edge_clamp_full     000000014002d250 f   raylib:rtextures.obj
 0001:0002c270       stbir__edge_reflect_full   000000014002d270 f   raylib:rtextures.obj
 0001:0002c2b0       stbir__edge_wrap_full      000000014002d2b0 f   raylib:rtextures.obj
 0001:0002c2e0       stbir__vertical_gather_with_8_coeffs_cont 000000014002d2e0 f   raylib:rtextures.obj
 0001:0002cf7c       $LN35                      000000014002df7c     raylib:rtextures.obj
 0001:0002d950       $LN73                      000000014002e950     raylib:rtextures.obj
 0001:0002f690       stbiw__encode_png_line     0000000140030690 f   raylib:rtextures.obj
 0001:0002f958       $LN84                      0000000140030958     raylib:rtextures.obj
 0001:0002f970       $LN83                      0000000140030970     raylib:rtextures.obj
 0001:0002f990       stbiw__paeth               0000000140030990 f   raylib:rtextures.obj
 0001:00031498       $LN22                      0000000140032498     raylib:utils.obj
 0001:000340d8       $LN17                      00000001400350d8     raylib:rglfw.obj
 0001:00034aac       $LN44                      0000000140035aac     raylib:rglfw.obj
 0001:00034bf0       swapBuffersOSMesa          0000000140035bf0 f   raylib:rglfw.obj
 0001:00034bf0       swapIntervalOSMesa         0000000140035bf0 f   raylib:rglfw.obj
 0001:00035a1c       $LN31                      0000000140036a1c     raylib:rglfw.obj
 0001:0003af00       acquireMonitor             000000014003bf00 f   raylib:rglfw.obj
 0001:0003af80       applyAspectRatio           000000014003bf80 f   raylib:rglfw.obj
 0001:0003b130       captureCursor              000000014003c130 f   raylib:rglfw.obj
 0001:0003b1b0       chooseEGLConfig            000000014003c1b0 f   raylib:rglfw.obj
 0001:0003b590       chooseImage                000000014003c590 f   raylib:rglfw.obj
 0001:0003b600       choosePixelFormatWGL       000000014003c600 f   raylib:rglfw.obj
 0001:0003bbe0       closeJoystick              000000014003cbe0 f   raylib:rglfw.obj
 0001:0003bcc0       compareJoystickObjects     000000014003ccc0 f   raylib:rglfw.obj
 0001:0003bce0       compareVideoModes          000000014003cce0 f   raylib:rglfw.obj
 0001:0003bd60       createIcon                 000000014003cd60 f   raylib:rglfw.obj
 0001:0003bf90       createKeyTables            000000014003cf90 f   raylib:rglfw.obj
 0001:0003c290       createMonitor              000000014003d290 f   raylib:rglfw.obj
 0001:0003c5d0       createNativeWindow         000000014003d5d0 f   raylib:rglfw.obj
 0001:0003cbe0       cursorInContentArea        000000014003dbe0 f   raylib:rglfw.obj
 0001:0003cc80       defaultAllocate            000000014003dc80 f   raylib:rglfw.obj
 0001:0003cc90       defaultDeallocate          000000014003dc90 f   raylib:rglfw.obj
 0001:0003cca0       defaultReallocate          000000014003dca0 f   raylib:rglfw.obj
 0001:0003ccb0       destroyContextEGL          000000014003dcb0 f   raylib:rglfw.obj
 0001:0003cd40       destroyContextOSMesa       000000014003dd40 f   raylib:rglfw.obj
 0001:0003cd90       destroyContextWGL          000000014003dd90 f   raylib:rglfw.obj
 0001:0003cdc0       deviceCallback             000000014003ddc0 f   raylib:rglfw.obj
 0001:0003d1f0       deviceObjectCallback       000000014003e1f0 f   raylib:rglfw.obj
 0001:0003d400       disableCursor              000000014003e400 f   raylib:rglfw.obj
 0001:0003d530       disableRawMouseMotion      000000014003e530 f   raylib:rglfw.obj
 0001:0003d580       enableCursor               000000014003e580 f   raylib:rglfw.obj
 0001:0003d690       enableRawMouseMotion       000000014003e690 f   raylib:rglfw.obj
 0001:0003d6e0       extensionSupportedEGL      000000014003e6e0 f   raylib:rglfw.obj
 0001:0003d720       extensionSupportedWGL      000000014003e720 f   raylib:rglfw.obj
 0001:0003d770       findMapping                000000014003e770 f   raylib:rglfw.obj
 0001:0003d800       findPixelFormatAttribValueWGL 000000014003e800 f   raylib:rglfw.obj
 0001:0003d930       findValidMapping           000000014003e930 f   raylib:rglfw.obj
 0001:0003d9f0       fitToMonitor               000000014003e9f0 f   raylib:rglfw.obj
 0001:0003da90       getEGLErrorString          000000014003ea90 f   raylib:rglfw.obj
 0001:0003db38       $LN21                      000000014003eb38     raylib:rglfw.obj
 0001:0003db80       getKeyMods                 000000014003eb80 f   raylib:rglfw.obj
 0001:0003dc30       getProcAddressEGL          000000014003ec30 f   raylib:rglfw.obj
 0001:0003dc80       getProcAddressOSMesa       000000014003ec80 f   raylib:rglfw.obj
 0001:0003dc90       getProcAddressWGL          000000014003ec90 f   raylib:rglfw.obj
 0001:0003dcc0       getWindowStyle             000000014003ecc0 f   raylib:rglfw.obj
 0001:00040010       $LN54                      0000000140041010     raylib:rglfw.obj
 0001:0004004c       $LN53                      000000014004104c     raylib:rglfw.obj
 0001:00040088       $LN52                      0000000140041088     raylib:rglfw.obj
 0001:000400f0       helperWindowProc           00000001400410f0 f   raylib:rglfw.obj
 0001:000401c0       loadLibraries              00000001400411c0 f   raylib:rglfw.obj
 0001:00040500       makeContextCurrentEGL      0000000140041500 f   raylib:rglfw.obj
 0001:000405b0       makeContextCurrentOSMesa   00000001400415b0 f   raylib:rglfw.obj
 0001:00040700       makeContextCurrentWGL      0000000140041700 f   raylib:rglfw.obj
 0001:00040780       monitorCallback            0000000140041780 f   raylib:rglfw.obj
 0001:00040850       parseMapping               0000000140041850 f   raylib:rglfw.obj
 0001:00041030       refreshVideoModes          0000000140042030 f   raylib:rglfw.obj
 0001:000410d0       releaseMonitor             00000001400420d0 f   raylib:rglfw.obj
 0001:00041160       supportsXInput             0000000140042160 f   raylib:rglfw.obj
 0001:00041350       swapBuffersEGL             0000000140042350 f   raylib:rglfw.obj
 0001:000413a0       swapBuffersWGL             00000001400423a0 f   raylib:rglfw.obj
 0001:00041430       swapIntervalEGL            0000000140042430 f   raylib:rglfw.obj
 0001:00041440       swapIntervalWGL            0000000140042440 f   raylib:rglfw.obj
 0001:000414d0       terminate                  00000001400424d0 f   raylib:rglfw.obj
 0001:000416f0       updateCursorImage          00000001400426f0 f   raylib:rglfw.obj
 0001:00041750       updateFramebufferTransparency 0000000140042750 f   raylib:rglfw.obj
 0001:00041850       updateWindowStyles         0000000140042850 f   raylib:rglfw.obj
 0001:000419d0       windowProc                 00000001400429d0 f   raylib:rglfw.obj
 0001:00042a10       $LN357                     0000000140043a10     raylib:rglfw.obj
 0001:00042a44       $LN356                     0000000140043a44     raylib:rglfw.obj
 0001:00042ac8       $LN355                     0000000140043ac8     raylib:rglfw.obj
 0001:00042af0       $LN354                     0000000140043af0     raylib:rglfw.obj
 0001:00042b24       $LN353                     0000000140043b24     raylib:rglfw.obj
 0001:00042c90       $$000000                   0000000140043c90     msvcrt:amdsecgs.obj
 0001:00042cc0       ?pre_c_initialization@@YAHXZ 0000000140043cc0 f   msvcrt:exe_main.obj
 0001:00042d78       ?post_pgo_initialization@@YAHXZ 0000000140043d78 f   msvcrt:exe_main.obj
 0001:00042d88       ?pre_cpp_initialization@@YAXXZ 0000000140043d88 f   msvcrt:exe_main.obj
 0001:00042da4       ?__scrt_common_main_seh@@YAHXZ 0000000140043da4 f   msvcrt:exe_main.obj
 0001:000430ec       capture_current_context    00000001400440ec f   msvcrt:gs_report.obj
 0001:0004315c       capture_previous_context   000000014004415c f   msvcrt:gs_report.obj
 0001:000431d0       $$000000                   00000001400441d0     msvcrt:chkstk.obj
 0001:00043b00       $$000000                   0000000140044b00     msvcrt:guard_dispatch.obj
 0001:00043b20       $$000000                   0000000140044b20     msvcrt:guard_xfg_dispatch.obj
 0001:00043b36       ?filt$0@?0??__scrt_common_main_seh@@YAHXZ@4HA 0000000140044b36 f   msvcrt:exe_main.obj
 0001:00043b54       __scrt_is_nonwritable_in_current_image$filt$0 0000000140044b54 f   msvcrt:utility.obj
 0002:00000748       ?pre_cpp_initializer@@3P6AXXZEA 0000000140045748     msvcrt:exe_main.obj
 0002:00000760       ?pre_c_initializer@@3P6AHXZEA 0000000140045760     msvcrt:exe_main.obj
 0002:00000768       ?post_pgo_initializer@@3P6AHXZEA 0000000140045768     msvcrt:exe_main.obj
 0002:000007a0       $SG9567                    00000001400457a0     main.obj
 0002:00000a40       ?rdepthsArray@?1??msf_cook_frame@@9@9 0000000140045a40     raylib:rcore.obj
 0002:00000a90       ?gdepthsArray@?1??msf_cook_frame@@9@9 0000000140045a90     raylib:rcore.obj
 0002:00000ae0       ?bdepthsArray@?1??msf_cook_frame@@9@9 0000000140045ae0     raylib:rcore.obj
 0002:00000b30       ?ditherKernel@?1??msf_cook_frame@@9@9 0000000140045b30     raylib:rcore.obj
 0002:00000b70       ?order@?1??sinfl_decompress@@9@9 0000000140045b70     raylib:rcore.obj
 0002:00000b90       ?dbase@?1??sinfl_decompress@@9@9 0000000140045b90     raylib:rcore.obj
 0002:00000bd0       ?dbits@?1??sinfl_decompress@@9@9 0000000140045bd0     raylib:rcore.obj
 0002:00000bf0       ?lbase@?1??sinfl_decompress@@9@9 0000000140045bf0     raylib:rcore.obj
 0002:00000c30       ?lbits@?1??sinfl_decompress@@9@9 0000000140045c30     raylib:rcore.obj
 0002:00000c50       ?dxmax@?1??sdefl_match_codes@@9@9 0000000140045c50     raylib:rcore.obj
 0002:00000c70       ?lslot@?1??sdefl_match_codes@@9@9 0000000140045c70     raylib:rcore.obj
 0002:00000d78       ?x_pre_bits@?1??sdefl_blk_type@@9@9 0000000140045d78     raylib:rcore.obj
 0002:00000d90       ?lxn@?1??sdefl_match@@9@9  0000000140045d90     raylib:rcore.obj
 0002:00000db0       ?lmin@?1??sdefl_match@@9@9 0000000140045db0     raylib:rcore.obj
 0002:00000df0       ?dmin@?1??sdefl_match@@9@9 0000000140045df0     raylib:rcore.obj
 0002:00000e30       ?perm@?1??sdefl_flush@@9@9 0000000140045e30     raylib:rcore.obj
 0002:00000e48       ?pref@?1??sdefl_compr@@9@9 0000000140045e48     raylib:rcore.obj
 0002:00000e60       ?base64encodeTable@?1??EncodeDataBase64@@9@9 0000000140045e60     raylib:rcore.obj
 0002:00000ea0       ?modTable@?1??EncodeDataBase64@@9@9 0000000140045ea0     raylib:rcore.obj
 0002:00000eb0       ?base64decodeTable@?1??DecodeDataBase64@@9@9 0000000140045eb0     raylib:rcore.obj
 0002:00009660       stbi__zdefault_length      000000014004e660     raylib:rtextures.obj
 0002:00009780       stbi__zdefault_distance    000000014004e780     raylib:rtextures.obj
 0002:000097a0       ?std_dc_luminance_nrcodes@?1??stbi_write_jpg_core@@9@9 000000014004e7a0     raylib:rtextures.obj
 0002:000097b8       ?std_dc_luminance_values@?1??stbi_write_jpg_core@@9@9 000000014004e7b8     raylib:rtextures.obj
 0002:000097c8       ?std_ac_luminance_nrcodes@?1??stbi_write_jpg_core@@9@9 000000014004e7c8     raylib:rtextures.obj
 0002:000097e0       ?std_ac_luminance_values@?1??stbi_write_jpg_core@@9@9 000000014004e7e0     raylib:rtextures.obj
 0002:00009888       ?std_dc_chrominance_nrcodes@?1??stbi_write_jpg_core@@9@9 000000014004e888     raylib:rtextures.obj
 0002:000098a0       ?std_dc_chrominance_values@?1??stbi_write_jpg_core@@9@9 000000014004e8a0     raylib:rtextures.obj
 0002:000098b0       ?std_ac_chrominance_nrcodes@?1??stbi_write_jpg_core@@9@9 000000014004e8b0     raylib:rtextures.obj
 0002:000098d0       ?std_ac_chrominance_values@?1??stbi_write_jpg_core@@9@9 000000014004e8d0     raylib:rtextures.obj
 0002:00009980       ?YDC_HT@?1??stbi_write_jpg_core@@9@9 000000014004e980     raylib:rtextures.obj
 0002:00009d80       ?UVDC_HT@?1??stbi_write_jpg_core@@9@9 000000014004ed80     raylib:rtextures.obj
 0002:0000a180       ?YAC_HT@?1??stbi_write_jpg_core@@9@9 000000014004f180     raylib:rtextures.obj
 0002:0000a580       ?UVAC_HT@?1??stbi_write_jpg_core@@9@9 000000014004f580     raylib:rtextures.obj
 0002:0000a980       ?head0@?9??stbi_write_jpg_core@@9@9 000000014004f980     raylib:rtextures.obj
 0002:0000a9a0       ?head2@?9??stbi_write_jpg_core@@9@9 000000014004f9a0     raylib:rtextures.obj
 0002:0000a9b0       ?fillBits@?L@??stbi_write_jpg_core@@9@9 000000014004f9b0     raylib:rtextures.obj
 0002:0000a9c0       fp32_to_srgb8_tab4         000000014004f9c0     raylib:rtextures.obj
 0002:0000ab60       ?magic_denorm@?1??stbir__half_to_float_SIMD@@9@9 000000014004fb60     raylib:rtextures.obj
 0002:0000ab70       STBIR_mask                 000000014004fb70     raylib:rtextures.obj
 0002:0000aba0       stbi__zlength_base         000000014004fba0     raylib:rtextures.obj
 0002:0000ac20       stbi__zlength_extra        000000014004fc20     raylib:rtextures.obj
 0002:0000aca0       stbi__zdist_base           000000014004fca0     raylib:rtextures.obj
 0002:0000ad20       stbi__zdist_extra          000000014004fd20     raylib:rtextures.obj
 0002:0000ada0       ?length_dezigzag@?1??stbi__compute_huffman_codes@@9@9 000000014004fda0     raylib:rtextures.obj
 0002:0000adb8       ?png_sig@?1??stbi__check_png_header@@9@9 000000014004fdb8     raylib:rtextures.obj
 0002:0000adc0       stbi__depth_scale_table    000000014004fdc0     raylib:rtextures.obj
 0002:0000add0       stbiw__jpg_ZigZag          000000014004fdd0     raylib:rtextures.obj
 0002:0000ae10       ?YQT@?1??stbi_write_jpg_core@@9@9 000000014004fe10     raylib:rtextures.obj
 0002:0000af10       ?UVQT@?1??stbi_write_jpg_core@@9@9 000000014004ff10     raylib:rtextures.obj
 0002:0000b010       ?aasf@?1??stbi_write_jpg_core@@9@9 0000000140050010     raylib:rtextures.obj
 0002:0000b030       STBIR_zeroones             0000000140050030     raylib:rtextures.obj
 0002:0000b040       ?mask_nosign@?1??stbir__half_to_float_SIMD@@9@9 0000000140050040     raylib:rtextures.obj
 0002:0000b050       ?smallest_normal@?1??stbir__half_to_float_SIMD@@9@9 0000000140050050     raylib:rtextures.obj
 0002:0000b060       ?infinity@?1??stbir__half_to_float_SIMD@@9@9 0000000140050060     raylib:rtextures.obj
 0002:0000b070       ?expadjust_normal@?1??stbir__half_to_float_SIMD@@9@9 0000000140050070     raylib:rtextures.obj
 0002:0000b080       ?mask_sign@?1??stbir__float_to_half_SIMD@@9@9 0000000140050080     raylib:rtextures.obj
 0002:0000b090       ?c_f16max@?1??stbir__float_to_half_SIMD@@9@9 0000000140050090     raylib:rtextures.obj
 0002:0000b0a0       ?c_nanbit@?1??stbir__float_to_half_SIMD@@9@9 00000001400500a0     raylib:rtextures.obj
 0002:0000b0b0       ?c_infty_as_fp16@?1??stbir__float_to_half_SIMD@@9@9 00000001400500b0     raylib:rtextures.obj
 0002:0000b0c0       ?c_min_normal@?1??stbir__float_to_half_SIMD@@9@9 00000001400500c0     raylib:rtextures.obj
 0002:0000b0d0       ?c_subnorm_magic@?1??stbir__float_to_half_SIMD@@9@9 00000001400500d0     raylib:rtextures.obj
 0002:0000b0e0       ?c_normal_bias@?1??stbir__float_to_half_SIMD@@9@9 00000001400500e0     raylib:rtextures.obj
 0002:0000b0f0       STBIR_max_uint8_as_float   00000001400500f0     raylib:rtextures.obj
 0002:0000b100       STBIR_max_uint16_as_float  0000000140050100     raylib:rtextures.obj
 0002:0000b110       STBIR_max_uint8_as_float_inverted 0000000140050110     raylib:rtextures.obj
 0002:0000b120       STBIR_max_uint16_as_float_inverted 0000000140050120     raylib:rtextures.obj
 0002:0000b130       STBIR_simd_point5          0000000140050130     raylib:rtextures.obj
 0002:0000b140       STBIR_ones                 0000000140050140     raylib:rtextures.obj
 0002:0000b150       STBIR_almost_zero          0000000140050150     raylib:rtextures.obj
 0002:0000b160       STBIR_almost_one           0000000140050160     raylib:rtextures.obj
 0002:0000b170       STBIR_mastissa_mask        0000000140050170     raylib:rtextures.obj
 0002:0000b180       STBIR_topscale             0000000140050180     raylib:rtextures.obj
 0002:0000b480       gradients2D                0000000140050480     raylib:rmodels.obj
 0002:0003e200       _glfw_IID_IDirectInput8W   0000000140083200     raylib:rglfw.obj
 0002:0003e210       _glfw_GUID_XAxis           0000000140083210     raylib:rglfw.obj
 0002:0003e220       _glfw_GUID_YAxis           0000000140083220     raylib:rglfw.obj
 0002:0003e230       _glfw_GUID_ZAxis           0000000140083230     raylib:rglfw.obj
 0002:0003e240       _glfw_GUID_RxAxis          0000000140083240     raylib:rglfw.obj
 0002:0003e250       _glfw_GUID_RyAxis          0000000140083250     raylib:rglfw.obj
 0002:0003e260       _glfw_GUID_RzAxis          0000000140083260     raylib:rglfw.obj
 0002:0003e270       _glfw_GUID_Slider          0000000140083270     raylib:rglfw.obj
 0002:0003e280       _glfw_GUID_POV             0000000140083280     raylib:rglfw.obj
 0002:0003e290       _glfwDataFormat            0000000140083290     raylib:rglfw.obj
 0002:0003e2b0       supportedPlatforms         00000001400832b0     raylib:rglfw.obj
 0002:0003e2c0       _glfw_GUID_DEVINTERFACE_HID 00000001400832c0     raylib:rglfw.obj
 0002:000411d0       GS_ExceptionPointers       00000001400861d0     msvcrt:gs_report.obj
 0002:000416e8       $unwind$time               00000001400866e8     main.obj
 0002:000416f0       $unwind$?interpolate_vertex@@YA?AUVector3@@U1@0MMM@Z 00000001400866f0     main.obj
 0002:00041704       $unwind$?sphere@@YAMMMM@Z  0000000140086704     main.obj
 0002:0004170c       $unwind$?generate_scalar_field@@YAXPEAMHP6AMMMM@Z@Z 000000014008670c     main.obj
 0002:00041714       $unwind$?marching_cubes@@YA?AUMesh@@PEAMHM@Z 0000000140086714     main.obj
 0002:00041728       $unwind$?update_camera_custom@@YAXPEAUCamera3D@@@Z 0000000140086728     main.obj
 0002:00041730       $unwind$main               0000000140086730     main.obj
 0002:00041744       $unwind$InitWindow         0000000140086744     raylib:rcore.obj
 0002:0004175c       $unwind$GetCurrentMonitor  000000014008675c     raylib:rcore.obj
 0002:00041768       $chain$1$GetCurrentMonitor 0000000140086768     raylib:rcore.obj
 0002:00041780       $chain$2$GetCurrentMonitor 0000000140086780     raylib:rcore.obj
 0002:00041794       $chain$3$GetCurrentMonitor 0000000140086794     raylib:rcore.obj
 0002:000417a4       $chain$5$GetCurrentMonitor 00000001400867a4     raylib:rcore.obj
 0002:000417c0       $chain$6$GetCurrentMonitor 00000001400867c0     raylib:rcore.obj
 0002:000417d8       $unwind$GetWindowScaleDPI  00000001400867d8     raylib:rcore.obj
 0002:000417f0       $unwind$ClearBackground    00000001400867f0     raylib:rcore.obj
 0002:000417f0       $unwind$DisableCursor      00000001400867f0     raylib:rcore.obj
 0002:000417f0       $unwind$rgVector2Angle     00000001400867f0     raylib:rcore.obj
 0002:000417f0       $unwind$rlCheckRenderBatchLimit 00000001400867f0     raylib:rcore.obj
 0002:000417f0       $unwind$rlEnableVertexArray 00000001400867f0     raylib:rcore.obj
 0002:000417f0       $unwind$rlLoadVertexArray  00000001400867f0     raylib:rcore.obj
 0002:000417f0       $unwind$rlPushMatrix       00000001400867f0     raylib:rcore.obj
 0002:000417f0       $unwind$_glfwFramebufferTransparentWin32 00000001400867f0     raylib:rglfw.obj
 0002:000417f0       $unwind$_glfwGetClipboardStringWin32 00000001400867f0     raylib:rglfw.obj
 0002:000417f0       $unwind$_glfwGetScancodeNameWin32 00000001400867f0     raylib:rglfw.obj
 0002:000417f0       $unwind$_glfwIsValidContextConfig 00000001400867f0     raylib:rglfw.obj
 0002:000417f0       $unwind$_glfwSetCursorPosWin32 00000001400867f0     raylib:rglfw.obj
 0002:000417f0       $unwind$_glfwTerminateEGL  00000001400867f0     raylib:rglfw.obj
 0002:000417f0       $unwind$_glfwTerminateWin32 00000001400867f0     raylib:rglfw.obj
 0002:000417f0       $unwind$_glfwWaitEventsWin32 00000001400867f0     raylib:rglfw.obj
 0002:000417f0       $unwind$glfwDefaultWindowHints 00000001400867f0     raylib:rglfw.obj
 0002:000417f0       $unwind$glfwGetMonitors    00000001400867f0     raylib:rglfw.obj
 0002:000417f0       $unwind$glfwGetPrimaryMonitor 00000001400867f0     raylib:rglfw.obj
 0002:000417f0       $unwind$glfwGetTime        00000001400867f0     raylib:rglfw.obj
 0002:000417f0       $unwind$glfwGetWindowMonitor 00000001400867f0     raylib:rglfw.obj
 0002:000417f0       $unwind$glfwInit           00000001400867f0     raylib:rglfw.obj
 0002:000417f0       $unwind$glfwSetCharCallback 00000001400867f0     raylib:rglfw.obj
 0002:000417f0       $unwind$glfwSetCursorEnterCallback 00000001400867f0     raylib:rglfw.obj
 0002:000417f0       $unwind$glfwSetCursorPosCallback 00000001400867f0     raylib:rglfw.obj
 0002:000417f0       $unwind$glfwSetDropCallback 00000001400867f0     raylib:rglfw.obj
 0002:000417f0       $unwind$glfwSetKeyCallback 00000001400867f0     raylib:rglfw.obj
 0002:000417f0       $unwind$glfwSetMouseButtonCallback 00000001400867f0     raylib:rglfw.obj
 0002:000417f0       $unwind$glfwSetScrollCallback 00000001400867f0     raylib:rglfw.obj
 0002:000417f0       $unwind$glfwSetWindowFocusCallback 00000001400867f0     raylib:rglfw.obj
 0002:000417f0       $unwind$glfwSetWindowIconifyCallback 00000001400867f0     raylib:rglfw.obj
 0002:000417f0       $unwind$glfwSetWindowMaximizeCallback 00000001400867f0     raylib:rglfw.obj
 0002:000417f0       $unwind$glfwSetWindowSizeCallback 00000001400867f0     raylib:rglfw.obj
 0002:000417f0       $unwind$glfwWindowShouldClose 00000001400867f0     raylib:rglfw.obj
 0002:000417f0       $unwind$terminate          00000001400867f0     raylib:rglfw.obj
 0002:000417f0       $unwind$updateCursorImage  00000001400867f0     raylib:rglfw.obj
 0002:000417f0       $unwind$stbir__decode_uint8_linear_scaled_ABGR 00000001400867f0     raylib:rtextures.obj
 0002:000417f0       $unwind$stbir__decode_uint8_linear_scaled_AR 00000001400867f0     raylib:rtextures.obj
 0002:000417f0       $unwind$stbir__decode_uint8_linear_scaled_ARGB 00000001400867f0     raylib:rtextures.obj
 0002:000417f0       $unwind$stbir__decode_uint8_linear_scaled_BGRA 00000001400867f0     raylib:rtextures.obj
 0002:000417f0       $unwind$__scrt_initialize_default_local_stdio_options 00000001400867f0     msvcrt:default_local_stdio_options.obj
 0002:000417f0       $unwind$?post_pgo_initialization@@YAHXZ 00000001400867f0     msvcrt:exe_main.obj
 0002:000417f0       $unwind$?pre_cpp_initialization@@YAXXZ 00000001400867f0     msvcrt:exe_main.obj
 0002:000417f0       $unwind$mainCRTStartup     00000001400867f0     msvcrt:exe_main.obj
 0002:000417f0       $unwind$__report_rangecheckfailure 00000001400867f0     msvcrt:gs_report.obj
 0002:000417f0       $unwind$__GSHandlerCheck   00000001400867f0     msvcrt:gshandler.obj
 0002:000417f0       $unwind$__scrt_acquire_startup_lock 00000001400867f0     msvcrt:utility.obj
 0002:000417f0       $unwind$atexit             00000001400867f0     msvcrt:utility.obj
 0002:000417f0       $unwind$__scrt_is_managed_app 00000001400867f0     msvcrt:utility_desktop.obj
 0002:000417f8       $unwind$BeginDrawing       00000001400867f8     raylib:rcore.obj
 0002:000417f8       $unwind$EndMode3D          00000001400867f8     raylib:rcore.obj
 0002:000417f8       $unwind$DrawText           00000001400867f8     raylib:rtext.obj
 0002:00041800       $unwind$EndDrawing         0000000140086800     raylib:rcore.obj
 0002:00041810       $chain$0$EndDrawing        0000000140086810     raylib:rcore.obj
 0002:00041824       $chain$1$EndDrawing        0000000140086824     raylib:rcore.obj
 0002:00041834       $unwind$BeginMode3D        0000000140086834     raylib:rcore.obj
 0002:00041848       $chain$1$BeginMode3D       0000000140086848     raylib:rcore.obj
 0002:00041860       $chain$2$BeginMode3D       0000000140086860     raylib:rcore.obj
 0002:00041870       $unwind$PollInputEvents    0000000140086870     raylib:rcore.obj
 0002:00041898       $unwind$TakeScreenshot     0000000140086898     raylib:rcore.obj
 0002:000418ac       $chain$0$TakeScreenshot    00000001400868ac     raylib:rcore.obj
 0002:000418c0       $chain$1$TakeScreenshot    00000001400868c0     raylib:rcore.obj
 0002:000418d4       $chain$2$TakeScreenshot    00000001400868d4     raylib:rcore.obj
 0002:000418e4       $chain$3$TakeScreenshot    00000001400868e4     raylib:rcore.obj
 0002:000418f4       $unwind$IsFileExtension    00000001400868f4     raylib:rcore.obj
 0002:0004190c       $unwind$sprintf            000000014008690c     raylib:rcore.obj
 0002:0004190c       $unwind$sscanf             000000014008690c     raylib:rcore.obj
 0002:0004190c       $unwind$sscanf_s           000000014008690c     raylib:rcore.obj
 0002:00041918       $unwind$rlTranslatef       0000000140086918     raylib:rcore.obj
 0002:00041928       $unwind$rlMultMatrixf      0000000140086928     raylib:rcore.obj
 0002:00041928       $unwind$DrawModel          0000000140086928     raylib:rmodels.obj
 0002:00041930       $unwind$rlOrtho            0000000140086930     raylib:rcore.obj
 0002:0004194c       $unwind$JoystickCallback   000000014008694c     raylib:rcore.obj
 0002:0004194c       $unwind$rlBegin            000000014008694c     raylib:rcore.obj
 0002:0004194c       $unwind$rlLoadExtensions   000000014008694c     raylib:rcore.obj
 0002:0004194c       $unwind$rlSetTexture       000000014008694c     raylib:rcore.obj
 0002:0004194c       $unwind$_glfwCenterCursorInContentArea 000000014008694c     raylib:rglfw.obj
 0002:0004194c       $unwind$_glfwCreateCursorWin32 000000014008694c     raylib:rglfw.obj
 0002:0004194c       $unwind$_glfwDestroyWindowWin32 000000014008694c     raylib:rglfw.obj
 0002:0004194c       $unwind$_glfwFocusWindowWin32 000000014008694c     raylib:rglfw.obj
 0002:0004194c       $unwind$_glfwFreeGammaArrays 000000014008694c     raylib:rglfw.obj
 0002:0004194c       $unwind$_glfwGetWindowOpacityWin32 000000014008694c     raylib:rglfw.obj
 0002:0004194c       $unwind$_glfwSetCursorWin32 000000014008694c     raylib:rglfw.obj
 0002:0004194c       $unwind$_glfwWindowFocusedWin32 000000014008694c     raylib:rglfw.obj
 0002:0004194c       $unwind$_glfw_calloc       000000014008694c     raylib:rglfw.obj
 0002:0004194c       $unwind$acquireMonitor     000000014008694c     raylib:rglfw.obj
 0002:0004194c       $unwind$closeJoystick      000000014008694c     raylib:rglfw.obj
 0002:0004194c       $unwind$destroyContextEGL  000000014008694c     raylib:rglfw.obj
 0002:0004194c       $unwind$destroyContextOSMesa 000000014008694c     raylib:rglfw.obj
 0002:0004194c       $unwind$destroyContextWGL  000000014008694c     raylib:rglfw.obj
 0002:0004194c       $unwind$extensionSupportedEGL 000000014008694c     raylib:rglfw.obj
 0002:0004194c       $unwind$extensionSupportedWGL 000000014008694c     raylib:rglfw.obj
 0002:0004194c       $unwind$findValidMapping   000000014008694c     raylib:rglfw.obj
 0002:0004194c       $unwind$getProcAddressEGL  000000014008694c     raylib:rglfw.obj
 0002:0004194c       $unwind$getProcAddressWGL  000000014008694c     raylib:rglfw.obj
 0002:0004194c       $unwind$glfwDestroyWindow  000000014008694c     raylib:rglfw.obj
 0002:0004194c       $unwind$glfwGetError       000000014008694c     raylib:rglfw.obj
 0002:0004194c       $unwind$glfwGetJoystickName 000000014008694c     raylib:rglfw.obj
 0002:0004194c       $unwind$glfwGetProcAddress 000000014008694c     raylib:rglfw.obj
 0002:0004194c       $unwind$glfwJoystickPresent 000000014008694c     raylib:rglfw.obj
 0002:0004194c       $unwind$glfwMakeContextCurrent 000000014008694c     raylib:rglfw.obj
 0002:0004194c       $unwind$glfwSetJoystickCallback 000000014008694c     raylib:rglfw.obj
 0002:0004194c       $unwind$glfwSwapInterval   000000014008694c     raylib:rglfw.obj
 0002:0004194c       $unwind$makeContextCurrentEGL 000000014008694c     raylib:rglfw.obj
 0002:0004194c       $unwind$makeContextCurrentWGL 000000014008694c     raylib:rglfw.obj
 0002:0004194c       $unwind$refreshVideoModes  000000014008694c     raylib:rglfw.obj
 0002:0004194c       $unwind$swapBuffersEGL     000000014008694c     raylib:rglfw.obj
 0002:0004194c       $unwind$swapIntervalWGL    000000014008694c     raylib:rglfw.obj
 0002:0004194c       $unwind$stbi__stdio_eof    000000014008694c     raylib:rtextures.obj
 0002:0004194c       $unwind$stbi__stdio_skip   000000014008694c     raylib:rtextures.obj
 0002:0004194c       $unwind$?pre_c_initialization@@YAHXZ 000000014008694c     msvcrt:exe_main.obj
 0002:0004194c       $unwind$__raise_securityfailure 000000014008694c     msvcrt:gs_report.obj
 0002:0004194c       $unwind$__scrt_initialize_crt 000000014008694c     msvcrt:utility.obj
 0002:0004194c       $unwind$__scrt_initialize_onexit_tables 000000014008694c     msvcrt:utility.obj
 0002:0004194c       $unwind$__scrt_release_startup_lock 000000014008694c     msvcrt:utility.obj
 0002:0004194c       $unwind$__scrt_uninitialize_crt 000000014008694c     msvcrt:utility.obj
 0002:0004194c       $unwind$_onexit            000000014008694c     msvcrt:utility.obj
 0002:00041954       $unwind$rlVertex3f         0000000140086954     raylib:rcore.obj
 0002:00041968       $unwind$rlglInit           0000000140086968     raylib:rcore.obj
 0002:00041974       $unwind$rlLoadRenderBatch  0000000140086974     raylib:rcore.obj
 0002:0004198c       $unwind$rlDrawRenderBatch  000000014008698c     raylib:rcore.obj
 0002:000419a4       $chain$9$rlDrawRenderBatch 00000001400869a4     raylib:rcore.obj
 0002:000419dc       $chain$13$rlDrawRenderBatch 00000001400869dc     raylib:rcore.obj
 0002:000419fc       $chain$14$rlDrawRenderBatch 00000001400869fc     raylib:rcore.obj
 0002:00041a0c       $chain$15$rlDrawRenderBatch 0000000140086a0c     raylib:rcore.obj
 0002:00041a3c       $chain$16$rlDrawRenderBatch 0000000140086a3c     raylib:rcore.obj
 0002:00041a4c       $chain$1$rlCheckRenderBatchLimit 0000000140086a4c     raylib:rcore.obj
 0002:00041a64       $chain$2$rlCheckRenderBatchLimit 0000000140086a64     raylib:rcore.obj
 0002:00041a74       $unwind$gladLoadGLUserPtr  0000000140086a74     raylib:rcore.obj
 0002:00041a74       $unwind$rlLoadVertexBuffer 0000000140086a74     raylib:rcore.obj
 0002:00041a74       $unwind$rlLoadVertexBufferElement 0000000140086a74     raylib:rcore.obj
 0002:00041a74       $unwind$_glfwGetCursorPosWin32 0000000140086a74     raylib:rglfw.obj
 0002:00041a74       $unwind$_glfwInputChar     0000000140086a74     raylib:rglfw.obj
 0002:00041a74       $unwind$getKeyMods         0000000140086a74     raylib:rglfw.obj
 0002:00041a84       $unwind$rlLoadTexture      0000000140086a84     raylib:rcore.obj
 0002:00041aa0       $chain$1$rlLoadTexture     0000000140086aa0     raylib:rcore.obj
 0002:00041ab8       $chain$2$rlLoadTexture     0000000140086ab8     raylib:rcore.obj
 0002:00041ac8       $unwind$rlReadScreenPixels 0000000140086ac8     raylib:rcore.obj
 0002:00041ad8       $chain$1$rlReadScreenPixels 0000000140086ad8     raylib:rcore.obj
 0002:00041af0       $chain$2$rlReadScreenPixels 0000000140086af0     raylib:rcore.obj
 0002:00041b00       $unwind$rlLoadShaderProgram 0000000140086b00     raylib:rcore.obj
 0002:00041b10       $unwind$rlSetUniformMatrix 0000000140086b10     raylib:rcore.obj
 0002:00041b20       $unwind$WindowSizeCallback 0000000140086b20     raylib:rcore.obj
 0002:00041b20       $unwind$glad_gl_load_GL_ARB_direct_state_access 0000000140086b20     raylib:rcore.obj
 0002:00041b20       $unwind$glad_gl_load_GL_ARB_gpu_shader_int64 0000000140086b20     raylib:rcore.obj
 0002:00041b20       $unwind$glad_gl_load_GL_ARB_multitexture 0000000140086b20     raylib:rcore.obj
 0002:00041b20       $unwind$glad_gl_load_GL_ARB_shader_objects 0000000140086b20     raylib:rcore.obj
 0002:00041b20       $unwind$glad_gl_load_GL_ARB_vertex_program 0000000140086b20     raylib:rcore.obj
 0002:00041b20       $unwind$glad_gl_load_GL_ARB_vertex_shader 0000000140086b20     raylib:rcore.obj
 0002:00041b20       $unwind$glad_gl_load_GL_OES_fixed_point 0000000140086b20     raylib:rcore.obj
 0002:00041b20       $unwind$glad_gl_load_GL_VERSION_1_0 0000000140086b20     raylib:rcore.obj
 0002:00041b20       $unwind$glad_gl_load_GL_VERSION_2_0 0000000140086b20     raylib:rcore.obj
 0002:00041b20       $unwind$glad_gl_load_GL_VERSION_3_0 0000000140086b20     raylib:rcore.obj
 0002:00041b20       $unwind$glad_gl_load_GL_VERSION_3_3 0000000140086b20     raylib:rcore.obj
 0002:00041b20       $unwind$glad_gl_load_GL_VERSION_4_0 0000000140086b20     raylib:rcore.obj
 0002:00041b20       $unwind$glad_gl_load_GL_VERSION_4_1 0000000140086b20     raylib:rcore.obj
 0002:00041b20       $unwind$glad_gl_load_GL_VERSION_4_3 0000000140086b20     raylib:rcore.obj
 0002:00041b20       $unwind$_glfwGetEGLPlatformWin32 0000000140086b20     raylib:rglfw.obj
 0002:00041b20       $unwind$_glfwGetPhysicalDevicePresentationSupportWin32 0000000140086b20     raylib:rglfw.obj
 0002:00041b20       $unwind$_glfwSetWindowTitleWin32 0000000140086b20     raylib:rglfw.obj
 0002:00041b20       $unwind$_glfwStringInExtensionString 0000000140086b20     raylib:rglfw.obj
 0002:00041b20       $unwind$createKeyTables    0000000140086b20     raylib:rglfw.obj
 0002:00041b20       $unwind$glfwGetVideoModes  0000000140086b20     raylib:rglfw.obj
 0002:00041b20       $unwind$glfwSetInputMode   0000000140086b20     raylib:rglfw.obj
 0002:00041b20       $unwind$TextToLower        0000000140086b20     raylib:rtext.obj
 0002:00041b20       $unwind$_RTC_Initialize    0000000140086b20     msvcrt:initsect.obj
 0002:00041b20       $unwind$_RTC_Terminate     0000000140086b20     msvcrt:initsect.obj
 0002:00041b20       $unwind$__scrt_unhandled_exception_filter 0000000140086b20     msvcrt:utility_desktop.obj
 0002:00041b2c       $unwind$glad_gl_find_extensions_gl 0000000140086b2c     raylib:rcore.obj
 0002:00041b48       $unwind$glad_gl_find_core_gl 0000000140086b48     raylib:rcore.obj
 0002:00041b60       $chain$1$glad_gl_find_core_gl 0000000140086b60     raylib:rcore.obj
 0002:00041b78       $chain$2$glad_gl_find_core_gl 0000000140086b78     raylib:rcore.obj
 0002:00041b88       $unwind$SetupFramebuffer   0000000140086b88     raylib:rcore.obj
 0002:00041b88       $unwind$SetupViewport      0000000140086b88     raylib:rcore.obj
 0002:00041b88       $unwind$rlLoadShaderDefault 0000000140086b88     raylib:rcore.obj
 0002:00041b88       $unwind$_glfwInitJoysticksWin32 0000000140086b88     raylib:rglfw.obj
 0002:00041b88       $unwind$_glfwSetRawMouseMotionWin32 0000000140086b88     raylib:rglfw.obj
 0002:00041b88       $unwind$_glfwWaitEventsTimeoutWin32 0000000140086b88     raylib:rglfw.obj
 0002:00041b88       $unwind$disableRawMouseMotion 0000000140086b88     raylib:rglfw.obj
 0002:00041b88       $unwind$enableRawMouseMotion 0000000140086b88     raylib:rglfw.obj
 0002:00041b88       $unwind$DrawCircle         0000000140086b88     raylib:rshapes.obj
 0002:00041b90       $chain$2$rlLoadShaderDefault 0000000140086b90     raylib:rcore.obj
 0002:00041bac       $chain$3$rlLoadShaderDefault 0000000140086bac     raylib:rcore.obj
 0002:00041bbc       $unwind$rlGetPixelDataSize 0000000140086bbc     raylib:rcore.obj
 0002:00041bbc       $unwind$compareVideoModes  0000000140086bbc     raylib:rglfw.obj
 0002:00041bbc       $unwind$GetPixelDataSize   0000000140086bbc     raylib:rtextures.obj
 0002:00041bbc       $unwind$stbir__horizontal_gather_3_channels_with_1_coeff 0000000140086bbc     raylib:rtextures.obj
 0002:00041bbc       $unwind$stbir__horizontal_gather_3_channels_with_2_coeffs 0000000140086bbc     raylib:rtextures.obj
 0002:00041bbc       $unwind$stbir__horizontal_gather_3_channels_with_3_coeffs 0000000140086bbc     raylib:rtextures.obj
 0002:00041bbc       $unwind$stbir__horizontal_gather_7_channels_with_1_coeff 0000000140086bbc     raylib:rtextures.obj
 0002:00041bbc       $unwind$stbir__horizontal_gather_7_channels_with_2_coeffs 0000000140086bbc     raylib:rtextures.obj
 0002:00041bbc       $unwind$stbir__horizontal_gather_7_channels_with_3_coeffs 0000000140086bbc     raylib:rtextures.obj
 0002:00041bc4       $unwind$MatrixMultiply     0000000140086bc4     raylib:rcore.obj
 0002:00041bc4       $unwind$rlMatrixMultiply   0000000140086bc4     raylib:rcore.obj
 0002:00041bf4       $unwind$Vector3RotateByAxisAngle 0000000140086bf4     raylib:rcore.obj
 0002:00041c28       $unwind$MatrixInvert       0000000140086c28     raylib:rcore.obj
 0002:00041c58       $unwind$MatrixLookAt       0000000140086c58     raylib:rcore.obj
 0002:00041c94       $unwind$ProcessGestureEvent 0000000140086c94     raylib:rcore.obj
 0002:00041ca0       $chain$5$ProcessGestureEvent 0000000140086ca0     raylib:rcore.obj
 0002:00041cc8       $chain$6$ProcessGestureEvent 0000000140086cc8     raylib:rcore.obj
 0002:00041cd8       $unwind$GetCameraForward   0000000140086cd8     raylib:rcore.obj
 0002:00041cec       $unwind$GetCameraUp        0000000140086cec     raylib:rcore.obj
 0002:00041d00       $unwind$GetCameraRight     0000000140086d00     raylib:rcore.obj
 0002:00041d14       $unwind$CameraMoveForward  0000000140086d14     raylib:rcore.obj
 0002:00041d14       $unwind$CameraMoveRight    0000000140086d14     raylib:rcore.obj
 0002:00041d30       $unwind$CameraMoveUp       0000000140086d30     raylib:rcore.obj
 0002:00041d44       $unwind$CameraMoveToTarget 0000000140086d44     raylib:rcore.obj
 0002:00041d54       $unwind$CameraYaw          0000000140086d54     raylib:rcore.obj
 0002:00041d6c       $unwind$CameraPitch        0000000140086d6c     raylib:rcore.obj
 0002:00041d88       $chain$4$CameraPitch       0000000140086d88     raylib:rcore.obj
 0002:00041dac       $chain$5$CameraPitch       0000000140086dac     raylib:rcore.obj
 0002:00041dc0       $chain$9$CameraPitch       0000000140086dc0     raylib:rcore.obj
 0002:00041de0       $chain$10$CameraPitch      0000000140086de0     raylib:rcore.obj
 0002:00041df4       $chain$11$CameraPitch      0000000140086df4     raylib:rcore.obj
 0002:00041e04       $chain$12$CameraPitch      0000000140086e04     raylib:rcore.obj
 0002:00041e14       $unwind$CameraRoll         0000000140086e14     raylib:rcore.obj
 0002:00041e20       $unwind$msf_gif_begin      0000000140086e20     raylib:rcore.obj
 0002:00041e30       $unwind$msf_gif_frame      0000000140086e30     raylib:rcore.obj
 0002:00041e44       $chain$1$msf_gif_frame     0000000140086e44     raylib:rcore.obj
 0002:00041e5c       $chain$2$msf_gif_frame     0000000140086e5c     raylib:rcore.obj
 0002:00041e6c       $unwind$msf_gif_end        0000000140086e6c     raylib:rcore.obj
 0002:00041e84       $chain$3$msf_gif_end       0000000140086e84     raylib:rcore.obj
 0002:00041e98       $chain$4$msf_gif_end       0000000140086e98     raylib:rcore.obj
 0002:00041ea8       $unwind$msf_cook_frame     0000000140086ea8     raylib:rcore.obj
 0002:00041ee8       $unwind$msf_compress_frame 0000000140086ee8     raylib:rcore.obj
 0002:00041efc       $chain$5$msf_compress_frame 0000000140086efc     raylib:rcore.obj
 0002:00041f24       $chain$6$msf_compress_frame 0000000140086f24     raylib:rcore.obj
 0002:00041f34       $chain$7$msf_compress_frame 0000000140086f34     raylib:rcore.obj
 0002:00041f5c       $unwind$msf_free_gif_state 0000000140086f5c     raylib:rcore.obj
 0002:00041f5c       $unwind$glfwDestroyCursor  0000000140086f5c     raylib:rglfw.obj
 0002:00041f5c       $unwind$swapBuffersWGL     0000000140086f5c     raylib:rglfw.obj
 0002:00041f64       $chain$0$msf_free_gif_state 0000000140086f64     raylib:rcore.obj
 0002:00041f78       $chain$1$msf_free_gif_state 0000000140086f78     raylib:rcore.obj
 0002:00041f88       $unwind$InitPlatform       0000000140086f88     raylib:rcore.obj
 0002:00041f88       $unwind$_glfwSetWindowFloatingWin32 0000000140086f88     raylib:rglfw.obj
 0002:00041f90       $chain$0$InitPlatform      0000000140086f90     raylib:rcore.obj
 0002:00041fa4       $chain$3$InitPlatform      0000000140086fa4     raylib:rcore.obj
 0002:00041fbc       $chain$5$InitPlatform      0000000140086fbc     raylib:rcore.obj
 0002:00041fd4       $chain$6$InitPlatform      0000000140086fd4     raylib:rcore.obj
 0002:00041fe4       $chain$8$InitPlatform      0000000140086fe4     raylib:rcore.obj
 0002:00041ffc       $unwind$RecordAutomationEvent 0000000140086ffc     raylib:rcore.obj
 0002:00042004       $chain$2$RecordAutomationEvent 0000000140087004     raylib:rcore.obj
 0002:00042020       $chain$6$RecordAutomationEvent 0000000140087020     raylib:rcore.obj
 0002:00042040       $chain$7$RecordAutomationEvent 0000000140087040     raylib:rcore.obj
 0002:00042050       $chain$8$RecordAutomationEvent 0000000140087050     raylib:rcore.obj
 0002:00042060       $unwind$WindowDropCallback 0000000140087060     raylib:rcore.obj
 0002:0004206c       $chain$1$WindowDropCallback 000000014008706c     raylib:rcore.obj
 0002:00042084       $chain$2$WindowDropCallback 0000000140087084     raylib:rcore.obj
 0002:00042094       $unwind$MouseButtonCallback 0000000140087094     raylib:rcore.obj
 0002:0004209c       $unwind$MouseCursorPosCallback 000000014008709c     raylib:rcore.obj
 0002:000420a8       $unwind$ExportImage        00000001400870a8     raylib:rtextures.obj
 0002:000420b8       $chain$2$ExportImage       00000001400870b8     raylib:rtextures.obj
 0002:000420d4       $chain$3$ExportImage       00000001400870d4     raylib:rtextures.obj
 0002:000420e4       $unwind$ImageFromImage     00000001400870e4     raylib:rtextures.obj
 0002:00042100       $unwind$LoadImageColors    0000000140087100     raylib:rtextures.obj
 0002:00042108       $chain$2$LoadImageColors   0000000140087108     raylib:rtextures.obj
 0002:00042124       $chain$3$LoadImageColors   0000000140087124     raylib:rtextures.obj
 0002:00042138       $chain$6$LoadImageColors   0000000140087138     raylib:rtextures.obj
 0002:00042154       $chain$7$LoadImageColors   0000000140087154     raylib:rtextures.obj
 0002:00042164       $chain$8$LoadImageColors   0000000140087164     raylib:rtextures.obj
 0002:00042174       $chain$9$LoadImageColors   0000000140087174     raylib:rtextures.obj
 0002:00042184       $unwind$LoadTextureFromImage 0000000140087184     raylib:rtextures.obj
 0002:00042198       $unwind$DrawTexturePro     0000000140087198     raylib:rtextures.obj
 0002:000421a8       $chain$10$DrawTexturePro   00000001400871a8     raylib:rtextures.obj
 0002:000421e4       $chain$11$DrawTexturePro   00000001400871e4     raylib:rtextures.obj
 0002:0004221c       $chain$12$DrawTexturePro   000000014008721c     raylib:rtextures.obj
 0002:0004222c       $unwind$qoi_encode         000000014008722c     raylib:rtextures.obj
 0002:00042244       $chain$1$qoi_encode        0000000140087244     raylib:rtextures.obj
 0002:0004225c       $chain$4$qoi_encode        000000014008725c     raylib:rtextures.obj
 0002:00042278       $chain$5$qoi_encode        0000000140087278     raylib:rtextures.obj
 0002:00042288       $chain$6$qoi_encode        0000000140087288     raylib:rtextures.obj
 0002:00042298       $unwind$stbi_zlib_compress 0000000140087298     raylib:rtextures.obj
 0002:000422a8       $chain$2$stbi_zlib_compress 00000001400872a8     raylib:rtextures.obj
 0002:000422c4       $chain$3$stbi_zlib_compress 00000001400872c4     raylib:rtextures.obj
 0002:000422d8       $unwind$findMapping        00000001400872d8     raylib:rglfw.obj
 0002:000422d8       $unwind$stbir__horizontal_gather_1_channels_with_n_coeffs_mod0 00000001400872d8     raylib:rtextures.obj
 0002:000422d8       $unwind$stbir__horizontal_gather_1_channels_with_n_coeffs_mod3 00000001400872d8     raylib:rtextures.obj
 0002:000422d8       $unwind$stbir__horizontal_gather_2_channels_with_n_coeffs_mod0 00000001400872d8     raylib:rtextures.obj
 0002:000422d8       $unwind$stbir__horizontal_gather_2_channels_with_n_coeffs_mod1 00000001400872d8     raylib:rtextures.obj
 0002:000422d8       $unwind$stbir__horizontal_gather_2_channels_with_n_coeffs_mod2 00000001400872d8     raylib:rtextures.obj
 0002:000422d8       $unwind$stbir__horizontal_gather_2_channels_with_n_coeffs_mod3 00000001400872d8     raylib:rtextures.obj
 0002:000422d8       $unwind$stbir__horizontal_gather_3_channels_with_10_coeffs 00000001400872d8     raylib:rtextures.obj
 0002:000422d8       $unwind$stbir__horizontal_gather_3_channels_with_11_coeffs 00000001400872d8     raylib:rtextures.obj
 0002:000422d8       $unwind$stbir__horizontal_gather_3_channels_with_12_coeffs 00000001400872d8     raylib:rtextures.obj
 0002:000422d8       $unwind$stbir__horizontal_gather_3_channels_with_4_coeffs 00000001400872d8     raylib:rtextures.obj
 0002:000422d8       $unwind$stbir__horizontal_gather_3_channels_with_5_coeffs 00000001400872d8     raylib:rtextures.obj
 0002:000422d8       $unwind$stbir__horizontal_gather_3_channels_with_6_coeffs 00000001400872d8     raylib:rtextures.obj
 0002:000422d8       $unwind$stbir__horizontal_gather_3_channels_with_7_coeffs 00000001400872d8     raylib:rtextures.obj
 0002:000422d8       $unwind$stbir__horizontal_gather_3_channels_with_8_coeffs 00000001400872d8     raylib:rtextures.obj
 0002:000422d8       $unwind$stbir__horizontal_gather_3_channels_with_9_coeffs 00000001400872d8     raylib:rtextures.obj
 0002:000422d8       $unwind$stbir__horizontal_gather_4_channels_with_n_coeffs_mod0 00000001400872d8     raylib:rtextures.obj
 0002:000422d8       $unwind$stbir__horizontal_gather_4_channels_with_n_coeffs_mod1 00000001400872d8     raylib:rtextures.obj
 0002:000422d8       $unwind$stbir__horizontal_gather_4_channels_with_n_coeffs_mod2 00000001400872d8     raylib:rtextures.obj
 0002:000422d8       $unwind$stbir__horizontal_gather_4_channels_with_n_coeffs_mod3 00000001400872d8     raylib:rtextures.obj
 0002:000422d8       $unwind$stbiw__paeth       00000001400872d8     raylib:rtextures.obj
 0002:000422e4       $unwind$stbiw__encode_png_line 00000001400872e4     raylib:rtextures.obj
 0002:000422f0       $chain$3$stbiw__encode_png_line 00000001400872f0     raylib:rtextures.obj
 0002:00042310       $chain$4$stbiw__encode_png_line 0000000140087310     raylib:rtextures.obj
 0002:00042320       $unwind$stbi_write_png_to_mem 0000000140087320     raylib:rtextures.obj
 0002:00042348       $unwind$stbir__encode_uint8_srgb 0000000140087348     raylib:rtextures.obj
 0002:00042348       $unwind$stbir__encode_uint8_srgb_ABGR 0000000140087348     raylib:rtextures.obj
 0002:00042348       $unwind$stbir__encode_uint8_srgb_AR 0000000140087348     raylib:rtextures.obj
 0002:00042348       $unwind$stbir__encode_uint8_srgb_ARGB 0000000140087348     raylib:rtextures.obj
 0002:00042348       $unwind$stbir__encode_uint8_srgb_BGRA 0000000140087348     raylib:rtextures.obj
 0002:00042358       $chain$5$stbir__encode_uint8_srgb 0000000140087358     raylib:rtextures.obj
 0002:00042380       $chain$6$stbir__encode_uint8_srgb 0000000140087380     raylib:rtextures.obj
 0002:00042380       $chain$8$stbir__encode_uint8_srgb 0000000140087380     raylib:rtextures.obj
 0002:00042390       $chain$7$stbir__encode_uint8_srgb 0000000140087390     raylib:rtextures.obj
 0002:000423b8       $unwind$stbir__encode_uint8_srgb4_linearalpha 00000001400873b8     raylib:rtextures.obj
 0002:000423b8       $unwind$stbir__encode_uint8_srgb4_linearalpha_BGRA 00000001400873b8     raylib:rtextures.obj
 0002:000423c8       $chain$9$stbir__encode_uint8_srgb4_linearalpha 00000001400873c8     raylib:rtextures.obj
 0002:00042400       $chain$10$stbir__encode_uint8_srgb4_linearalpha 0000000140087400     raylib:rtextures.obj
 0002:00042410       $chain$11$stbir__encode_uint8_srgb4_linearalpha 0000000140087410     raylib:rtextures.obj
 0002:00042448       $unwind$stbir__encode_uint8_srgb2_linearalpha 0000000140087448     raylib:rtextures.obj
 0002:00042448       $unwind$stbir__encode_uint8_srgb4_linearalpha_ABGR 0000000140087448     raylib:rtextures.obj
 0002:00042448       $unwind$stbir__encode_uint8_srgb4_linearalpha_ARGB 0000000140087448     raylib:rtextures.obj
 0002:00042458       $chain$9$stbir__encode_uint8_srgb2_linearalpha 0000000140087458     raylib:rtextures.obj
 0002:00042490       $chain$10$stbir__encode_uint8_srgb2_linearalpha 0000000140087490     raylib:rtextures.obj
 0002:000424a0       $chain$11$stbir__encode_uint8_srgb2_linearalpha 00000001400874a0     raylib:rtextures.obj
 0002:000424d8       $unwind$stbir__decode_half_float_linear 00000001400874d8     raylib:rtextures.obj
 0002:000424d8       $unwind$stbir__decode_half_float_linear_ABGR 00000001400874d8     raylib:rtextures.obj
 0002:000424d8       $unwind$stbir__decode_half_float_linear_AR 00000001400874d8     raylib:rtextures.obj
 0002:000424d8       $unwind$stbir__decode_half_float_linear_ARGB 00000001400874d8     raylib:rtextures.obj
 0002:000424d8       $unwind$stbir__decode_half_float_linear_BGRA 00000001400874d8     raylib:rtextures.obj
 0002:000424e0       $chain$7$stbir__decode_half_float_linear 00000001400874e0     raylib:rtextures.obj
 0002:00042510       $chain$10$stbir__decode_half_float_linear 0000000140087510     raylib:rtextures.obj
 0002:00042510       $chain$8$stbir__decode_half_float_linear 0000000140087510     raylib:rtextures.obj
 0002:00042520       $chain$9$stbir__decode_half_float_linear 0000000140087520     raylib:rtextures.obj
 0002:00042550       $unwind$stbir__encode_half_float_linear 0000000140087550     raylib:rtextures.obj
 0002:00042558       $chain$8$stbir__encode_half_float_linear 0000000140087558     raylib:rtextures.obj
 0002:0004258c       $chain$11$stbir__encode_half_float_linear 000000014008758c     raylib:rtextures.obj
 0002:0004258c       $chain$9$stbir__encode_half_float_linear 000000014008758c     raylib:rtextures.obj
 0002:0004259c       $chain$10$stbir__encode_half_float_linear 000000014008759c     raylib:rtextures.obj
 0002:000425d0       $chain$1$stbir__decode_uint8_linear_scaled_BGRA 00000001400875d0     raylib:rtextures.obj
 0002:000425e8       $chain$2$stbir__decode_uint8_linear_scaled_BGRA 00000001400875e8     raylib:rtextures.obj
 0002:000425e8       $chain$4$stbir__decode_uint8_linear_scaled_BGRA 00000001400875e8     raylib:rtextures.obj
 0002:000425f8       $chain$3$stbir__decode_uint8_linear_scaled_BGRA 00000001400875f8     raylib:rtextures.obj
 0002:00042610       $chain$5$stbir__encode_uint8_srgb_BGRA 0000000140087610     raylib:rtextures.obj
 0002:00042638       $chain$6$stbir__encode_uint8_srgb_BGRA 0000000140087638     raylib:rtextures.obj
 0002:00042638       $chain$8$stbir__encode_uint8_srgb_BGRA 0000000140087638     raylib:rtextures.obj
 0002:00042648       $chain$7$stbir__encode_uint8_srgb_BGRA 0000000140087648     raylib:rtextures.obj
 0002:00042670       $chain$9$stbir__encode_uint8_srgb4_linearalpha_BGRA 0000000140087670     raylib:rtextures.obj
 0002:000426a8       $chain$10$stbir__encode_uint8_srgb4_linearalpha_BGRA 00000001400876a8     raylib:rtextures.obj
 0002:000426b8       $chain$11$stbir__encode_uint8_srgb4_linearalpha_BGRA 00000001400876b8     raylib:rtextures.obj
 0002:000426f0       $unwind$stbir__encode_uint16_linear_ABGR 00000001400876f0     raylib:rtextures.obj
 0002:000426f0       $unwind$stbir__encode_uint16_linear_AR 00000001400876f0     raylib:rtextures.obj
 0002:000426f0       $unwind$stbir__encode_uint16_linear_ARGB 00000001400876f0     raylib:rtextures.obj
 0002:000426f0       $unwind$stbir__encode_uint16_linear_BGRA 00000001400876f0     raylib:rtextures.obj
 0002:000426f0       $unwind$stbir__encode_uint16_linear_scaled_ABGR 00000001400876f0     raylib:rtextures.obj
 0002:000426f0       $unwind$stbir__encode_uint16_linear_scaled_AR 00000001400876f0     raylib:rtextures.obj
 0002:000426f0       $unwind$stbir__encode_uint16_linear_scaled_ARGB 00000001400876f0     raylib:rtextures.obj
 0002:000426f0       $unwind$stbir__encode_uint16_linear_scaled_BGRA 00000001400876f0     raylib:rtextures.obj
 0002:000426f8       $chain$0$stbir__encode_uint16_linear_scaled_BGRA 00000001400876f8     raylib:rtextures.obj
 0002:0004270c       $chain$1$stbir__encode_uint16_linear_scaled_BGRA 000000014008770c     raylib:rtextures.obj
 0002:0004270c       $chain$3$stbir__encode_uint16_linear_scaled_BGRA 000000014008770c     raylib:rtextures.obj
 0002:0004271c       $chain$2$stbir__encode_uint16_linear_scaled_BGRA 000000014008771c     raylib:rtextures.obj
 0002:00042730       $chain$0$stbir__encode_uint16_linear_BGRA 0000000140087730     raylib:rtextures.obj
 0002:00042744       $chain$1$stbir__encode_uint16_linear_BGRA 0000000140087744     raylib:rtextures.obj
 0002:00042744       $chain$3$stbir__encode_uint16_linear_BGRA 0000000140087744     raylib:rtextures.obj
 0002:00042754       $chain$2$stbir__encode_uint16_linear_BGRA 0000000140087754     raylib:rtextures.obj
 0002:00042768       $chain$7$stbir__decode_half_float_linear_BGRA 0000000140087768     raylib:rtextures.obj
 0002:00042798       $chain$10$stbir__decode_half_float_linear_BGRA 0000000140087798     raylib:rtextures.obj
 0002:00042798       $chain$8$stbir__decode_half_float_linear_BGRA 0000000140087798     raylib:rtextures.obj
 0002:000427a8       $chain$9$stbir__decode_half_float_linear_BGRA 00000001400877a8     raylib:rtextures.obj
 0002:000427d8       $unwind$stbir__encode_half_float_linear_ABGR 00000001400877d8     raylib:rtextures.obj
 0002:000427d8       $unwind$stbir__encode_half_float_linear_AR 00000001400877d8     raylib:rtextures.obj
 0002:000427d8       $unwind$stbir__encode_half_float_linear_ARGB 00000001400877d8     raylib:rtextures.obj
 0002:000427d8       $unwind$stbir__encode_half_float_linear_BGRA 00000001400877d8     raylib:rtextures.obj
 0002:000427e0       $chain$9$stbir__encode_half_float_linear_BGRA 00000001400877e0     raylib:rtextures.obj
 0002:00042818       $chain$10$stbir__encode_half_float_linear_BGRA 0000000140087818     raylib:rtextures.obj
 0002:00042818       $chain$12$stbir__encode_half_float_linear_BGRA 0000000140087818     raylib:rtextures.obj
 0002:00042828       $chain$11$stbir__encode_half_float_linear_BGRA 0000000140087828     raylib:rtextures.obj
 0002:00042860       $chain$1$stbir__decode_uint8_linear_scaled_ARGB 0000000140087860     raylib:rtextures.obj
 0002:00042878       $chain$2$stbir__decode_uint8_linear_scaled_ARGB 0000000140087878     raylib:rtextures.obj
 0002:00042878       $chain$4$stbir__decode_uint8_linear_scaled_ARGB 0000000140087878     raylib:rtextures.obj
 0002:00042888       $chain$3$stbir__decode_uint8_linear_scaled_ARGB 0000000140087888     raylib:rtextures.obj
 0002:000428a0       $chain$5$stbir__encode_uint8_srgb_ARGB 00000001400878a0     raylib:rtextures.obj
 0002:000428c8       $chain$6$stbir__encode_uint8_srgb_ARGB 00000001400878c8     raylib:rtextures.obj
 0002:000428c8       $chain$8$stbir__encode_uint8_srgb_ARGB 00000001400878c8     raylib:rtextures.obj
 0002:000428d8       $chain$7$stbir__encode_uint8_srgb_ARGB 00000001400878d8     raylib:rtextures.obj
 0002:00042900       $chain$8$stbir__encode_uint8_srgb4_linearalpha_ARGB 0000000140087900     raylib:rtextures.obj
 0002:00042934       $chain$9$stbir__encode_uint8_srgb4_linearalpha_ARGB 0000000140087934     raylib:rtextures.obj
 0002:00042944       $chain$10$stbir__encode_uint8_srgb4_linearalpha_ARGB 0000000140087944     raylib:rtextures.obj
 0002:00042978       $chain$0$stbir__encode_uint16_linear_scaled_ARGB 0000000140087978     raylib:rtextures.obj
 0002:0004298c       $chain$1$stbir__encode_uint16_linear_scaled_ARGB 000000014008798c     raylib:rtextures.obj
 0002:0004298c       $chain$3$stbir__encode_uint16_linear_scaled_ARGB 000000014008798c     raylib:rtextures.obj
 0002:0004299c       $chain$2$stbir__encode_uint16_linear_scaled_ARGB 000000014008799c     raylib:rtextures.obj
 0002:000429b0       $chain$0$stbir__encode_uint16_linear_ARGB 00000001400879b0     raylib:rtextures.obj
 0002:000429c4       $chain$1$stbir__encode_uint16_linear_ARGB 00000001400879c4     raylib:rtextures.obj
 0002:000429c4       $chain$3$stbir__encode_uint16_linear_ARGB 00000001400879c4     raylib:rtextures.obj
 0002:000429d4       $chain$2$stbir__encode_uint16_linear_ARGB 00000001400879d4     raylib:rtextures.obj
 0002:000429e8       $chain$7$stbir__decode_half_float_linear_ARGB 00000001400879e8     raylib:rtextures.obj
 0002:00042a18       $chain$10$stbir__decode_half_float_linear_ARGB 0000000140087a18     raylib:rtextures.obj
 0002:00042a18       $chain$8$stbir__decode_half_float_linear_ARGB 0000000140087a18     raylib:rtextures.obj
 0002:00042a28       $chain$9$stbir__decode_half_float_linear_ARGB 0000000140087a28     raylib:rtextures.obj
 0002:00042a58       $chain$9$stbir__encode_half_float_linear_ARGB 0000000140087a58     raylib:rtextures.obj
 0002:00042a90       $chain$10$stbir__encode_half_float_linear_ARGB 0000000140087a90     raylib:rtextures.obj
 0002:00042a90       $chain$12$stbir__encode_half_float_linear_ARGB 0000000140087a90     raylib:rtextures.obj
 0002:00042aa0       $chain$11$stbir__encode_half_float_linear_ARGB 0000000140087aa0     raylib:rtextures.obj
 0002:00042ad8       $chain$1$stbir__decode_uint8_linear_scaled_ABGR 0000000140087ad8     raylib:rtextures.obj
 0002:00042af0       $chain$2$stbir__decode_uint8_linear_scaled_ABGR 0000000140087af0     raylib:rtextures.obj
 0002:00042af0       $chain$4$stbir__decode_uint8_linear_scaled_ABGR 0000000140087af0     raylib:rtextures.obj
 0002:00042b00       $chain$3$stbir__decode_uint8_linear_scaled_ABGR 0000000140087b00     raylib:rtextures.obj
 0002:00042b18       $chain$5$stbir__encode_uint8_srgb_ABGR 0000000140087b18     raylib:rtextures.obj
 0002:00042b40       $chain$6$stbir__encode_uint8_srgb_ABGR 0000000140087b40     raylib:rtextures.obj
 0002:00042b40       $chain$8$stbir__encode_uint8_srgb_ABGR 0000000140087b40     raylib:rtextures.obj
 0002:00042b50       $chain$7$stbir__encode_uint8_srgb_ABGR 0000000140087b50     raylib:rtextures.obj
 0002:00042b78       $chain$8$stbir__encode_uint8_srgb4_linearalpha_ABGR 0000000140087b78     raylib:rtextures.obj
 0002:00042bac       $chain$9$stbir__encode_uint8_srgb4_linearalpha_ABGR 0000000140087bac     raylib:rtextures.obj
 0002:00042bbc       $chain$10$stbir__encode_uint8_srgb4_linearalpha_ABGR 0000000140087bbc     raylib:rtextures.obj
 0002:00042bf0       $chain$0$stbir__encode_uint16_linear_scaled_ABGR 0000000140087bf0     raylib:rtextures.obj
 0002:00042c04       $chain$1$stbir__encode_uint16_linear_scaled_ABGR 0000000140087c04     raylib:rtextures.obj
 0002:00042c04       $chain$3$stbir__encode_uint16_linear_scaled_ABGR 0000000140087c04     raylib:rtextures.obj
 0002:00042c14       $chain$2$stbir__encode_uint16_linear_scaled_ABGR 0000000140087c14     raylib:rtextures.obj
 0002:00042c28       $chain$0$stbir__encode_uint16_linear_ABGR 0000000140087c28     raylib:rtextures.obj
 0002:00042c3c       $chain$1$stbir__encode_uint16_linear_ABGR 0000000140087c3c     raylib:rtextures.obj
 0002:00042c3c       $chain$3$stbir__encode_uint16_linear_ABGR 0000000140087c3c     raylib:rtextures.obj
 0002:00042c4c       $chain$2$stbir__encode_uint16_linear_ABGR 0000000140087c4c     raylib:rtextures.obj
 0002:00042c60       $chain$7$stbir__decode_half_float_linear_ABGR 0000000140087c60     raylib:rtextures.obj
 0002:00042c90       $chain$10$stbir__decode_half_float_linear_ABGR 0000000140087c90     raylib:rtextures.obj
 0002:00042c90       $chain$8$stbir__decode_half_float_linear_ABGR 0000000140087c90     raylib:rtextures.obj
 0002:00042ca0       $chain$9$stbir__decode_half_float_linear_ABGR 0000000140087ca0     raylib:rtextures.obj
 0002:00042cd0       $chain$9$stbir__encode_half_float_linear_ABGR 0000000140087cd0     raylib:rtextures.obj
 0002:00042d08       $chain$10$stbir__encode_half_float_linear_ABGR 0000000140087d08     raylib:rtextures.obj
 0002:00042d08       $chain$12$stbir__encode_half_float_linear_ABGR 0000000140087d08     raylib:rtextures.obj
 0002:00042d18       $chain$11$stbir__encode_half_float_linear_ABGR 0000000140087d18     raylib:rtextures.obj
 0002:00042d50       $chain$1$stbir__decode_uint8_linear_scaled_AR 0000000140087d50     raylib:rtextures.obj
 0002:00042d68       $chain$2$stbir__decode_uint8_linear_scaled_AR 0000000140087d68     raylib:rtextures.obj
 0002:00042d68       $chain$4$stbir__decode_uint8_linear_scaled_AR 0000000140087d68     raylib:rtextures.obj
 0002:00042d78       $chain$3$stbir__decode_uint8_linear_scaled_AR 0000000140087d78     raylib:rtextures.obj
 0002:00042d90       $chain$5$stbir__encode_uint8_srgb_AR 0000000140087d90     raylib:rtextures.obj
 0002:00042db8       $chain$6$stbir__encode_uint8_srgb_AR 0000000140087db8     raylib:rtextures.obj
 0002:00042db8       $chain$8$stbir__encode_uint8_srgb_AR 0000000140087db8     raylib:rtextures.obj
 0002:00042dc8       $chain$7$stbir__encode_uint8_srgb_AR 0000000140087dc8     raylib:rtextures.obj
 0002:00042df0       $unwind$stbir__encode_uint8_srgb2_linearalpha_AR 0000000140087df0     raylib:rtextures.obj
 0002:00042e00       $chain$8$stbir__encode_uint8_srgb2_linearalpha_AR 0000000140087e00     raylib:rtextures.obj
 0002:00042e34       $chain$9$stbir__encode_uint8_srgb2_linearalpha_AR 0000000140087e34     raylib:rtextures.obj
 0002:00042e44       $chain$10$stbir__encode_uint8_srgb2_linearalpha_AR 0000000140087e44     raylib:rtextures.obj
 0002:00042e78       $chain$0$stbir__encode_uint16_linear_scaled_AR 0000000140087e78     raylib:rtextures.obj
 0002:00042e8c       $chain$1$stbir__encode_uint16_linear_scaled_AR 0000000140087e8c     raylib:rtextures.obj
 0002:00042e8c       $chain$3$stbir__encode_uint16_linear_scaled_AR 0000000140087e8c     raylib:rtextures.obj
 0002:00042e9c       $chain$2$stbir__encode_uint16_linear_scaled_AR 0000000140087e9c     raylib:rtextures.obj
 0002:00042eb0       $chain$0$stbir__encode_uint16_linear_AR 0000000140087eb0     raylib:rtextures.obj
 0002:00042ec4       $chain$1$stbir__encode_uint16_linear_AR 0000000140087ec4     raylib:rtextures.obj
 0002:00042ec4       $chain$3$stbir__encode_uint16_linear_AR 0000000140087ec4     raylib:rtextures.obj
 0002:00042ed4       $chain$2$stbir__encode_uint16_linear_AR 0000000140087ed4     raylib:rtextures.obj
 0002:00042ee8       $chain$7$stbir__decode_half_float_linear_AR 0000000140087ee8     raylib:rtextures.obj
 0002:00042f18       $chain$10$stbir__decode_half_float_linear_AR 0000000140087f18     raylib:rtextures.obj
 0002:00042f18       $chain$8$stbir__decode_half_float_linear_AR 0000000140087f18     raylib:rtextures.obj
 0002:00042f28       $chain$9$stbir__decode_half_float_linear_AR 0000000140087f28     raylib:rtextures.obj
 0002:00042f58       $chain$9$stbir__encode_half_float_linear_AR 0000000140087f58     raylib:rtextures.obj
 0002:00042f90       $chain$10$stbir__encode_half_float_linear_AR 0000000140087f90     raylib:rtextures.obj
 0002:00042f90       $chain$12$stbir__encode_half_float_linear_AR 0000000140087f90     raylib:rtextures.obj
 0002:00042fa0       $chain$11$stbir__encode_half_float_linear_AR 0000000140087fa0     raylib:rtextures.obj
 0002:00042fd8       $unwind$stbir__horizontal_gather_1_channels_with_n_coeffs_mod1 0000000140087fd8     raylib:rtextures.obj
 0002:00042fd8       $unwind$stbir__horizontal_gather_1_channels_with_n_coeffs_mod2 0000000140087fd8     raylib:rtextures.obj
 0002:00042fd8       $unwind$stbir__horizontal_gather_3_channels_with_n_coeffs_mod0 0000000140087fd8     raylib:rtextures.obj
 0002:00042fd8       $unwind$stbir__horizontal_gather_3_channels_with_n_coeffs_mod1 0000000140087fd8     raylib:rtextures.obj
 0002:00042fd8       $unwind$stbir__horizontal_gather_3_channels_with_n_coeffs_mod2 0000000140087fd8     raylib:rtextures.obj
 0002:00042fd8       $unwind$stbir__horizontal_gather_3_channels_with_n_coeffs_mod3 0000000140087fd8     raylib:rtextures.obj
 0002:00042fe8       $unwind$stbir__horizontal_gather_4_channels_with_10_coeffs 0000000140087fe8     raylib:rtextures.obj
 0002:00042fe8       $unwind$stbir__horizontal_gather_4_channels_with_11_coeffs 0000000140087fe8     raylib:rtextures.obj
 0002:00042fe8       $unwind$stbir__horizontal_gather_4_channels_with_12_coeffs 0000000140087fe8     raylib:rtextures.obj
 0002:00042fe8       $unwind$stbir__horizontal_gather_4_channels_with_8_coeffs 0000000140087fe8     raylib:rtextures.obj
 0002:00042fe8       $unwind$stbir__horizontal_gather_4_channels_with_9_coeffs 0000000140087fe8     raylib:rtextures.obj
 0002:00042ff4       $unwind$stbir__horizontal_gather_7_channels_with_4_coeffs 0000000140087ff4     raylib:rtextures.obj
 0002:00042ff4       $unwind$stbir__horizontal_gather_7_channels_with_6_coeffs 0000000140087ff4     raylib:rtextures.obj
 0002:00042ff4       $unwind$stbir__horizontal_gather_7_channels_with_7_coeffs 0000000140087ff4     raylib:rtextures.obj
 0002:00042ff4       $unwind$stbir__horizontal_gather_7_channels_with_8_coeffs 0000000140087ff4     raylib:rtextures.obj
 0002:00043000       $unwind$stbir__horizontal_gather_7_channels_with_5_coeffs 0000000140088000     raylib:rtextures.obj
 0002:00043010       $unwind$stbir__horizontal_gather_7_channels_with_9_coeffs 0000000140088010     raylib:rtextures.obj
 0002:00043020       $unwind$stbir__horizontal_gather_7_channels_with_10_coeffs 0000000140088020     raylib:rtextures.obj
 0002:0004302c       $unwind$stbir__horizontal_gather_7_channels_with_11_coeffs 000000014008802c     raylib:rtextures.obj
 0002:0004302c       $unwind$stbir__horizontal_gather_7_channels_with_12_coeffs 000000014008802c     raylib:rtextures.obj
 0002:00043038       $unwind$stbir__horizontal_gather_7_channels_with_n_coeffs_mod0 0000000140088038     raylib:rtextures.obj
 0002:00043038       $unwind$stbir__horizontal_gather_7_channels_with_n_coeffs_mod2 0000000140088038     raylib:rtextures.obj
 0002:00043038       $unwind$stbir__horizontal_gather_7_channels_with_n_coeffs_mod3 0000000140088038     raylib:rtextures.obj
 0002:00043048       $unwind$stbir__horizontal_gather_7_channels_with_n_coeffs_mod1 0000000140088048     raylib:rtextures.obj
 0002:0004305c       $unwind$stbir__vertical_scatter_with_1_coeffs_cont 000000014008805c     raylib:rtextures.obj
 0002:00043068       $unwind$stbir__vertical_gather_with_1_coeffs_cont 0000000140088068     raylib:rtextures.obj
 0002:00043074       $unwind$stbir__vertical_scatter_with_2_coeffs 0000000140088074     raylib:rtextures.obj
 0002:0004308c       $unwind$stbir__vertical_gather_with_2_coeffs 000000014008808c     raylib:rtextures.obj
 0002:000430a4       $unwind$stbir__vertical_scatter_with_2_coeffs_cont 00000001400880a4     raylib:rtextures.obj
 0002:000430b4       $chain$1$stbir__vertical_scatter_with_2_coeffs_cont 00000001400880b4     raylib:rtextures.obj
 0002:000430cc       $chain$4$stbir__vertical_scatter_with_2_coeffs_cont 00000001400880cc     raylib:rtextures.obj
 0002:000430e8       $chain$5$stbir__vertical_scatter_with_2_coeffs_cont 00000001400880e8     raylib:rtextures.obj
 0002:000430f8       $chain$6$stbir__vertical_scatter_with_2_coeffs_cont 00000001400880f8     raylib:rtextures.obj
 0002:00043108       $unwind$stbir__vertical_gather_with_2_coeffs_cont 0000000140088108     raylib:rtextures.obj
 0002:00043118       $chain$1$stbir__vertical_gather_with_2_coeffs_cont 0000000140088118     raylib:rtextures.obj
 0002:00043130       $chain$2$stbir__vertical_gather_with_2_coeffs_cont 0000000140088130     raylib:rtextures.obj
 0002:00043144       $chain$3$stbir__vertical_gather_with_2_coeffs_cont 0000000140088144     raylib:rtextures.obj
 0002:00043154       $chain$4$stbir__vertical_gather_with_2_coeffs_cont 0000000140088154     raylib:rtextures.obj
 0002:00043164       $unwind$stbir__vertical_scatter_with_3_coeffs 0000000140088164     raylib:rtextures.obj
 0002:00043184       $unwind$stbir__vertical_gather_with_3_coeffs 0000000140088184     raylib:rtextures.obj
 0002:00043184       $unwind$stbir__vertical_gather_with_3_coeffs_cont 0000000140088184     raylib:rtextures.obj
 0002:00043198       $chain$2$stbir__vertical_gather_with_3_coeffs 0000000140088198     raylib:rtextures.obj
 0002:000431b4       $chain$4$stbir__vertical_gather_with_3_coeffs 00000001400881b4     raylib:rtextures.obj
 0002:000431cc       $chain$5$stbir__vertical_gather_with_3_coeffs 00000001400881cc     raylib:rtextures.obj
 0002:000431dc       $chain$6$stbir__vertical_gather_with_3_coeffs 00000001400881dc     raylib:rtextures.obj
 0002:000431ec       $unwind$stbir__vertical_scatter_with_3_coeffs_cont 00000001400881ec     raylib:rtextures.obj
 0002:00043200       $chain$2$stbir__vertical_scatter_with_3_coeffs_cont 0000000140088200     raylib:rtextures.obj
 0002:0004321c       $chain$5$stbir__vertical_scatter_with_3_coeffs_cont 000000014008821c     raylib:rtextures.obj
 0002:00043238       $chain$6$stbir__vertical_scatter_with_3_coeffs_cont 0000000140088238     raylib:rtextures.obj
 0002:00043248       $chain$7$stbir__vertical_scatter_with_3_coeffs_cont 0000000140088248     raylib:rtextures.obj
 0002:00043258       $chain$2$stbir__vertical_gather_with_3_coeffs_cont 0000000140088258     raylib:rtextures.obj
 0002:00043274       $chain$4$stbir__vertical_gather_with_3_coeffs_cont 0000000140088274     raylib:rtextures.obj
 0002:0004328c       $chain$5$stbir__vertical_gather_with_3_coeffs_cont 000000014008828c     raylib:rtextures.obj
 0002:0004329c       $chain$6$stbir__vertical_gather_with_3_coeffs_cont 000000014008829c     raylib:rtextures.obj
 0002:000432ac       $unwind$stbir__vertical_scatter_with_4_coeffs 00000001400882ac     raylib:rtextures.obj
 0002:000432d4       $unwind$stbir__vertical_gather_with_4_coeffs 00000001400882d4     raylib:rtextures.obj
 0002:000432d4       $unwind$stbir__vertical_gather_with_4_coeffs_cont 00000001400882d4     raylib:rtextures.obj
 0002:000432ec       $chain$3$stbir__vertical_gather_with_4_coeffs 00000001400882ec     raylib:rtextures.obj
 0002:0004330c       $chain$5$stbir__vertical_gather_with_4_coeffs 000000014008830c     raylib:rtextures.obj
 0002:00043324       $chain$6$stbir__vertical_gather_with_4_coeffs 0000000140088324     raylib:rtextures.obj
 0002:00043334       $chain$7$stbir__vertical_gather_with_4_coeffs 0000000140088334     raylib:rtextures.obj
 0002:00043344       $unwind$stbir__vertical_scatter_with_4_coeffs_cont 0000000140088344     raylib:rtextures.obj
 0002:00043358       $chain$3$stbir__vertical_scatter_with_4_coeffs_cont 0000000140088358     raylib:rtextures.obj
 0002:00043378       $chain$6$stbir__vertical_scatter_with_4_coeffs_cont 0000000140088378     raylib:rtextures.obj
 0002:00043394       $chain$7$stbir__vertical_scatter_with_4_coeffs_cont 0000000140088394     raylib:rtextures.obj
 0002:000433a4       $chain$8$stbir__vertical_scatter_with_4_coeffs_cont 00000001400883a4     raylib:rtextures.obj
 0002:000433b4       $chain$3$stbir__vertical_gather_with_4_coeffs_cont 00000001400883b4     raylib:rtextures.obj
 0002:000433d4       $chain$5$stbir__vertical_gather_with_4_coeffs_cont 00000001400883d4     raylib:rtextures.obj
 0002:000433ec       $chain$6$stbir__vertical_gather_with_4_coeffs_cont 00000001400883ec     raylib:rtextures.obj
 0002:000433fc       $chain$7$stbir__vertical_gather_with_4_coeffs_cont 00000001400883fc     raylib:rtextures.obj
 0002:0004340c       $unwind$stbir__vertical_scatter_with_5_coeffs 000000014008840c     raylib:rtextures.obj
 0002:00043440       $unwind$stbir__vertical_gather_with_5_coeffs 0000000140088440     raylib:rtextures.obj
 0002:00043440       $unwind$stbir__vertical_gather_with_5_coeffs_cont 0000000140088440     raylib:rtextures.obj
 0002:00043458       $chain$4$stbir__vertical_gather_with_5_coeffs 0000000140088458     raylib:rtextures.obj
 0002:0004347c       $chain$6$stbir__vertical_gather_with_5_coeffs 000000014008847c     raylib:rtextures.obj
 0002:00043494       $chain$7$stbir__vertical_gather_with_5_coeffs 0000000140088494     raylib:rtextures.obj
 0002:000434a4       $chain$8$stbir__vertical_gather_with_5_coeffs 00000001400884a4     raylib:rtextures.obj
 0002:000434b4       $unwind$stbir__vertical_scatter_with_5_coeffs_cont 00000001400884b4     raylib:rtextures.obj
 0002:000434cc       $chain$4$stbir__vertical_scatter_with_5_coeffs_cont 00000001400884cc     raylib:rtextures.obj
 0002:000434f0       $chain$6$stbir__vertical_scatter_with_5_coeffs_cont 00000001400884f0     raylib:rtextures.obj
 0002:00043508       $chain$7$stbir__vertical_scatter_with_5_coeffs_cont 0000000140088508     raylib:rtextures.obj
 0002:00043518       $chain$8$stbir__vertical_scatter_with_5_coeffs_cont 0000000140088518     raylib:rtextures.obj
 0002:00043528       $chain$4$stbir__vertical_gather_with_5_coeffs_cont 0000000140088528     raylib:rtextures.obj
 0002:0004354c       $chain$6$stbir__vertical_gather_with_5_coeffs_cont 000000014008854c     raylib:rtextures.obj
 0002:00043564       $chain$7$stbir__vertical_gather_with_5_coeffs_cont 0000000140088564     raylib:rtextures.obj
 0002:00043574       $chain$8$stbir__vertical_gather_with_5_coeffs_cont 0000000140088574     raylib:rtextures.obj
 0002:00043584       $unwind$stbir__vertical_scatter_with_6_coeffs 0000000140088584     raylib:rtextures.obj
 0002:000435c0       $unwind$stbir__vertical_gather_with_6_coeffs 00000001400885c0     raylib:rtextures.obj
 0002:000435f8       $unwind$stbir__vertical_scatter_with_6_coeffs_cont 00000001400885f8     raylib:rtextures.obj
 0002:00043630       $unwind$stbir__vertical_gather_with_6_coeffs_cont 0000000140088630     raylib:rtextures.obj
 0002:0004364c       $chain$5$stbir__vertical_gather_with_6_coeffs_cont 000000014008864c     raylib:rtextures.obj
 0002:00043674       $chain$6$stbir__vertical_gather_with_6_coeffs_cont 0000000140088674     raylib:rtextures.obj
 0002:00043688       $chain$7$stbir__vertical_gather_with_6_coeffs_cont 0000000140088688     raylib:rtextures.obj
 0002:00043698       $chain$8$stbir__vertical_gather_with_6_coeffs_cont 0000000140088698     raylib:rtextures.obj
 0002:000436a8       $unwind$stbir__vertical_scatter_with_7_coeffs 00000001400886a8     raylib:rtextures.obj
 0002:000436e0       $unwind$stbir__vertical_gather_with_7_coeffs 00000001400886e0     raylib:rtextures.obj
 0002:000436e0       $unwind$stbir__vertical_gather_with_7_coeffs_cont 00000001400886e0     raylib:rtextures.obj
 0002:00043718       $unwind$stbir__vertical_scatter_with_7_coeffs_cont 0000000140088718     raylib:rtextures.obj
 0002:00043750       $unwind$stbir__vertical_scatter_with_8_coeffs 0000000140088750     raylib:rtextures.obj
 0002:00043788       $unwind$stbir__vertical_gather_with_8_coeffs 0000000140088788     raylib:rtextures.obj
 0002:000437c4       $unwind$stbir__vertical_scatter_with_8_coeffs_cont 00000001400887c4     raylib:rtextures.obj
 0002:000437fc       $unwind$stbir__vertical_gather_with_8_coeffs_cont 00000001400887fc     raylib:rtextures.obj
 0002:00043834       $unwind$DrawCubeWires      0000000140088834     raylib:rmodels.obj
 0002:0004385c       $unwind$LoadModelFromMesh  000000014008885c     raylib:rmodels.obj
 0002:00043870       $unwind$DrawModelEx        0000000140088870     raylib:rmodels.obj
 0002:00043894       $chain$4$DrawModelEx       0000000140088894     raylib:rmodels.obj
 0002:000438b8       $chain$5$DrawModelEx       00000001400888b8     raylib:rmodels.obj
 0002:000438c8       $chain$9$DrawModelEx       00000001400888c8     raylib:rmodels.obj
 0002:000438e8       $chain$10$DrawModelEx      00000001400888e8     raylib:rmodels.obj
 0002:000438f8       $unwind$UploadMesh         00000001400888f8     raylib:rmodels.obj
 0002:0004390c       $chain$0$UploadMesh        000000014008890c     raylib:rmodels.obj
 0002:00043920       $chain$1$UploadMesh        0000000140088920     raylib:rmodels.obj
 0002:00043930       $unwind$DrawMesh           0000000140088930     raylib:rmodels.obj
 0002:00043964       $chain$7$DrawMesh          0000000140088964     raylib:rmodels.obj
 0002:00043994       $chain$8$DrawMesh          0000000140088994     raylib:rmodels.obj
 0002:000439a8       $chain$9$DrawMesh          00000001400889a8     raylib:rmodels.obj
 0002:000439b8       $chain$10$DrawMesh         00000001400889b8     raylib:rmodels.obj
 0002:000439d0       $unwind$TraceLog           00000001400889d0     raylib:utils.obj
 0002:000439e4       $chain$0$TraceLog          00000001400889e4     raylib:utils.obj
 0002:000439f8       $chain$1$TraceLog          00000001400889f8     raylib:utils.obj
 0002:00043a08       $chain$2$TraceLog          0000000140088a08     raylib:utils.obj
 0002:00043a1c       $unwind$_glfwSetWindowIconWin32 0000000140088a1c     raylib:rglfw.obj
 0002:00043a1c       $unwind$TextSplit          0000000140088a1c     raylib:rtext.obj
 0002:00043a1c       $unwind$SaveFileData       0000000140088a1c     raylib:utils.obj
 0002:00043a34       $unwind$DrawCircleSector   0000000140088a34     raylib:rshapes.obj
 0002:00043a60       $chain$3$DrawCircleSector  0000000140088a60     raylib:rshapes.obj
 0002:00043a80       $chain$5$DrawCircleSector  0000000140088a80     raylib:rshapes.obj
 0002:00043a98       $chain$6$DrawCircleSector  0000000140088a98     raylib:rshapes.obj
 0002:00043aa8       $chain$7$DrawCircleSector  0000000140088aa8     raylib:rshapes.obj
 0002:00043ac0       $unwind$DrawTextEx         0000000140088ac0     raylib:rtext.obj
 0002:00043adc       $chain$6$DrawTextEx        0000000140088adc     raylib:rtext.obj
 0002:00043b08       $chain$7$DrawTextEx        0000000140088b08     raylib:rtext.obj
 0002:00043b18       $unwind$DrawTextCodepoint  0000000140088b18     raylib:rtext.obj
 0002:00043b3c       $unwind$TextFormat         0000000140088b3c     raylib:rtext.obj
 0002:00043b48       $unwind$LoadFontDefault    0000000140088b48     raylib:rtext.obj
 0002:00043b6c       $chain$4$LoadFontDefault   0000000140088b6c     raylib:rtext.obj
 0002:00043b90       $chain$5$LoadFontDefault   0000000140088b90     raylib:rtext.obj
 0002:00043ba0       $chain$1$glfwInit          0000000140088ba0     raylib:rglfw.obj
 0002:00043bb8       $chain$2$glfwInit          0000000140088bb8     raylib:rglfw.obj
 0002:00043bc8       $unwind$glfwGetVideoMode   0000000140088bc8     raylib:rglfw.obj
 0002:00043bd4       $unwind$glfwCreateWindow   0000000140088bd4     raylib:rglfw.obj
 0002:00043bec       $chain$0$glfwCreateWindow  0000000140088bec     raylib:rglfw.obj
 0002:00043c00       $chain$1$glfwCreateWindow  0000000140088c00     raylib:rglfw.obj
 0002:00043c00       $chain$3$glfwCreateWindow  0000000140088c00     raylib:rglfw.obj
 0002:00043c10       $chain$2$glfwCreateWindow  0000000140088c10     raylib:rglfw.obj
 0002:00043c24       $unwind$glfwSetCursorPos   0000000140088c24     raylib:rglfw.obj
 0002:00043c34       $chain$0$glfwDestroyCursor 0000000140088c34     raylib:rglfw.obj
 0002:00043c48       $chain$1$glfwDestroyCursor 0000000140088c48     raylib:rglfw.obj
 0002:00043c5c       $chain$2$glfwDestroyCursor 0000000140088c5c     raylib:rglfw.obj
 0002:00043c6c       $chain$3$glfwDestroyCursor 0000000140088c6c     raylib:rglfw.obj
 0002:00043c7c       $unwind$glfwGetGamepadState 0000000140088c7c     raylib:rglfw.obj
 0002:00043c88       $chain$1$glfwGetGamepadState 0000000140088c88     raylib:rglfw.obj
 0002:00043ca0       $chain$5$glfwGetGamepadState 0000000140088ca0     raylib:rglfw.obj
 0002:00043cc0       $chain$6$glfwGetGamepadState 0000000140088cc0     raylib:rglfw.obj
 0002:00043cd0       $unwind$glfwExtensionSupported 0000000140088cd0     raylib:rglfw.obj
 0002:00043cd8       $chain$0$glfwExtensionSupported 0000000140088cd8     raylib:rglfw.obj
 0002:00043cec       $chain$2$glfwExtensionSupported 0000000140088cec     raylib:rglfw.obj
 0002:00043d00       $chain$5$glfwExtensionSupported 0000000140088d00     raylib:rglfw.obj
 0002:00043d18       $chain$7$glfwExtensionSupported 0000000140088d18     raylib:rglfw.obj
 0002:00043d18       $chain$9$glfwExtensionSupported 0000000140088d18     raylib:rglfw.obj
 0002:00043d30       $unwind$_glfwConnectWin32  0000000140088d30     raylib:rglfw.obj
 0002:00043d3c       $unwind$_glfwInitWin32     0000000140088d3c     raylib:rglfw.obj
 0002:00043d50       $unwind$_glfwCreateWideStringFromUTF8Win32 0000000140088d50     raylib:rglfw.obj
 0002:00043d60       $chain$0$_glfwCreateWideStringFromUTF8Win32 0000000140088d60     raylib:rglfw.obj
 0002:00043d74       $chain$1$_glfwCreateWideStringFromUTF8Win32 0000000140088d74     raylib:rglfw.obj
 0002:00043d84       $unwind$_glfwCreateUTF8FromWideStringWin32 0000000140088d84     raylib:rglfw.obj
 0002:00043d98       $unwind$_glfwIsWindowsVersionOrGreaterWin32 0000000140088d98     raylib:rglfw.obj
 0002:00043db0       $unwind$_glfwIsWindows10BuildOrGreaterWin32 0000000140088db0     raylib:rglfw.obj
 0002:00043dc4       $unwind$_glfwInputErrorWin32 0000000140088dc4     raylib:rglfw.obj
 0002:00043de0       $unwind$_glfwUpdateKeyNamesWin32 0000000140088de0     raylib:rglfw.obj
 0002:00043e08       $unwind$_glfwPollMonitorsWin32 0000000140088e08     raylib:rglfw.obj
 0002:00043e30       $unwind$_glfwSetVideoModeWin32 0000000140088e30     raylib:rglfw.obj
 0002:00043e48       $chain$0$_glfwSetVideoModeWin32 0000000140088e48     raylib:rglfw.obj
 0002:00043e5c       $chain$1$_glfwSetVideoModeWin32 0000000140088e5c     raylib:rglfw.obj
 0002:00043e6c       $unwind$_glfwCreateWindowWin32 0000000140088e6c     raylib:rglfw.obj
 0002:00043e88       $unwind$_glfwGetWindowPosWin32 0000000140088e88     raylib:rglfw.obj
 0002:00043e88       $unwind$_glfwSetCursorModeWin32 0000000140088e88     raylib:rglfw.obj
 0002:00043e94       $unwind$_glfwSetWindowPosWin32 0000000140088e94     raylib:rglfw.obj
 0002:00043ea8       $unwind$_glfwGetFramebufferSizeWin32 0000000140088ea8     raylib:rglfw.obj
 0002:00043ea8       $unwind$_glfwGetWindowSizeWin32 0000000140088ea8     raylib:rglfw.obj
 0002:00043ebc       $unwind$_glfwSetWindowSizeWin32 0000000140088ebc     raylib:rglfw.obj
 0002:00043ecc       $chain$1$_glfwSetWindowSizeWin32 0000000140088ecc     raylib:rglfw.obj
 0002:00043ee4       $chain$2$_glfwSetWindowSizeWin32 0000000140088ee4     raylib:rglfw.obj
 0002:00043ef4       $unwind$_glfwSetWindowSizeLimitsWin32 0000000140088ef4     raylib:rglfw.obj
 0002:00043f04       $unwind$_glfwSetWindowAspectRatioWin32 0000000140088f04     raylib:rglfw.obj
 0002:00043f14       $unwind$_glfwGetWindowFrameSizeWin32 0000000140088f14     raylib:rglfw.obj
 0002:00043f28       $chain$5$_glfwGetWindowFrameSizeWin32 0000000140088f28     raylib:rglfw.obj
 0002:00043f50       $chain$6$_glfwGetWindowFrameSizeWin32 0000000140088f50     raylib:rglfw.obj
 0002:00043f6c       $chain$7$_glfwGetWindowFrameSizeWin32 0000000140088f6c     raylib:rglfw.obj
 0002:00043f84       $chain$8$_glfwGetWindowFrameSizeWin32 0000000140088f84     raylib:rglfw.obj
 0002:00043f98       $chain$9$_glfwGetWindowFrameSizeWin32 0000000140088f98     raylib:rglfw.obj
 0002:00043fa8       $unwind$_glfwGetMonitorContentScaleWin32 0000000140088fa8     raylib:rglfw.obj
 0002:00043fa8       $unwind$_glfwGetWindowContentScaleWin32 0000000140088fa8     raylib:rglfw.obj
 0002:00043fb8       $unwind$_glfwMaximizeWindowWin32 0000000140088fb8     raylib:rglfw.obj
 0002:00043fc8       $chain$0$_glfwMaximizeWindowWin32 0000000140088fc8     raylib:rglfw.obj
 0002:00043fdc       $chain$1$_glfwMaximizeWindowWin32 0000000140088fdc     raylib:rglfw.obj
 0002:00043ff0       $chain$2$_glfwMaximizeWindowWin32 0000000140088ff0     raylib:rglfw.obj
 0002:00044004       $chain$3$_glfwMaximizeWindowWin32 0000000140089004     raylib:rglfw.obj
 0002:00044014       $chain$4$_glfwMaximizeWindowWin32 0000000140089014     raylib:rglfw.obj
 0002:00044024       $chain$5$_glfwMaximizeWindowWin32 0000000140089024     raylib:rglfw.obj
 0002:00044034       $unwind$_glfwSetWindowMonitorWin32 0000000140089034     raylib:rglfw.obj
 0002:00044050       $chain$1$_glfwSetWindowMonitorWin32 0000000140089050     raylib:rglfw.obj
 0002:00044068       $chain$2$_glfwSetWindowMonitorWin32 0000000140089068     raylib:rglfw.obj
 0002:00044078       $unwind$_glfwSetWindowMousePassthroughWin32 0000000140089078     raylib:rglfw.obj
 0002:00044084       $unwind$_glfwSetWindowOpacityWin32 0000000140089084     raylib:rglfw.obj
 0002:00044090       $unwind$_glfwPollEventsWin32 0000000140089090     raylib:rglfw.obj
 0002:000440a4       $chain$4$_glfwPollEventsWin32 00000001400890a4     raylib:rglfw.obj
 0002:000440c8       $chain$5$_glfwPollEventsWin32 00000001400890c8     raylib:rglfw.obj
 0002:000440dc       $chain$6$_glfwPollEventsWin32 00000001400890dc     raylib:rglfw.obj
 0002:000440ec       $chain$7$_glfwPollEventsWin32 00000001400890ec     raylib:rglfw.obj
 0002:00044108       $chain$8$_glfwPollEventsWin32 0000000140089108     raylib:rglfw.obj
 0002:00044118       $unwind$_glfwCreateStandardCursorWin32 0000000140089118     raylib:rglfw.obj
 0002:00044118       $unwind$enableCursor       0000000140089118     raylib:rglfw.obj
 0002:00044118       $unwind$makeContextCurrentOSMesa 0000000140089118     raylib:rglfw.obj
 0002:00044118       $unwind$releaseMonitor     0000000140089118     raylib:rglfw.obj
 0002:00044120       $unwind$_glfwSetClipboardStringWin32 0000000140089120     raylib:rglfw.obj
 0002:0004412c       $chain$0$_glfwSetClipboardStringWin32 000000014008912c     raylib:rglfw.obj
 0002:00044140       $chain$2$_glfwSetClipboardStringWin32 0000000140089140     raylib:rglfw.obj
 0002:00044140       $chain$4$_glfwSetClipboardStringWin32 0000000140089140     raylib:rglfw.obj
 0002:00044154       $chain$5$_glfwSetClipboardStringWin32 0000000140089154     raylib:rglfw.obj
 0002:00044164       $chain$0$_glfwGetClipboardStringWin32 0000000140089164     raylib:rglfw.obj
 0002:00044178       $chain$3$_glfwGetClipboardStringWin32 0000000140089178     raylib:rglfw.obj
 0002:00044190       $chain$5$_glfwGetClipboardStringWin32 0000000140089190     raylib:rglfw.obj
 0002:000441a8       $unwind$_glfwCreateWindowSurfaceWin32 00000001400891a8     raylib:rglfw.obj
 0002:000441bc       $unwind$_glfwGetMonitorPosWin32 00000001400891bc     raylib:rglfw.obj
 0002:000441d8       $unwind$_glfwGetMonitorWorkareaWin32 00000001400891d8     raylib:rglfw.obj
 0002:000441f0       $unwind$_glfwGetVideoModesWin32 00000001400891f0     raylib:rglfw.obj
 0002:00044208       $chain$2$_glfwGetVideoModesWin32 0000000140089208     raylib:rglfw.obj
 0002:00044224       $chain$3$_glfwGetVideoModesWin32 0000000140089224     raylib:rglfw.obj
 0002:00044238       $chain$4$_glfwGetVideoModesWin32 0000000140089238     raylib:rglfw.obj
 0002:00044248       $chain$5$_glfwGetVideoModesWin32 0000000140089248     raylib:rglfw.obj
 0002:00044258       $unwind$_glfwGetVideoModeWin32 0000000140089258     raylib:rglfw.obj
 0002:00044274       $unwind$_glfwGetGammaRampWin32 0000000140089274     raylib:rglfw.obj
 0002:0004428c       $unwind$_glfwSetGammaRampWin32 000000014008928c     raylib:rglfw.obj
 0002:000442a0       $unwind$_glfwTerminateJoysticksWin32 00000001400892a0     raylib:rglfw.obj
 0002:000442b4       $unwind$_glfwPollJoystickWin32 00000001400892b4     raylib:rglfw.obj
 0002:000442cc       $chain$3$_glfwPollJoystickWin32 00000001400892cc     raylib:rglfw.obj
 0002:000442ec       $chain$4$_glfwPollJoystickWin32 00000001400892ec     raylib:rglfw.obj
 0002:000442fc       $unwind$_glfwUpdateGamepadGUIDWin32 00000001400892fc     raylib:rglfw.obj
 0002:0004430c       $unwind$_glfwInitWGL       000000014008930c     raylib:rglfw.obj
 0002:00044320       $chain$1$_glfwInitWGL      0000000140089320     raylib:rglfw.obj
 0002:00044334       $chain$3$_glfwInitWGL      0000000140089334     raylib:rglfw.obj
 0002:0004434c       $chain$4$_glfwInitWGL      000000014008934c     raylib:rglfw.obj
 0002:0004435c       $chain$5$_glfwInitWGL      000000014008935c     raylib:rglfw.obj
 0002:0004436c       $unwind$_glfwCreateContextWGL 000000014008936c     raylib:rglfw.obj
 0002:00044388       $unwind$_glfwDetectJoystickConnectionWin32 0000000140089388     raylib:rglfw.obj
 0002:00044398       $chain$6$_glfwDetectJoystickConnectionWin32 0000000140089398     raylib:rglfw.obj
 0002:000443c4       $chain$7$_glfwDetectJoystickConnectionWin32 00000001400893c4     raylib:rglfw.obj
 0002:000443d4       $unwind$_glfwInputWindowFocus 00000001400893d4     raylib:rglfw.obj
 0002:000443d4       $unwind$disableCursor      00000001400893d4     raylib:rglfw.obj
 0002:000443e0       $chain$1$_glfwInputWindowFocus 00000001400893e0     raylib:rglfw.obj
 0002:000443f8       $chain$2$_glfwInputWindowFocus 00000001400893f8     raylib:rglfw.obj
 0002:00044408       $unwind$_glfwInputMonitor  0000000140089408     raylib:rglfw.obj
 0002:00044410       $chain$2$_glfwInputMonitor 0000000140089410     raylib:rglfw.obj
 0002:0004442c       $chain$3$_glfwInputMonitor 000000014008942c     raylib:rglfw.obj
 0002:00044440       $chain$4$_glfwInputMonitor 0000000140089440     raylib:rglfw.obj
 0002:00044450       $unwind$_glfwInputError    0000000140089450     raylib:rglfw.obj
 0002:00044464       $chain$0$_glfwInputError   0000000140089464     raylib:rglfw.obj
 0002:00044478       $chain$1$_glfwInputError   0000000140089478     raylib:rglfw.obj
 0002:0004448c       $chain$2$_glfwInputError   000000014008948c     raylib:rglfw.obj
 0002:0004449c       $chain$3$_glfwInputError   000000014008949c     raylib:rglfw.obj
 0002:000444ac       $unwind$_glfwChooseFBConfig 00000001400894ac     raylib:rglfw.obj
 0002:000444b8       $chain$3$_glfwChooseFBConfig 00000001400894b8     raylib:rglfw.obj
 0002:000444d8       $chain$4$_glfwChooseFBConfig 00000001400894d8     raylib:rglfw.obj
 0002:000444e8       $unwind$_glfwRefreshContextAttribs 00000001400894e8     raylib:rglfw.obj
 0002:00044508       $unwind$_glfwChooseVideoMode 0000000140089508     raylib:rglfw.obj
 0002:0004451c       $chain$0$_glfwChooseVideoMode 000000014008951c     raylib:rglfw.obj
 0002:00044530       $chain$1$_glfwChooseVideoMode 0000000140089530     raylib:rglfw.obj
 0002:00044540       $unwind$_glfwAllocJoystick 0000000140089540     raylib:rglfw.obj
 0002:00044554       $chain$3$_glfwAllocJoystick 0000000140089554     raylib:rglfw.obj
 0002:00044570       $chain$4$_glfwAllocJoystick 0000000140089570     raylib:rglfw.obj
 0002:00044588       $unwind$_glfwInitEGL       0000000140089588     raylib:rglfw.obj
 0002:000445a0       $unwind$_glfwCreateContextEGL 00000001400895a0     raylib:rglfw.obj
 0002:000445c0       $unwind$_glfwCreateContextOSMesa 00000001400895c0     raylib:rglfw.obj
 0002:000445d4       $chain$0$_glfwCreateContextOSMesa 00000001400895d4     raylib:rglfw.obj
 0002:000445e8       $chain$1$_glfwCreateContextOSMesa 00000001400895e8     raylib:rglfw.obj
 0002:000445f8       $chain$1$terminate         00000001400895f8     raylib:rglfw.obj
 0002:00044610       $chain$4$terminate         0000000140089610     raylib:rglfw.obj
 0002:0004462c       $chain$5$terminate         000000014008962c     raylib:rglfw.obj
 0002:0004463c       $chain$6$terminate         000000014008963c     raylib:rglfw.obj
 0002:00044650       $chain$7$terminate         0000000140089650     raylib:rglfw.obj
 0002:00044660       $chain$0$refreshVideoModes 0000000140089660     raylib:rglfw.obj
 0002:00044674       $chain$2$refreshVideoModes 0000000140089674     raylib:rglfw.obj
 0002:00044688       $unwind$parseMapping       0000000140089688     raylib:rglfw.obj
 0002:000446a0       $chain$2$parseMapping      00000001400896a0     raylib:rglfw.obj
 0002:000446bc       $chain$3$parseMapping      00000001400896bc     raylib:rglfw.obj
 0002:000446bc       $chain$5$parseMapping      00000001400896bc     raylib:rglfw.obj
 0002:000446cc       $chain$4$parseMapping      00000001400896cc     raylib:rglfw.obj
 0002:000446e8       $unwind$loadLibraries      00000001400896e8     raylib:rglfw.obj
 0002:000446f8       $chain$0$loadLibraries     00000001400896f8     raylib:rglfw.obj
 0002:0004470c       $chain$1$loadLibraries     000000014008970c     raylib:rglfw.obj
 0002:0004471c       $unwind$helperWindowProc   000000014008971c     raylib:rglfw.obj
 0002:0004472c       $chain$1$helperWindowProc  000000014008972c     raylib:rglfw.obj
 0002:00044744       $chain$2$helperWindowProc  0000000140089744     raylib:rglfw.obj
 0002:00044754       $unwind$monitorCallback    0000000140089754     raylib:rglfw.obj
 0002:0004476c       $unwind$createMonitor      000000014008976c     raylib:rglfw.obj
 0002:00044784       $chain$0$createMonitor     0000000140089784     raylib:rglfw.obj
 0002:00044798       $chain$1$createMonitor     0000000140089798     raylib:rglfw.obj
 0002:000447ac       $chain$4$createMonitor     00000001400897ac     raylib:rglfw.obj
 0002:000447c8       $chain$5$createMonitor     00000001400897c8     raylib:rglfw.obj
 0002:000447dc       $chain$6$createMonitor     00000001400897dc     raylib:rglfw.obj
 0002:000447ec       $chain$7$createMonitor     00000001400897ec     raylib:rglfw.obj
 0002:00044800       $chain$8$createMonitor     0000000140089800     raylib:rglfw.obj
 0002:00044814       $chain$9$createMonitor     0000000140089814     raylib:rglfw.obj
 0002:00044824       $unwind$chooseImage        0000000140089824     raylib:rglfw.obj
 0002:00044830       $chain$0$chooseImage       0000000140089830     raylib:rglfw.obj
 0002:00044844       $chain$1$chooseImage       0000000140089844     raylib:rglfw.obj
 0002:00044854       $unwind$createIcon         0000000140089854     raylib:rglfw.obj
 0002:00044874       $unwind$applyAspectRatio   0000000140089874     raylib:rglfw.obj
 0002:0004488c       $chain$3$applyAspectRatio  000000014008988c     raylib:rglfw.obj
 0002:000448ac       $chain$4$applyAspectRatio  00000001400898ac     raylib:rglfw.obj
 0002:000448c8       $chain$5$applyAspectRatio  00000001400898c8     raylib:rglfw.obj
 0002:000448d8       $unwind$captureCursor      00000001400898d8     raylib:rglfw.obj
 0002:000448e8       $unwind$cursorInContentArea 00000001400898e8     raylib:rglfw.obj
 0002:000448fc       $unwind$updateWindowStyles 00000001400898fc     raylib:rglfw.obj
 0002:00044914       $unwind$updateFramebufferTransparency 0000000140089914     raylib:rglfw.obj
 0002:0004491c       $chain$0$updateFramebufferTransparency 000000014008991c     raylib:rglfw.obj
 0002:00044930       $chain$1$updateFramebufferTransparency 0000000140089930     raylib:rglfw.obj
 0002:00044940       $unwind$fitToMonitor       0000000140089940     raylib:rglfw.obj
 0002:00044950       $unwind$windowProc         0000000140089950     raylib:rglfw.obj
 0002:0004496c       $chain$1$windowProc        000000014008996c     raylib:rglfw.obj
 0002:00044984       $chain$3$windowProc        0000000140089984     raylib:rglfw.obj
 0002:0004499c       $chain$4$windowProc        000000014008999c     raylib:rglfw.obj
 0002:000449ac       $chain$5$windowProc        00000001400899ac     raylib:rglfw.obj
 0002:000449bc       $unwind$createNativeWindow 00000001400899bc     raylib:rglfw.obj
 0002:000449e0       $unwind$supportsXInput     00000001400899e0     raylib:rglfw.obj
 0002:00044a00       $chain$0$supportsXInput    0000000140089a00     raylib:rglfw.obj
 0002:00044a14       $chain$1$supportsXInput    0000000140089a14     raylib:rglfw.obj
 0002:00044a24       $unwind$deviceObjectCallback 0000000140089a24     raylib:rglfw.obj
 0002:00044a3c       $unwind$deviceCallback     0000000140089a3c     raylib:rglfw.obj
 0002:00044a5c       $chain$1$deviceCallback    0000000140089a5c     raylib:rglfw.obj
 0002:00044a70       $chain$2$deviceCallback    0000000140089a70     raylib:rglfw.obj
 0002:00044a80       $unwind$findPixelFormatAttribValueWGL 0000000140089a80     raylib:rglfw.obj
 0002:00044a94       $unwind$choosePixelFormatWGL 0000000140089a94     raylib:rglfw.obj
 0002:00044ab0       $chain$1$choosePixelFormatWGL 0000000140089ab0     raylib:rglfw.obj
 0002:00044ac8       $chain$0$swapBuffersWGL    0000000140089ac8     raylib:rglfw.obj
 0002:00044adc       $chain$1$swapBuffersWGL    0000000140089adc     raylib:rglfw.obj
 0002:00044aec       $chain$0$swapIntervalWGL   0000000140089aec     raylib:rglfw.obj
 0002:00044b00       $chain$1$swapIntervalWGL   0000000140089b00     raylib:rglfw.obj
 0002:00044b10       $unwind$chooseEGLConfig    0000000140089b10     raylib:rglfw.obj
 0002:00044b24       $chain$4$chooseEGLConfig   0000000140089b24     raylib:rglfw.obj
 0002:00044b44       $chain$5$chooseEGLConfig   0000000140089b44     raylib:rglfw.obj
 0002:00044b60       $chain$6$chooseEGLConfig   0000000140089b60     raylib:rglfw.obj
 0002:00044b78       $chain$0$makeContextCurrentOSMesa 0000000140089b78     raylib:rglfw.obj
 0002:00044b8c       $chain$1$makeContextCurrentOSMesa 0000000140089b8c     raylib:rglfw.obj
 0002:00044b9c       $unwind$__GSHandlerCheckCommon 0000000140089b9c     msvcrt:gshandler.obj
 0002:00044ba8       $xdatasym                  0000000140089ba8     msvcrt:amdsecgs.obj
 0002:00044bac       $unwind$?__scrt_common_main_seh@@YAHXZ 0000000140089bac     msvcrt:exe_main.obj
 0002:00044be4       $unwind$?filt$0@?0??__scrt_common_main_seh@@YAHXZ@4HA 0000000140089be4     msvcrt:exe_main.obj
 0002:00044bec       $unwind$__report_securityfailure 0000000140089bec     msvcrt:gs_report.obj
 0002:00044bf4       $unwind$__report_gsfailure 0000000140089bf4     msvcrt:gs_report.obj
 0002:00044bfc       $unwind$capture_current_context 0000000140089bfc     msvcrt:gs_report.obj
 0002:00044c08       $unwind$capture_previous_context 0000000140089c08     msvcrt:gs_report.obj
 0002:00044c18       $xdatasym                  0000000140089c18     msvcrt:chkstk.obj
 0002:00044c20       $unwind$__isa_available_init 0000000140089c20     msvcrt:cpu_disp.obj
 0002:00044c30       $unwind$__scrt_is_nonwritable_in_current_image 0000000140089c30     msvcrt:utility.obj
 0002:00044c50       $unwind$__scrt_is_nonwritable_in_current_image$filt$0 0000000140089c50     msvcrt:utility.obj
 0002:00044c58       $unwind$__security_init_cookie 0000000140089c58     msvcrt:gs_support.obj
 0002:00044c64       $unwind$__scrt_fastfail    0000000140089c64     msvcrt:utility_desktop.obj
 0002:00044c78       $xdatasym                  0000000140089c78     msvcrt:guard_dispatch.obj
 0002:00044c80       $xdatasym                  0000000140089c80     msvcrt:guard_xfg_dispatch.obj
 0002:000455c2       .idata$6                   000000014008a5c2     gdi32:GDI32.dll
 0002:00045b80       .idata$6                   000000014008ab80     user32:USER32.dll
 0002:00045b9e       .idata$6                   000000014008ab9e     winmm:WINMM.dll
 0002:00045bec       .idata$6                   000000014008abec     shell32:SHELL32.dll
 0002:00045f0e       .idata$6                   000000014008af0e     kernel32:KERNEL32.dll
 0002:00045fa4       .idata$6                   000000014008afa4     vcruntime:VCRUNTIME140.dll
 0002:0004630c       .idata$6                   000000014008b30c     ucrt:api-ms-win-crt-heap-l1-1-0.dll
 0002:0004632c       .idata$6                   000000014008b32c     ucrt:api-ms-win-crt-utility-l1-1-0.dll
 0002:0004634e       .idata$6                   000000014008b34e     ucrt:api-ms-win-crt-time-l1-1-0.dll
 0002:0004636e       .idata$6                   000000014008b36e     ucrt:api-ms-win-crt-math-l1-1-0.dll
 0002:0004638e       .idata$6                   000000014008b38e     ucrt:api-ms-win-crt-runtime-l1-1-0.dll
 0002:000463b0       .idata$6                   000000014008b3b0     ucrt:api-ms-win-crt-stdio-l1-1-0.dll
 0002:000463d0       .idata$6                   000000014008b3d0     ucrt:api-ms-win-crt-string-l1-1-0.dll
 0002:000463f2       .idata$6                   000000014008b3f2     ucrt:api-ms-win-crt-filesystem-l1-1-0.dll
 0002:00046418       .idata$6                   000000014008b418     ucrt:api-ms-win-crt-convert-l1-1-0.dll
 0002:0004643a       .idata$6                   000000014008b43a     ucrt:api-ms-win-crt-locale-l1-1-0.dll
 0003:00004470       GESTURES                   0000000140090470     raylib:rcore.obj
 0003:00004510       autoEventTypeName          0000000140090510     raylib:rcore.obj
 0003:000045d0       stbir__horizontal_gather_1_channels_with_n_coeffs_funcs 00000001400905d0     raylib:rtextures.obj
 0003:000045f0       stbir__horizontal_gather_1_channels_funcs 00000001400905f0     raylib:rtextures.obj
 0003:00004650       stbir__horizontal_gather_2_channels_with_n_coeffs_funcs 0000000140090650     raylib:rtextures.obj
 0003:00004670       stbir__horizontal_gather_2_channels_funcs 0000000140090670     raylib:rtextures.obj
 0003:000046d0       stbir__horizontal_gather_3_channels_with_n_coeffs_funcs 00000001400906d0     raylib:rtextures.obj
 0003:000046f0       stbir__horizontal_gather_3_channels_funcs 00000001400906f0     raylib:rtextures.obj
 0003:00004750       stbir__horizontal_gather_4_channels_with_n_coeffs_funcs 0000000140090750     raylib:rtextures.obj
 0003:00004770       stbir__horizontal_gather_4_channels_funcs 0000000140090770     raylib:rtextures.obj
 0003:000047e0       stbir__horizontal_gather_7_channels_with_n_coeffs_funcs 00000001400907e0     raylib:rtextures.obj
 0003:00004800       stbir__horizontal_gather_7_channels_funcs 0000000140090800     raylib:rtextures.obj
 0003:00004880       stbi__stdio_callbacks      0000000140090880     raylib:rtextures.obj
 0003:00004898       stbi__l2h_gamma            0000000140090898     raylib:rtextures.obj
 0003:0000489c       stbi__l2h_scale            000000014009089c     raylib:rtextures.obj
 0003:000048a0       stbi__h2l_gamma_i          00000001400908a0     raylib:rtextures.obj
 0003:000048a4       stbi__h2l_scale_i          00000001400908a4     raylib:rtextures.obj
 0003:000048a8       first_row_filter           00000001400908a8     raylib:rtextures.obj
 0003:000048b0       ?invalid_chunk@?BP@??stbi__parse_png_file@@9@9 00000001400908b0     raylib:rtextures.obj
 0003:000048d0       ?lengthc@?1??stbi_zlib_compress@@9@9 00000001400908d0     raylib:rtextures.obj
 0003:00004910       ?lengtheb@?1??stbi_zlib_compress@@9@9 0000000140090910     raylib:rtextures.obj
 0003:00004930       ?distc@?1??stbi_zlib_compress@@9@9 0000000140090930     raylib:rtextures.obj
 0003:00004970       ?disteb@?1??stbi_zlib_compress@@9@9 0000000140090970     raylib:rtextures.obj
 0003:00004990       ?crc_table@?1??stbiw__crc32@@9@9 0000000140090990     raylib:rtextures.obj
 0003:00004d90       ?mapping@?1??stbiw__encode_png_line@@9@9 0000000140090d90     raylib:rtextures.obj
 0003:00004da8       ?firstmap@?1??stbiw__encode_png_line@@9@9 0000000140090da8     raylib:rtextures.obj
 0003:00004dc0       stb__perlin_randtab        0000000140090dc0     raylib:rtextures.obj
 0003:00004fc0       stb__perlin_randtab_grad_idx 0000000140090fc0     raylib:rtextures.obj
 0003:000051c0       ?basis@?1??stb__perlin_grad@@9@9 00000001400911c0     raylib:rtextures.obj
 0003:00005280       stbir__type_size           0000000140091280     raylib:rtextures.obj
 0003:00005290       stbir__srgb_uchar_to_linear_float 0000000140091290     raylib:rtextures.obj
 0003:00005690       stbir__edge_wrap_slow      0000000140091690     raylib:rtextures.obj
 0003:000056b0       stbir__vertical_gathers    00000001400916b0     raylib:rtextures.obj
 0003:000056f0       stbir__vertical_gathers_continues 00000001400916f0     raylib:rtextures.obj
 0003:00005730       stbir__vertical_scatter_sets 0000000140091730     raylib:rtextures.obj
 0003:00005770       stbir__vertical_scatter_blends 0000000140091770     raylib:rtextures.obj
 0003:000057b0       stbir__builtin_kernels     00000001400917b0     raylib:rtextures.obj
 0003:000057e8       stbir__builtin_supports    00000001400917e8     raylib:rtextures.obj
 0003:00005820       stbir__horizontal_gather_n_coeffs_funcs 0000000140091820     raylib:rtextures.obj
 0003:00005860       stbir__horizontal_gather_channels_funcs 0000000140091860     raylib:rtextures.obj
 0003:000058a0       stbir__compute_weights     00000001400918a0     raylib:rtextures.obj
 0003:00005b20       stbir__pixel_channels      0000000140091b20     raylib:rtextures.obj
 0003:00005b40       stbir__pixel_layout_convert_public_to_internal 0000000140091b40     raylib:rtextures.obj
 0003:00005b88       ?stbir_channel_count_index@?1??stbir__alloc_internal_mem_and_build_samplers@@9@9 0000000140091b88     raylib:rtextures.obj
 0003:00005b90       ?fancy_alpha_effective_cnts@?5??stbir__alloc_internal_mem_and_build_samplers@@9@9 0000000140091b90     raylib:rtextures.obj
 0003:00005ba8       ?fancy_alpha_weights@?L@??stbir__alloc_internal_mem_and_build_samplers@@9@9 0000000140091ba8     raylib:rtextures.obj
 0003:00005bd8       ?fancy_alpha_unweights@?L@??stbir__alloc_internal_mem_and_build_samplers@@9@9 0000000140091bd8     raylib:rtextures.obj
 0003:00005c08       ?simple_alpha_weights@?L@??stbir__alloc_internal_mem_and_build_samplers@@9@9 0000000140091c08     raylib:rtextures.obj
 0003:00005c38       ?simple_alpha_unweights@?L@??stbir__alloc_internal_mem_and_build_samplers@@9@9 0000000140091c38     raylib:rtextures.obj
 0003:00005c68       ?decode_simple@?1??stbir__update_info_from_resize@@9@9 0000000140091c68     raylib:rtextures.obj
 0003:00005c90       ?decode_alphas@?1??stbir__update_info_from_resize@@9@9 0000000140091c90     raylib:rtextures.obj
 0003:00005d80       ?decode_simple_scaled_or_not@?1??stbir__update_info_from_resize@@9@9 0000000140091d80     raylib:rtextures.obj
 0003:00005da0       ?decode_alphas_scaled_or_not@?1??stbir__update_info_from_resize@@9@9 0000000140091da0     raylib:rtextures.obj
 0003:00005e60       ?encode_simple@?1??stbir__update_info_from_resize@@9@9 0000000140091e60     raylib:rtextures.obj
 0003:00005e90       ?encode_alphas@?1??stbir__update_info_from_resize@@9@9 0000000140091e90     raylib:rtextures.obj
 0003:00005f80       ?encode_simple_scaled_or_not@?1??stbir__update_info_from_resize@@9@9 0000000140091f80     raylib:rtextures.obj
 0003:00005fa0       ?encode_alphas_scaled_or_not@?1??stbir__update_info_from_resize@@9@9 0000000140091fa0     raylib:rtextures.obj
 0003:00006060       m3d_propertytypes          0000000140092060     raylib:rmodels.obj
 0003:00006090       m3d_commandtypes           0000000140092090     raylib:rmodels.obj
 0003:000061f0       _m3dstbi__zlength_base     00000001400921f0     raylib:rmodels.obj
 0003:00006270       _m3dstbi__zlength_extra    0000000140092270     raylib:rmodels.obj
 0003:000062f0       _m3dstbi__zdist_base       00000001400922f0     raylib:rmodels.obj
 0003:00006370       _m3dstbi__zdist_extra      0000000140092370     raylib:rmodels.obj
 0003:000063f0       ?length_dezigzag@?1??_m3dstbi__compute_huffman_codes@@9@9 00000001400923f0     raylib:rmodels.obj
 0003:00006408       ?png_sig@?1??_m3dstbi__check_png_header@@9@9 0000000140092408     raylib:rmodels.obj
 0003:00006410       first_row_filter           0000000140092410     raylib:rmodels.obj
 0003:00006418       _m3dstbi__depth_scale_table 0000000140092418     raylib:rmodels.obj
 0003:00006424       par_shapes__epsilon_welded_normals 0000000140092424     raylib:rmodels.obj
 0003:00006428       par_shapes__epsilon_degenerate_sphere 0000000140092428     raylib:rmodels.obj
 0003:00006430       ?verts@?1??par_shapes_create_icosahedron@@9@9 0000000140092430     raylib:rmodels.obj
 0003:000064c0       ?faces@?1??par_shapes_create_icosahedron@@9@9 00000001400924c0     raylib:rmodels.obj
 0003:00006540       ?verts@?1??par_shapes_create_dodecahedron@@9@9 0000000140092540     raylib:rmodels.obj
 0003:00006630       ?pentagons@?1??par_shapes_create_dodecahedron@@9@9 0000000140092630     raylib:rmodels.obj
 0003:000066b0       ?verts@?1??par_shapes_create_octahedron@@9@9 00000001400926b0     raylib:rmodels.obj
 0003:000066f8       ?triangles@?1??par_shapes_create_octahedron@@9@9 00000001400926f8     raylib:rmodels.obj
 0003:00006728       ?verts@?1??par_shapes_create_tetrahedron@@9@9 0000000140092728     raylib:rmodels.obj
 0003:00006758       ?triangles@?1??par_shapes_create_tetrahedron@@9@9 0000000140092758     raylib:rmodels.obj
 0003:00006770       ?verts@?1??par_shapes_create_cube@@9@9 0000000140092770     raylib:rmodels.obj
 0003:000067d0       ?quads@?1??par_shapes_create_cube@@9@9 00000001400927d0     raylib:rmodels.obj
 0003:00006800       logTypeLevel               0000000140092800     raylib:utils.obj
 0003:00006830       textLineSpacing            0000000140092830     raylib:rtext.obj
 0003:00007fd0       _glfwObjectDataFormats     0000000140093fd0     raylib:rglfw.obj
 0003:000083f0       _glfwInitHints             00000001400943f0     raylib:rglfw.obj
 0003:0000b170       RLGL                       0000000140097170     raylib:rcore.obj
 0003:0000bc10       rprand_seed                0000000140097c10     raylib:rcore.obj
 0003:0000bc18       rprand_state               0000000140097c18     raylib:rcore.obj
 0003:0000bc28       screenshotCounter          0000000140097c28     raylib:rcore.obj
 0003:0000bc2c       automationEventRecording   0000000140097c2c     raylib:rcore.obj
 0003:0000bc30       currentEventList           0000000140097c30     raylib:rcore.obj
 0003:0000bc38       platform                   0000000140097c38     raylib:rcore.obj
 0003:0000bc40       ?index@?1??GetFPS@@9@9     0000000140097c40     raylib:rcore.obj
 0003:0000bc44       ?average@?1??GetFPS@@9@9   0000000140097c44     raylib:rcore.obj
 0003:0000bc48       ?last@?1??GetFPS@@9@9      0000000140097c48     raylib:rcore.obj
 0003:0000bc50       ?history@?1??GetFPS@@9@9   0000000140097c50     raylib:rcore.obj
 0003:0000bcd0       ?fileName@?1??GetFileNameWithoutExt@@9@9 0000000140097cd0     raylib:rcore.obj
 0003:0000bdd0       ?dirPath@?1??GetDirectoryPath@@9@9 0000000140097dd0     raylib:rcore.obj
 0003:0000cdd0       ?prevDirPath@?1??GetPrevDirectoryPath@@9@9 0000000140098dd0     raylib:rcore.obj
 0003:0000ddd0       ?currentDir@?1??GetWorkingDirectory@@9@9 0000000140099dd0     raylib:rcore.obj
 0003:0000edd0       ?appDir@?1??GetApplicationDirectory@@9@9 000000014009add0     raylib:rcore.obj
 0003:0000fdd0       ?path@?1??ScanDirectoryFiles@@9@9 000000014009bdd0     raylib:rcore.obj
 0003:00010dd0       stbi__g_failure_reason     000000014009cdd0     raylib:rtextures.obj
 0003:00010dd8       stbi__vertically_flip_on_load_global 000000014009cdd8     raylib:rtextures.obj
 0003:00010ddc       stbi__unpremultiply_on_load_global 000000014009cddc     raylib:rtextures.obj
 0003:00010de0       stbi__de_iphone_flag_global 000000014009cde0     raylib:rtextures.obj
 0003:00010de4       stbi__flip_vertically_on_write 000000014009cde4     raylib:rtextures.obj
 0003:00010df0       _m3dstbi__g_failure_reason 000000014009cdf0     raylib:rmodels.obj
 0003:00010e00       _m3dstbi__zdefault_length  000000014009ce00     raylib:rmodels.obj
 0003:00010f20       _m3dstbi__zdefault_distance 000000014009cf20     raylib:rmodels.obj
 0003:00010f40       par_shapes__sort_context   000000014009cf40     raylib:rmodels.obj
 0003:00010f50       traceLog                   000000014009cf50     raylib:utils.obj
 0003:00010f58       loadFileData               000000014009cf58     raylib:utils.obj
 0003:00010f60       saveFileData               000000014009cf60     raylib:utils.obj
 0003:00010f68       loadFileText               000000014009cf68     raylib:utils.obj
 0003:00010f70       saveFileText               000000014009cf70     raylib:utils.obj
 0003:00010f80       defaultFont                000000014009cf80     raylib:rtext.obj
 0003:00010fb0       ?buffers@?1??TextFormat@@9@9 000000014009cfb0     raylib:rtext.obj
 0003:00011fb0       ?index@?1??TextFormat@@9@9 000000014009dfb0     raylib:rtext.obj
 0003:00011fb4       ?utf8@?1??CodepointToUTF8@@9@9 000000014009dfb4     raylib:rtext.obj
 0003:00011fc0       ?buffer@?1??TextSubtext@@9@9 000000014009dfc0     raylib:rtext.obj
 0003:000123c0       ?buffer@?1??TextJoin@@9@9  000000014009e3c0     raylib:rtext.obj
 0003:000127c0       ?result@?1??TextSplit@@9@9 000000014009e7c0     raylib:rtext.obj
 0003:00012bc0       ?buffer@?1??TextSplit@@9@9 000000014009ebc0     raylib:rtext.obj
 0003:00012fc0       ?buffer@?1??TextToUpper@@9@9 000000014009efc0     raylib:rtext.obj
 0003:000133c0       ?buffer@?1??TextToLower@@9@9 000000014009f3c0     raylib:rtext.obj
 0003:000137c0       ?buffer@?1??TextToPascal@@9@9 000000014009f7c0     raylib:rtext.obj
 0003:00016698       _glfwErrorCallback         00000001400a2698     raylib:rglfw.obj
 0003:000166a0       _glfwMainThreadError       00000001400a26a0     raylib:rglfw.obj
 0003:00016ab0       _glfwInitAllocator         00000001400a2ab0     raylib:rglfw.obj
 0003:00016ad0       GS_ExceptionRecord         00000001400a2ad0     msvcrt:gs_report.obj
 0003:00016b70       GS_ContextRecord           00000001400a2b70     msvcrt:gs_report.obj
 0003:00017058       ?is_initialized_as_dll@@3_NA 00000001400a3058     msvcrt:utility.obj
 0003:00017059       ?module_local_atexit_table_initialized@@3_NA 00000001400a3059     msvcrt:utility.obj
 0003:00017060       ?module_local_atexit_table@@3U_onexit_table_t@@A 00000001400a3060     msvcrt:utility.obj
 0003:00017078       ?module_local_at_quick_exit_table@@3U_onexit_table_t@@A 00000001400a3078     msvcrt:utility.obj
